.model full
	.sourcedir 'C:\GameCards Core\GameCards\MobidexANC/'
	.sourcefile 'C:\GameCards Core\GameCards\MobidexANC\AlbumViewScreen.cpp'
	.stabs	"gcc2_compiled.",60,0,0,0
	.stabs	"__vtbl_ptr_type:t(0,1)=*(0,2)=f(0,3)=r(0,3);-2147483648;2147483647;",128,0,0,0
	.stabs	"bool:t(0,4)=@s8;-16;",128,0,0,0
	.stabs	"wchar_t:t(0,5)=@s16;r(0,5);0;65535;",128,0,0,0
	.stabs	"void:t(0,6)=(0,6)",128,0,0,0
	.stabs	"long double:t(0,7)=r(0,3);8;0;",128,0,0,0
	.stabs	"double:t(0,8)=r(0,3);8;0;",128,0,0,0
	.stabs	"float:t(0,9)=r(0,3);4;0;",128,0,0,0
	.stabs	"unsigned char:t(0,10)=@s8;r(0,10);0;255;",128,0,0,0
	.stabs	"signed char:t(0,11)=@s8;r(0,11);-128;127;",128,0,0,0
	.stabs	"short unsigned int:t(0,12)=@s16;r(0,12);0;65535;",128,0,0,0
	.stabs	"short int:t(0,13)=@s16;r(0,13);-32768;32767;",128,0,0,0
	.stabs	"long long unsigned int:t(0,14)=@s64;r(0,14);0000000000000;01777777777777777777777;",128,0,0,0
	.stabs	"long long int:t(0,15)=@s64;r(0,15);01000000000000000000000;0777777777777777777777;",128,0,0,0
	.stabs	"long unsigned int:t(0,16)=r(0,16);0000000000000;0037777777777;",128,0,0,0
	.stabs	"unsigned int:t(0,17)=r(0,17);0000000000000;0037777777777;",128,0,0,0
	.stabs	"long int:t(0,18)=r(0,18);-2147483648;2147483647;",128,0,0,0
	.stabs	"int:t(0,3)",128,0,0,0
	.stabs	"char:t(0,19)=r(0,19);0;127;",128,0,0,0
	.stabs	"__builtin_va_list:t(0,20)=*(0,6)",128,0,0,0
	.stabs	"complex long double:t(0,21)=R3;16;0;",128,0,0,0
	.stabs	"complex double:t(0,22)=R3;16;0;",128,0,0,0
	.stabs	"complex float:t(0,23)=R3;8;0;",128,0,0,0
	.stabs	"complex int:t(0,24)=s8real:(0,3),0,32;imag:(0,3),32,32;;",128,0,0,0
	.stabs	"c:/Apps/MoSync2.4/include/conprint.h",130,0,0,0
	.stabs	"c:/Apps/MoSync2.4/include/ma.h",130,0,0,0
	.stabs	"c:/Apps/MoSync2.4/include/maapi.h",130,0,0,0
	.stabs	"c:/Apps/MoSync2.4/include/maapi_defs.h",130,0,0,0
	.stabs	"MA_DV:Tt(4,1)=u8:(4,2)=s8hi:(0,3),0,32;lo:(0,3),32,32;;,0,64;ll:(0,15),0,64;d:(0,8),0,64;operator=::(4,3)=#(4,1),(4,4)=&(4,1),(4,5)=*(4,1),(4,6)=&(4,7)=k(4,1),(0,6);:_ZN5MA_DVaSERKS_;2A.;__base_ctor::(4,8)=#(4,1),(0,6),(4,5),(4,6),(0,6);:_ZN5MA_DVC2ERKS_;2A.;__comp_ctor::(4,8):_ZN5MA_DVC1ERKS_;2A.;__base_ctor::(4,9)=#(4,1),(0,6),(4,5),(0,6);:_ZN5MA_DVC2Ev;2A.;__comp_ctor::(4,9):_ZN5MA_DVC1Ev;2A.;;",128,0,37,0
	.stabs	"MA_FV:Tt(4,10)=u4f:(0,9),0,32;i:(0,3),0,32;operator=::(4,11)=#(4,10),(4,12)=&(4,10),(4,13)=*(4,10),(4,14)=&(4,15)=k(4,10),(0,6);:_ZN5MA_FVaSERKS_;2A.;__base_ctor::(4,16)=#(4,10),(0,6),(4,13),(4,14),(0,6);:_ZN5MA_FVC2ERKS_;2A.;__comp_ctor::(4,16):_ZN5MA_FVC1ERKS_;2A.;__base_ctor::(4,17)=#(4,10),(0,6),(4,13),(0,6);:_ZN5MA_FVC2Ev;2A.;__comp_ctor::(4,17):_ZN5MA_FVC1Ev;2A.;;",128,0,50,0
	.stabn	162,0,0,0
	.stabs	"wchar:t(3,1)=(0,5)",128,0,84,0
	.stabs	"ushort:t(3,2)=(0,12)",128,0,96,0
	.stabs	"uint:t(3,3)=(0,17)",128,0,97,0
	.stabs	"MAString:t(3,4)=(3,5)=*(0,19)",128,0,100,0
	.stabs	"MAWString:t(3,6)=(3,7)=*(3,1)",128,0,101,0
	.stabs	"MAAddress:t(3,8)=(3,9)=*(0,6)",128,0,102,0
	.stabs	"MAHandle:t(3,10)=(0,3)",128,0,103,0
	.stabs	"MAExtent:t(3,11)=(0,3)",128,0,104,0
	.stabs	"byte:t(3,12)=(0,10)",128,0,105,0
	.stabs	"ulong:t(3,13)=(0,16)",128,0,106,0
	.stabs	"longlong:t(3,14)=(0,15)",128,0,107,0
	.stabs	"MAPoint2d:Tt(3,15)=s8x:(0,3),0,32;y:(0,3),32,32;operator=::(3,16)=#(3,15),(3,17)=&(3,15),(3,18)=*(3,15),(3,19)=&(3,20)=k(3,15),(0,6);:_ZN9MAPoint2daSERKS_;2A.;__base_ctor::(3,21)=#(3,15),(0,6),(3,18),(3,19),(0,6);:_ZN9MAPoint2dC2ERKS_;2A.;__comp_ctor::(3,21):_ZN9MAPoint2dC1ERKS_;2A.;__base_ctor::(3,22)=#(3,15),(0,6),(3,18),(0,6);:_ZN9MAPoint2dC2Ev;2A.;__comp_ctor::(3,22):_ZN9MAPoint2dC1Ev;2A.;;",128,0,550,0
	.stabs	"MAPoint2d:t(3,23)=(3,15)",128,0,553,0
	.stabs	"MARect:Tt(3,24)=s16left:(0,3),0,32;top:(0,3),32,32;width:(0,3),64,32;height:(0,3),96,32;operator=::(3,25)=#(3,24),(3,26)=&(3,24),(3,27)=*(3,24),(3,28)=&(3,29)=k(3,24),(0,6);:_ZN6MARectaSERKS_;2A.;__base_ctor::(3,30)=#(3,24),(0,6),(3,27),(3,28),(0,6);:_ZN6MARectC2ERKS_;2A.;__comp_ctor::(3,30):_ZN6MARectC1ERKS_;2A.;__base_ctor::(3,31)=#(3,24),(0,6),(3,27),(0,6);:_ZN6MARectC2Ev;2A.;__comp_ctor::(3,31):_ZN6MARectC1Ev;2A.;;",128,0,561,0
	.stabs	"MARect:t(3,32)=(3,24)",128,0,566,0
	.stabs	"MACopyData:Tt(3,33)=s20dst:(3,10),0,32;dstOffset:(0,3),32,32;src:(3,10),64,32;srcOffset:(0,3),96,32;size:(0,3),128,32;operator=::(3,34)=#(3,33),(3,35)=&(3,33),(3,36)=*(3,33),(3,37)=&(3,38)=k(3,33),(0,6);:_ZN10MACopyDataaSERKS_;2A.;__base_ctor::(3,39)=#(3,33),(0,6),(3,36),(3,37),(0,6);:_ZN10MACopyDataC2ERKS_;2A.;__comp_ctor::(3,39):_ZN10MACopyDataC1ERKS_;2A.;__base_ctor::(3,40)=#(3,33),(0,6),(3,36),(0,6);:_ZN10MACopyDataC2Ev;2A.;__comp_ctor::(3,40):_ZN10MACopyDataC1Ev;2A.;;",128,0,571,0
	.stabs	"MACopyData:t(3,41)=(3,33)",128,0,577,0
	.stabs	"MAConnAddrInet4:Tt(3,42)=s8addr:(0,3),0,32;port:(0,3),32,32;operator=::(3,43)=#(3,42),(3,44)=&(3,42),(3,45)=*(3,42),(3,46)=&(3,47)=k(3,42),(0,6);:_ZN15MAConnAddrInet4aSERKS_;2A.;__base_ctor::(3,48)=#(3,42),(0,6),(3,45),(3,46),(0,6);:_ZN15MAConnAddrInet4C2ERKS_;2A.;__comp_ctor::(3,48):_ZN15MAConnAddrInet4C1ERKS_;2A.;__base_ctor::(3,49)=#(3,42),(0,6),(3,45),(0,6);:_ZN15MAConnAddrInet4C2Ev;2A.;__comp_ctor::(3,49):_ZN15MAConnAddrInet4C1Ev;2A.;;",128,0,582,0
	.stabs	"MAConnAddrInet4:t(3,50)=(3,42)",128,0,585,0
	.stabs	"MABtAddr:Tt(3,51)=s6a:(3,52)=ar(3,53)=r(3,53);0000000000000;0037777777777;;0;5;(3,12),0,48;operator=::(3,54)=#(3,51),(3,55)=&(3,51),(3,56)=*(3,51),(3,57)=&(3,58)=k(3,51),(0,6);:_ZN8MABtAddraSERKS_;2A.;__base_ctor::(3,59)=#(3,51),(0,6),(3,56),(3,57),(0,6);:_ZN8MABtAddrC2ERKS_;2A.;__comp_ctor::(3,59):_ZN8MABtAddrC1ERKS_;2A.;__base_ctor::(3,60)=#(3,51),(0,6),(3,56),(0,6);:_ZN8MABtAddrC2Ev;2A.;__comp_ctor::(3,60):_ZN8MABtAddrC1Ev;2A.;;",128,0,590,0
	.stabs	"MABtAddr:t(3,61)=(3,51)",128,0,592,0
	.stabs	"MAConnAddrBt:Tt(3,62)=s12port:(0,3),0,32;addr:(3,61),32,48;operator=::(3,63)=#(3,62),(3,64)=&(3,62),(3,65)=*(3,62),(3,66)=&(3,67)=k(3,62),(0,6);:_ZN12MAConnAddrBtaSERKS_;2A.;__base_ctor::(3,68)=#(3,62),(0,6),(3,65),(3,66),(0,6);:_ZN12MAConnAddrBtC2ERKS_;2A.;__comp_ctor::(3,68):_ZN12MAConnAddrBtC1ERKS_;2A.;__base_ctor::(3,69)=#(3,62),(0,6),(3,65),(0,6);:_ZN12MAConnAddrBtC2Ev;2A.;__comp_ctor::(3,69):_ZN12MAConnAddrBtC1Ev;2A.;;",128,0,597,0
	.stabs	"MAConnAddrBt:t(3,70)=(3,62)",128,0,600,0
	.stabs	"MAConnAddr:Tt(3,71)=s16family:(0,3),0,32;:(3,72)=u12inet4:(3,50),0,64;bt:(3,70),0,96;;,32,96;operator=::(3,73)=#(3,71),(3,74)=&(3,71),(3,75)=*(3,71),(3,76)=&(3,77)=k(3,71),(0,6);:_ZN10MAConnAddraSERKS_;2A.;__base_ctor::(3,78)=#(3,71),(0,6),(3,75),(3,76),(0,6);:_ZN10MAConnAddrC2ERKS_;2A.;__comp_ctor::(3,78):_ZN10MAConnAddrC1ERKS_;2A.;__base_ctor::(3,79)=#(3,71),(0,6),(3,75),(0,6);:_ZN10MAConnAddrC2Ev;2A.;__comp_ctor::(3,79):_ZN10MAConnAddrC1Ev;2A.;;",128,0,605,0
	.stabs	"MAConnAddr:t(3,80)=(3,71)",128,0,614,0
	.stabs	"MAConnEventData:Tt(3,81)=s12handle:(3,10),0,32;opType:(0,3),32,32;result:(0,3),64,32;operator=::(3,82)=#(3,81),(3,83)=&(3,81),(3,84)=*(3,81),(3,85)=&(3,86)=k(3,81),(0,6);:_ZN15MAConnEventDataaSERKS_;2A.;__base_ctor::(3,87)=#(3,81),(0,6),(3,84),(3,85),(0,6);:_ZN15MAConnEventDataC2ERKS_;2A.;__comp_ctor::(3,87):_ZN15MAConnEventDataC1ERKS_;2A.;__base_ctor::(3,88)=#(3,81),(0,6),(3,84),(0,6);:_ZN15MAConnEventDataC2Ev;2A.;__comp_ctor::(3,88):_ZN15MAConnEventDataC1Ev;2A.;;",128,0,619,0
	.stabs	"MAConnEventData:t(3,89)=(3,81)",128,0,628,0
	.stabs	"MAEvent:Tt(3,90)=s16type:(0,3),0,32;:(3,91)=u12:(3,92)=s8key:(0,3),0,32;nativeKey:(0,3),32,32;;,0,64;character:(3,3),0,32;point:(3,23),0,64;state:(0,3),0,32;conn:(3,89),0,96;:(3,93)=s8textboxResult:(0,3),0,32;textboxLength:(0,3),32,32;;,0,64;data:(3,9),0,32;;,32,96;operator=::(3,94)=#(3,90),(3,95)=&(3,90),(3,96)=*(3,90),(3,97)=&(3,98)=k(3,90),(0,6);:_ZN7MAEventaSERKS_;2A.;__base_ctor::(3,99)=#(3,90),(0,6),(3,96),(3,97),(0,6);:_ZN7MAEventC2ERKS_;2A.;__comp_ctor::(3,99):_ZN7MAEventC1ERKS_;2A.;__base_ctor::(3,100)=#(3,90),(0,6),(3,96),(0,6);:_ZN7MAEventC2Ev;2A.;__comp_ctor::(3,100):_ZN7MAEventC1Ev;2A.;;",128,0,633,0
	.stabs	"MAEvent:t(3,101)=(3,90)",128,0,691,0
	.stabs	"MAPanicReport:Tt(3,102)=s24runtimeId:(0,3),0,32;reportType:(0,3),32,32;time:(0,3),64,32;ip:(0,3),96,32;code:(0,3),128,32;string:(3,103)=ar(3,53);0;0;(0,19),160,8;operator=::(3,104)=#(3,102),(3,105)=&(3,102),(3,106)=*(3,102),(3,107)=&(3,108)=k(3,102),(0,6);:_ZN13MAPanicReportaSERKS_;2A.;__base_ctor::(3,109)=#(3,102),(0,6),(3,106),(3,107),(0,6);:_ZN13MAPanicReportC2ERKS_;2A.;__comp_ctor::(3,109):_ZN13MAPanicReportC1ERKS_;2A.;__base_ctor::(3,110)=#(3,102),(0,6),(3,106),(0,6);:_ZN13MAPanicReportC2Ev;2A.;__comp_ctor::(3,110):_ZN13MAPanicReportC1Ev;2A.;;",128,0,712,0
	.stabs	"MAPanicReport:t(3,111)=(3,102)",128,0,734,0
	.stabs	"MABtDevice:Tt(3,112)=s20name:(3,5),0,32;nameBufSize:(0,3),32,32;actualNameLength:(0,3),64,32;address:(3,61),96,48;operator=::(3,113)=#(3,112),(3,114)=&(3,112),(3,115)=*(3,112),(3,116)=&(3,117)=k(3,112),(0,6);:_ZN10MABtDeviceaSERKS_;2A.;__base_ctor::(3,118)=#(3,112),(0,6),(3,115),(3,116),(0,6);:_ZN10MABtDeviceC2ERKS_;2A.;__comp_ctor::(3,118):_ZN10MABtDeviceC1ERKS_;2A.;__base_ctor::(3,119)=#(3,112),(0,6),(3,115),(0,6);:_ZN10MABtDeviceC2Ev;2A.;__comp_ctor::(3,119):_ZN10MABtDeviceC1Ev;2A.;;",128,0,759,0
	.stabs	"MABtDevice:t(3,120)=(3,112)",128,0,771,0
	.stabs	"MAUUID:Tt(3,121)=s16i:(3,122)=ar(3,53);0;3;(0,3),0,128;operator=::(3,123)=#(3,121),(3,124)=&(3,121),(3,125)=*(3,121),(3,126)=&(3,127)=k(3,121),(0,6);:_ZN6MAUUIDaSERKS_;2A.;__base_ctor::(3,128)=#(3,121),(0,6),(3,125),(3,126),(0,6);:_ZN6MAUUIDC2ERKS_;2A.;__comp_ctor::(3,128):_ZN6MAUUIDC1ERKS_;2A.;__base_ctor::(3,129)=#(3,121),(0,6),(3,125),(0,6);:_ZN6MAUUIDC2Ev;2A.;__comp_ctor::(3,129):_ZN6MAUUIDC1Ev;2A.;;",128,0,778,0
	.stabs	"MAUUID:t(3,130)=(3,121)",128,0,780,0
	.stabs	"MABtServiceSize:Tt(3,131)=s8nameBufSize:(0,3),0,32;nUuids:(0,3),32,32;operator=::(3,132)=#(3,131),(3,133)=&(3,131),(3,134)=*(3,131),(3,135)=&(3,136)=k(3,131),(0,6);:_ZN15MABtServiceSizeaSERKS_;2A.;__base_ctor::(3,137)=#(3,131),(0,6),(3,134),(3,135),(0,6);:_ZN15MABtServiceSizeC2ERKS_;2A.;__comp_ctor::(3,137):_ZN15MABtServiceSizeC1ERKS_;2A.;__base_ctor::(3,138)=#(3,131),(0,6),(3,134),(0,6);:_ZN15MABtServiceSizeC2Ev;2A.;__comp_ctor::(3,138):_ZN15MABtServiceSizeC1Ev;2A.;;",128,0,785,0
	.stabs	"MABtServiceSize:t(3,139)=(3,131)",128,0,796,0
	.stabs	"MABtService:Tt(3,140)=s16port:(0,3),0,32;name:(3,5),32,32;nameBufSize:(0,3),64,32;uuids:(3,141)=*(3,130),96,32;operator=::(3,142)=#(3,140),(3,143)=&(3,140),(3,144)=*(3,140),(3,145)=&(3,146)=k(3,140),(0,6);:_ZN11MABtServiceaSERKS_;2A.;__base_ctor::(3,147)=#(3,140),(0,6),(3,144),(3,145),(0,6);:_ZN11MABtServiceC2ERKS_;2A.;__comp_ctor::(3,147):_ZN11MABtServiceC1ERKS_;2A.;__base_ctor::(3,148)=#(3,140),(0,6),(3,144),(0,6);:_ZN11MABtServiceC2Ev;2A.;__comp_ctor::(3,148):_ZN11MABtServiceC1Ev;2A.;;",128,0,801,0
	.stabs	"MABtService:t(3,149)=(3,140)",128,0,824,0
	.stabs	"MALocation:Tt(3,150)=s40state:(0,3),0,32;lat:(0,8),32,64;lon:(0,8),96,64;horzAcc:(0,8),160,64;vertAcc:(0,8),224,64;alt:(0,9),288,32;operator=::(3,151)=#(3,150),(3,152)=&(3,150),(3,153)=*(3,150),(3,154)=&(3,155)=k(3,150),(0,6);:_ZN10MALocationaSERKS_;2A.;__base_ctor::(3,156)=#(3,150),(0,6),(3,153),(3,154),(0,6);:_ZN10MALocationC2ERKS_;2A.;__comp_ctor::(3,156):_ZN10MALocationC1ERKS_;2A.;__base_ctor::(3,157)=#(3,150),(0,6),(3,153),(0,6);:_ZN10MALocationC2Ev;2A.;__comp_ctor::(3,157):_ZN10MALocationC1Ev;2A.;;",128,0,844,0
	.stabs	"MALocation:t(3,158)=(3,150)",128,0,860,0
	.stabs	"MAFrameBufferInfo:Tt(3,159)=s64sizeInBytes:(0,3),0,32;bytesPerPixel:(0,3),32,32;bitsPerPixel:(0,3),64,32;redMask:(0,3),96,32;redShift:(0,3),128,32;redBits:(0,3),160,32;greenMask:(0,3),192,32;greenShift:(0,3),224,32;greenBits:(0,3),256,32;blueMask:(0,3),288,32;blueShift:(0,3),320,32;blueBits:(0,3),352,32;width:(0,3),384,32;height:(0,3),416,32;pitch:(0,3),448,32;supportsGfxSyscalls:(0,3),480,32;operator=::(3,160)=#(3,159),(3,161)=&(3,159),(3,162)=*(3,159),(3,163)=&(3,164)=k(3,159),(0,6);:_ZN17MAFrameBufferInfoaSERKS_;2A.;__base_ctor::(3,165)=#(3,159),(0,6),(3,162),(3,163),(0,6);:_ZN17MAFrameBufferInfoC2ERKS_;2A.;__comp_ctor::(3,165):_ZN17MAFrameBufferInfoC1ERKS_;2A.;__base_ctor::(3,166)=#(3,159),(0,6),(3,162),(0,6);:_ZN17MAFrameBufferInfoC2Ev;2A.;__comp_ctor::(3,166):_ZN17MAFrameBufferInfoC1Ev;2A.;;",128,0,867,0
	.stabs	"MAFrameBufferInfo:t(3,167)=(3,159)",128,0,884,0
	.stabs	"MA_CAMERA_FORMAT:Tt(3,168)=s8width:(0,3),0,32;height:(0,3),32,32;operator=::(3,169)=#(3,168),(3,170)=&(3,168),(3,171)=*(3,168),(3,172)=&(3,173)=k(3,168),(0,6);:_ZN16MA_CAMERA_FORMATaSERKS_;2A.;__base_ctor::(3,174)=#(3,168),(0,6),(3,171),(3,172),(0,6);:_ZN16MA_CAMERA_FORMATC2ERKS_;2A.;__comp_ctor::(3,174):_ZN16MA_CAMERA_FORMATC1ERKS_;2A.;__base_ctor::(3,175)=#(3,168),(0,6),(3,171),(0,6);:_ZN16MA_CAMERA_FORMATC2Ev;2A.;__comp_ctor::(3,175):_ZN16MA_CAMERA_FORMATC1Ev;2A.;;",128,0,889,0
	.stabs	"MA_CAMERA_FORMAT:t(3,176)=(3,168)",128,0,892,0
	.stabn	162,0,0,0
	.stabs	"size_t:t(2,1)=(0,16)",128,0,32,0
	.stabn	162,0,0,0
	.stabs	"c:/Apps/MoSync2.4/include/maarg.h",130,0,0,0
	.stabs	"__gnuc_va_list:t(5,1)=(0,20)",128,0,34,0
	.stabs	"va_list:t(5,2)=(5,1)",128,0,35,0
	.stabn	162,0,0,0
	.stabn	162,0,0,0
	.stabs	"C:\\GameCards Core\\GameCards\\MobidexANC\\/AlbumViewScreen.h",130,0,0,0
	.stabs	"c:/Apps/MoSync2.4/include/MAUI/Screen.h",130,0,0,0
	.stabs	"c:/Apps/MoSync2.4/include/MAUI/Widget.h",130,0,0,0
	.stabs	"c:/Apps/MoSync2.4/include/MAUtil/RefCounted.h",130,0,0,0
	.stabn	162,0,0,0
	.stabs	"c:/Apps/MoSync2.4/include/MAUtil/String.h",130,0,0,0
	.stabs	"String:t(10,1)=(10,2)=xsBasicString<char>:",128,0,273,0
	.stabs	"WString:t(10,3)=(10,4)=xsBasicString<wchar_t>:",128,0,274,0
	.stabn	162,0,0,0
	.stabs	"c:/Apps/MoSync2.4/include/MAUtil/Geometry.h",130,0,0,0
	.stabs	"Point:Tt(11,1)=s8!1,020,(3,15);__base_ctor::(11,2)=#(11,1),(0,6),(11,3)=*(11,1),(0,6);:_ZN6MAUtil5PointC2Ev;2A.;__comp_ctor::(11,2):_ZN6MAUtil5PointC1Ev;2A.;__base_ctor::(11,4)=#(11,1),(0,6),(11,3),(0,3),(0,3),(0,6);:_ZN6MAUtil5PointC2Eii;2A.;__comp_ctor::(11,4):_ZN6MAUtil5PointC1Eii;2A.;set::(11,4):_ZN6MAUtil5Point3setEii;2A.;operator=::(11,5)=#(11,1),(11,6)=&(11,1),(11,3),(11,7)=&(11,8)=k(11,1),(0,6);:_ZN6MAUtil5PointaSERKS0_;2A.;__base_ctor::(11,9)=#(11,1),(0,6),(11,3),(11,7),(0,6);:_ZN6MAUtil5PointC2ERKS0_;2A.;__comp_ctor::(11,9):_ZN6MAUtil5PointC1ERKS0_;2A.;;",128,0,37,0
	.stabn	162,0,0,0
	.stabs	"c:/Apps/MoSync2.4/include/MAUI/WidgetSkin.h",130,0,0,0
	.stabs	"c:/Apps/MoSync2.4/include/MAUtil/HashMap.h",130,0,0,0
	.stabs	"c:/Apps/MoSync2.4/include/maheap.h",130,0,0,0
	.stabs	"malloc_handler:t(14,1)=(14,2)=*(14,3)=f(0,6)",128,0,106,0
	.stabs	"malloc_hook:t(14,4)=(14,5)=*(14,6)=f(3,9)",128,0,107,0
	.stabs	"free_hook:t(14,7)=(14,8)=*(14,9)=f(0,6)",128,0,108,0
	.stabs	"realloc_hook:t(14,10)=(14,11)=*(14,12)=f(3,9)",128,0,109,0
	.stabs	"block_size_hook:t(14,13)=(14,14)=*(14,15)=f(0,3)",128,0,110,0
	.stabn	162,0,0,0
	.stabs	"c:/Apps/MoSync2.4/include/kazlib/hash.h",130,0,0,0
	.stabs	"hashcount_t:t(15,1)=(0,16)",128,0,37,0
	.stabs	"hash_val_t:t(15,2)=(0,16)",128,0,40,0
	.stabs	"hnode_t:Tt(15,3)=s16hash_next:(15,4)=*(15,3),0,32;hash_key:(15,5)=*(15,6)=k(0,6),32,32;hash_data:(3,9),64,32;hash_hkey:(15,2),96,32;operator=::(15,7)=#(15,3),(15,8)=&(15,3),(15,4),(15,9)=&(15,10)=k(15,3),(0,6);:_ZN7hnode_taSERKS_;2A.;__base_ctor::(15,11)=#(15,3),(0,6),(15,4),(15,9),(0,6);:_ZN7hnode_tC2ERKS_;2A.;__comp_ctor::(15,11):_ZN7hnode_tC1ERKS_;2A.;__base_ctor::(15,12)=#(15,3),(0,6),(15,4),(0,6);:_ZN7hnode_tC2Ev;2A.;__comp_ctor::(15,12):_ZN7hnode_tC1Ev;2A.;;",128,0,73,0
	.stabs	"hnode_t:t(15,13)=(15,3)",128,0,82,0
	.stabs	"hash_comp_t:t(15,14)=(15,15)=*(15,16)=f(0,3)",128,0,91,0
	.stabs	"hash_fun_t:t(15,17)=(15,18)=*(15,19)=f(15,2)",128,0,105,0
	.stabs	"hnode_alloc_t:t(15,20)=(15,21)=*(15,22)=f(15,23)=*(15,13)",128,0,111,0
	.stabs	"hnode_free_t:t(15,24)=(15,25)=*(15,26)=f(0,6)",128,0,112,0
	.stabs	"hash_t:Tt(15,27)=s52hash_table:(15,28)=*(15,4),0,32;hash_nchains:(15,1),32,32;hash_nodecount:(15,1),64,32;hash_maxcount:(15,1),96,32;hash_highmark:(15,1),128,32;hash_lowmark:(15,1),160,32;hash_compare:(15,14),192,32;hash_function:(15,17),224,32;hash_allocnode:(15,20),256,32;hash_freenode:(15,24),288,32;hash_context:(3,9),320,32;hash_mask:(15,2),352,32;hash_dynamic:(0,3),384,32;operator=::(15,29)=#(15,27),(15,30)=&(15,27),(15,31)=*(15,27),(15,32)=&(15,33)=k(15,27),(0,6);:_ZN6hash_taSERKS_;2A.;__base_ctor::(15,34)=#(15,27),(0,6),(15,31),(15,32),(0,6);:_ZN6hash_tC2ERKS_;2A.;__comp_ctor::(15,34):_ZN6hash_tC1ERKS_;2A.;__base_ctor::(15,35)=#(15,27),(0,6),(15,31),(0,6);:_ZN6hash_tC2Ev;2A.;__comp_ctor::(15,35):_ZN6hash_tC1Ev;2A.;;",128,0,149,0
	.stabs	"hash_t:t(15,36)=(15,27)",128,0,167,0
	.stabs	"hscan_t:Tt(15,37)=s12hash_table:(15,38)=*(15,36),0,32;hash_chain:(15,2),32,32;hash_next:(15,23),64,32;operator=::(15,39)=#(15,37),(15,40)=&(15,37),(15,41)=*(15,37),(15,42)=&(15,43)=k(15,37),(0,6);:_ZN7hscan_taSERKS_;2A.;__base_ctor::(15,44)=#(15,37),(0,6),(15,41),(15,42),(0,6);:_ZN7hscan_tC2ERKS_;2A.;__comp_ctor::(15,44):_ZN7hscan_tC1ERKS_;2A.;__base_ctor::(15,45)=#(15,37),(0,6),(15,41),(0,6);:_ZN7hscan_tC2Ev;2A.;__comp_ctor::(15,45):_ZN7hscan_tC1Ev;2A.;;",128,0,179,0
	.stabs	"hscan_t:t(15,46)=(15,37)",128,0,187,0
	.stabn	162,0,0,0
	.stabn	162,0,0,0
	.stabs	"WidgetSkin::eType:t(12,1)=eSELECTED:0,UNSELECTED:1,;",128,0,53,0
	.stabs	"WidgetSkin::CacheKey:Tt(12,2)=s16skin:(12,3)=*(12,4)=xsWidgetSkin:,0,32;w:(0,3),32,32;h:(0,3),64,32;type:(12,1),96,32;__base_ctor::(12,5)=#(12,2),(0,6),(12,6)=*(12,2),(0,6);:_ZN4MAUI10WidgetSkin8CacheKeyC2Ev;2A.;__comp_ctor::(12,5):_ZN4MAUI10WidgetSkin8CacheKeyC1Ev;2A.;__base_ctor::(12,7)=#(12,2),(0,6),(12,6),(12,3),(0,3),(0,3),(12,1),(0,6);:_ZN4MAUI10WidgetSkin8CacheKeyC2EPS0_iiNS0_5eTypeE;2A.;__comp_ctor::(12,7):_ZN4MAUI10WidgetSkin8CacheKeyC1EPS0_iiNS0_5eTypeE;2A.;operator==::(12,8)=#(12,2),(0,4),(12,9)=*(12,10)=k(12,2),(12,11)=&(12,10),(0,6);:_ZNK4MAUI10WidgetSkin8CacheKeyeqERKS1_;2B.;operator<::(12,8):_ZNK4MAUI10WidgetSkin8CacheKeyltERKS1_;2B.;operator=::(12,12)=#(12,2),(12,13)=&(12,2),(12,6),(12,11),(0,6);:_ZN4MAUI10WidgetSkin8CacheKeyaSERKS1_;2A.;__base_ctor::(12,14)=#(12,2),(0,6),(12,6),(12,11),(0,6);:_ZN4MAUI10WidgetSkin8CacheKeyC2ERKS1_;2A.;__comp_ctor::(12,14):_ZN4MAUI10WidgetSkin8CacheKeyC1ERKS1_;2A.;;",128,0,172,0
	.stabs	"WidgetSkin::CacheElement:Tt(12,15)=s8image:(3,10),0,32;lastUsed:(0,3),32,32;operator=::(12,16)=#(12,15),(12,17)=&(12,15),(12,18)=*(12,15),(12,19)=&(12,20)=k(12,15),(0,6);:_ZN4MAUI10WidgetSkin12CacheElementaSERKS1_;2A.;__base_ctor::(12,21)=#(12,15),(0,6),(12,18),(12,19),(0,6);:_ZN4MAUI10WidgetSkin12CacheElementC2ERKS1_;2A.;__comp_ctor::(12,21):_ZN4MAUI10WidgetSkin12CacheElementC1ERKS1_;2A.;__base_ctor::(12,22)=#(12,15),(0,6),(12,18),(0,6);:_ZN4MAUI10WidgetSkin12CacheElementC2Ev;2A.;__comp_ctor::(12,22):_ZN4MAUI10WidgetSkin12CacheElementC1Ev;2A.;;",128,0,195,0
	.stabs	"WidgetSkin:Tt(12,4)=s196maxCacheSize:/0(0,3):_ZN4MAUI10WidgetSkin12maxCacheSizeE;useCache:/0(0,4):_ZN4MAUI10WidgetSkin8useCacheE;sCache:/0(12,23)=xsHashMap<MAUI::WidgetSkin::CacheKey,MAUI::WidgetSkin::CacheElement>::_ZN4MAUI10WidgetSkin6sCacheE;selectedImageWidth:/0(0,3),0,32;selectedImageHeight:/0(0,3),32,32;unselectedImageWidth:/0(0,3),64,32;unselectedImageHeight:/0(0,3),96,32;selectedImage:/0(3,10),128,32;unselectedImage:/0(3,10),160,32;topLeft:/0(3,32),192,128;top:/0(3,32),320,128;topRight:/0(3,32),448,128;left:/0(3,32),576,128;center:/0(3,32),704,128;right:/0(3,32),832,128;bottomLeft:/0(3,32),960,128;bottom:/0(3,32),1088,128;bottomRight:/0(3,32),1216,128;startX:/0(0,3),1344,32;endX:/0(0,3),1376,32;startY:/0(0,3),1408,32;endY:/0(0,3),1440,32;imageWidth:/0(0,3),1472,32;imageHeight:/0(0,3),1504,32;selectedTransparent:/0(0,4),1536,8;unselectedTransparent:/0(0,4),1544,8;__base_ctor::(12,24)=#(12,4),(0,6),(12,3),(0,6);:_ZN4MAUI10WidgetSkinC2Ev;2A.;__comp_ctor::(12,24):_ZN4MAUI10WidgetSkinC1Ev;2A.;__base_ctor::(12,25)=#(12,4),(0,6),(12,3),(3,10),(3,10),(0,3),(0,3),(0,3),(0,3),(0,4),(0,4),(0,6);:_ZN4MAUI10WidgetSkinC2Eiiiiiibb;2A.;__comp_ctor::(12,25):_ZN4MAUI10WidgetSkinC1Eiiiiiibb;2A.;setStartX::(12,26)=#(12,4),(0,6),(12,3),(0,3),(0,6);:_ZN4MAUI10WidgetSkin9setStartXEi;2A.;setEndX::(12,26):_ZN4MAUI10WidgetSkin7setEndXEi;2A.;setStartY::(12,26):_ZN4MAUI10WidgetSkin9setStartYEi;2A.;setEndY::(12,26):_ZN4MAUI10WidgetSkin7setEndYEi;2A.;getStartX::(12,27)=#(12,4),(0,3),(12,28)=*(12,29)=k(12,4),(0,6);:_ZNK4MAUI10WidgetSkin9getStartXEv;2B.;getStartY::(12,27):_ZNK4MAUI10WidgetSkin9getStartYEv;2B.;getEndX::(12,27):_ZNK4MAUI10WidgetSkin7getEndXEv;2B.;getEndY::(12,27):_ZNK4MAUI10WidgetSkin7getEndYEv;2B.;getUnselectedImage::(12,30)=#(12,4),(3,10),(12,28),(0,6);:_ZNK4MAUI10WidgetSkin18getUnselectedImageEv;2B.;getSelectedImage::(12,30):_ZNK4MAUI10WidgetSkin16getSelectedImageEv;2B.;setSelectedImage::(12,31)=#(12,4),(0,6),(12,3),(3,10),(0,6);:_ZN4MAUI10WidgetSkin16setSelectedImageEi;2A.;setUnselectedImage::(12,31):_ZN4MAUI10WidgetSkin18setUnselectedImageEi;2A.;draw::(12,32)=#(12,4),(0,6),(12,3),(0,3),(0,3),(0,3),(0,3),(12,1),(0,6);:_ZN4MAUI10WidgetSkin4drawEiiiiNS0_5eTypeE;2A.;drawDirect::(12,32):_ZN4MAUI10WidgetSkin10drawDirectEiiiiNS0_5eTypeE;2A.;drawToData::(12,33)=#(12,4),(0,6),(12,3),(12,34)=*(0,3),(0,3),(0,3),(0,3),(0,3),(12,1),(0,6);:_ZN4MAUI10WidgetSkin10drawToDataEPiiiiiNS0_5eTypeE;2A.;calculateNumTiles::(12,35)=#(12,4),(0,3),(12,3),(0,3),(0,3),(0,6);:_ZN4MAUI10WidgetSkin17calculateNumTilesEii;2A.;drawRegion::(12,36)=#(12,4),(0,6),(12,3),(3,10),(12,34),(0,3),(12,37)=*(12,38)=k(3,32),(12,39)=*(12,40)=k(3,23),(0,6);:_ZN4MAUI10WidgetSkin10drawRegionEiPiiPK6MARectPK9MAPoint2d;2A.;getImageHeight::(12,27):_ZNK4MAUI10WidgetSkin14getImageHeightEv;2B.;getImageWidth::(12,27):_ZNK4MAUI10WidgetSkin13getImageWidthEv;2B.;isSelectedTransparent::(12,41)=#(12,4),(0,4),(12,28),(0,6);:_ZNK4MAUI10WidgetSkin21isSelectedTransparentEv;2B.;isUnselectedTransparent::(12,41):_ZNK4MAUI10WidgetSkin23isUnselectedTransparentEv;2B.;setMaxCacheSize::(14,3):_ZN4MAUI10WidgetSkin15setMaxCacheSizeEi;2A?;setCacheEnabled::(12,42)=f(0,6):_ZN4MAUI10WidgetSkin15setCacheEnabledEb;2A?;flushCache::(12,43)=f(0,6):_ZN4MAUI10WidgetSkin10flushCacheEv;2A?;flushCacheUntilNewImageFits::(14,3):_ZN4MAUI10WidgetSkin27flushCacheUntilNewImageFitsEi;2A?;addToCache::(12,44)=f(0,6):_ZN4MAUI10WidgetSkin10addToCacheERKNS0_8CacheKeyERKNS0_12CacheElementE;2A?;getFromCache::(12,45)=f(3,10):_ZN4MAUI10WidgetSkin12getFromCacheERKNS0_8CacheKeyE;2A?;rebuildRects::(12,24):_ZN4MAUI10WidgetSkin12rebuildRectsEv;0A.;operator=::(12,46)=#(12,4),(12,47)=&(12,4),(12,3),(12,48)=&(12,29),(0,6);:_ZN4MAUI10WidgetSkinaSERKS0_;2A.;__base_ctor::(12,49)=#(12,4),(0,6),(12,3),(12,48),(0,6);:_ZN4MAUI10WidgetSkinC2ERKS0_;2A.;__comp_ctor::(12,49):_ZN4MAUI10WidgetSkinC1ERKS0_;2A.;;",128,0,47,0
	.stabn	162,0,0,0
	.stabs	"c:/Apps/MoSync2.4/include/MAUI/InputManager.h",130,0,0,0
	.stabn	162,0,0,0
	.stabs	"Vector<MAUI::Widget*>:Tt(8,1)=s12mSize:/1(0,3),0,32;mCapacity:/1(0,3),32,32;mData:/1(8,2)=*(8,3)=*(8,4)=xsWidget:,64,32;__base_ctor::(8,5)=#(8,1),(0,6),(8,6)=*(8,1),(0,3),(0,6);:_ZN6MAUtil6VectorIPN4MAUI6WidgetEEC2Ei;2A.;__comp_ctor::(8,5):_ZN6MAUtil6VectorIPN4MAUI6WidgetEEC1Ei;2A.;__base_ctor::(8,7)=#(8,1),(0,6),(8,6),(8,8)=&(8,9)=k(8,1),(0,6);:_ZN6MAUtil6VectorIPN4MAUI6WidgetEEC2ERKS4_;2A.;__comp_ctor::(8,7):_ZN6MAUtil6VectorIPN4MAUI6WidgetEEC1ERKS4_;2A.;__base_dtor::(8,10)=#(8,1),(0,6),(8,6),(0,6);:_ZN6MAUtil6VectorIPN4MAUI6WidgetEED2Ev;2A.;__comp_dtor::(8,10):_ZN6MAUtil6VectorIPN4MAUI6WidgetEED1Ev;2A.;operator=::(8,11)=#(8,1),(8,12)=&(8,1),(8,6),(8,8),(0,6);:_ZN6MAUtil6VectorIPN4MAUI6WidgetEEaSERKS4_;2A.;add::(8,13)=#(8,1),(0,6),(8,6),(8,14)=&(8,15)=k(8,3),(0,6);:_ZN6MAUtil6VectorIPN4MAUI6WidgetEE3addERKS3_;2A.(8,16)=#(8,1),(0,6),(8,6),(8,17)=*(8,15),(0,3),(0,6);:_ZN6MAUtil6VectorIPN4MAUI6WidgetEE3addEPKS3_i;2A.;remove::(8,18)=#(8,1),(0,6),(8,6),(8,2),(0,6);:_ZN6MAUtil6VectorIPN4MAUI6WidgetEE6removeEPS3_;2A.(8,19)=#(8,1),(0,6),(8,6),(0,3),(0,6);:_ZN6MAUtil6VectorIPN4MAUI6WidgetEE6removeEi;2A.(8,20)=#(8,1),(0,6),(8,6),(0,3),(0,3),(0,6);:_ZN6MAUtil6VectorIPN4MAUI6WidgetEE6removeEii;2A.;insert::(8,21)=#(8,1),(0,6),(8,6),(0,3),(8,3),(0,6);:_ZN6MAUtil6VectorIPN4MAUI6WidgetEE6insertEiS3_;2A.;size::(8,22)=#(8,1),(0,3),(8,23)=*(8,9),(0,6);:_ZNK6MAUtil6VectorIPN4MAUI6WidgetEE4sizeEv;2B.;resize::(8,19):_ZN6MAUtil6VectorIPN4MAUI6WidgetEE6resizeEi;2A.;reserve::(8,19):_ZN6MAUtil6VectorIPN4MAUI6WidgetEE7reserveEi;2A.;clear::(8,10):_ZN6MAUtil6VectorIPN4MAUI6WidgetEE5clearEv;2A.;empty::(8,24)=#(8,1),(0,4),(8,23),(0,6);:_ZNK6MAUtil6VectorIPN4MAUI6WidgetEE5emptyEv;2B.;capacity::(8,22):_ZNK6MAUtil6VectorIPN4MAUI6WidgetEE8capacityEv;2B.;begin::(8,25)=#(8,1),(8,2),(8,6),(0,6);:_ZN6MAUtil6VectorIPN4MAUI6WidgetEE5beginEv;2A.;end::(8,25):_ZN6MAUtil6VectorIPN4MAUI6WidgetEE3endEv;2A.;begin::(8,26)=#(8,1),(8,17),(8,23),(0,6);:_ZNK6MAUtil6VectorIPN4MAUI6WidgetEE5beginEv;2B.;end::(8,26):_ZNK6MAUtil6VectorIPN4MAUI6WidgetEE3endEv;2B.;operator[]::(8,27)=#(8,1),(8,28)=&(8,3),(8,6),(0,3),(0,6);:_ZN6MAUtil6VectorIPN4MAUI6WidgetEEixEi;2A.(8,29)=#(8,1),(8,14),(8,23),(0,3),(0,6);:_ZNK6MAUtil6VectorIPN4MAUI6WidgetEEixEi;2B.;pointer::(8,26):_ZNK6MAUtil6VectorIPN4MAUI6WidgetEE7pointerEv;2B.(8,25):_ZN6MAUtil6VectorIPN4MAUI6WidgetEE7pointerEv;2A.;;",128,0,94,0
	.stabs	"Vector<MAUI::WidgetListener*>:Tt(8,30)=s12mSize:/1(0,3),0,32;mCapacity:/1(0,3),32,32;mData:/1(8,31)=*(8,32)=*(8,33)=xsWidgetListener:,64,32;__base_ctor::(8,34)=#(8,30),(0,6),(8,35)=*(8,30),(0,3),(0,6);:_ZN6MAUtil6VectorIPN4MAUI14WidgetListenerEEC2Ei;2A.;__comp_ctor::(8,34):_ZN6MAUtil6VectorIPN4MAUI14WidgetListenerEEC1Ei;2A.;__base_ctor::(8,36)=#(8,30),(0,6),(8,35),(8,37)=&(8,38)=k(8,30),(0,6);:_ZN6MAUtil6VectorIPN4MAUI14WidgetListenerEEC2ERKS4_;2A.;__comp_ctor::(8,36):_ZN6MAUtil6VectorIPN4MAUI14WidgetListenerEEC1ERKS4_;2A.;__base_dtor::(8,39)=#(8,30),(0,6),(8,35),(0,6);:_ZN6MAUtil6VectorIPN4MAUI14WidgetListenerEED2Ev;2A.;__comp_dtor::(8,39):_ZN6MAUtil6VectorIPN4MAUI14WidgetListenerEED1Ev;2A.;operator=::(8,40)=#(8,30),(8,41)=&(8,30),(8,35),(8,37),(0,6);:_ZN6MAUtil6VectorIPN4MAUI14WidgetListenerEEaSERKS4_;2A.;add::(8,42)=#(8,30),(0,6),(8,35),(8,43)=&(8,44)=k(8,32),(0,6);:_ZN6MAUtil6VectorIPN4MAUI14WidgetListenerEE3addERKS3_;2A.(8,45)=#(8,30),(0,6),(8,35),(8,46)=*(8,44),(0,3),(0,6);:_ZN6MAUtil6VectorIPN4MAUI14WidgetListenerEE3addEPKS3_i;2A.;remove::(8,47)=#(8,30),(0,6),(8,35),(8,31),(0,6);:_ZN6MAUtil6VectorIPN4MAUI14WidgetListenerEE6removeEPS3_;2A.(8,48)=#(8,30),(0,6),(8,35),(0,3),(0,6);:_ZN6MAUtil6VectorIPN4MAUI14WidgetListenerEE6removeEi;2A.(8,49)=#(8,30),(0,6),(8,35),(0,3),(0,3),(0,6);:_ZN6MAUtil6VectorIPN4MAUI14WidgetListenerEE6removeEii;2A.;insert::(8,50)=#(8,30),(0,6),(8,35),(0,3),(8,32),(0,6);:_ZN6MAUtil6VectorIPN4MAUI14WidgetListenerEE6insertEiS3_;2A.;size::(8,51)=#(8,30),(0,3),(8,52)=*(8,38),(0,6);:_ZNK6MAUtil6VectorIPN4MAUI14WidgetListenerEE4sizeEv;2B.;resize::(8,48):_ZN6MAUtil6VectorIPN4MAUI14WidgetListenerEE6resizeEi;2A.;reserve::(8,48):_ZN6MAUtil6VectorIPN4MAUI14WidgetListenerEE7reserveEi;2A.;clear::(8,39):_ZN6MAUtil6VectorIPN4MAUI14WidgetListenerEE5clearEv;2A.;empty::(8,53)=#(8,30),(0,4),(8,52),(0,6);:_ZNK6MAUtil6VectorIPN4MAUI14WidgetListenerEE5emptyEv;2B.;capacity::(8,51):_ZNK6MAUtil6VectorIPN4MAUI14WidgetListenerEE8capacityEv;2B.;begin::(8,54)=#(8,30),(8,31),(8,35),(0,6);:_ZN6MAUtil6VectorIPN4MAUI14WidgetListenerEE5beginEv;2A.;end::(8,54):_ZN6MAUtil6VectorIPN4MAUI14WidgetListenerEE3endEv;2A.;begin::(8,55)=#(8,30),(8,46),(8,52),(0,6);:_ZNK6MAUtil6VectorIPN4MAUI14WidgetListenerEE5beginEv;2B.;end::(8,55):_ZNK6MAUtil6VectorIPN4MAUI14WidgetListenerEE3endEv;2B.;operator[]::(8,56)=#(8,30),(8,57)=&(8,32),(8,35),(0,3),(0,6);:_ZN6MAUtil6VectorIPN4MAUI14WidgetListenerEEixEi;2A.(8,58)=#(8,30),(8,43),(8,52),(0,3),(0,6);:_ZNK6MAUtil6VectorIPN4MAUI14WidgetListenerEEixEi;2B.;pointer::(8,55):_ZNK6MAUtil6VectorIPN4MAUI14WidgetListenerEE7pointerEv;2B.(8,54):_ZN6MAUtil6VectorIPN4MAUI14WidgetListenerEE7pointerEv;2A.;;",128,0,94,0
	.stabn	162,0,0,0
	.stabs	"c:/Apps/MoSync2.4/include/MAUtil/Environment.h",130,0,0,0
	.stabs	"Environment::TimerEventInstance:Tt(17,1)=s20e:(17,2)=*(17,3)=xsTimerListener:,0,32;addTime:(0,3),32,32;period:(0,3),64,32;numTimes:(0,3),96,32;nextInvoke:(0,3),128,32;__base_ctor::(17,4)=#(17,1),(0,6),(17,5)=*(17,1),(17,2),(0,3),(0,3),(0,6);:_ZN6MAUtil11Environment18TimerEventInstanceC2EPNS_13TimerListenerEii;2A.;__comp_ctor::(17,4):_ZN6MAUtil11Environment18TimerEventInstanceC1EPNS_13TimerListenerEii;2A.;operator=::(17,6)=#(17,1),(17,7)=&(17,1),(17,5),(17,8)=&(17,9)=k(17,1),(0,6);:_ZN6MAUtil11Environment18TimerEventInstanceaSERKS1_;2A.;__base_ctor::(17,10)=#(17,1),(0,6),(17,5),(17,8),(0,6);:_ZN6MAUtil11Environment18TimerEventInstanceC2ERKS1_;2A.;__comp_ctor::(17,10):_ZN6MAUtil11Environment18TimerEventInstanceC1ERKS1_;2A.;;",128,0,396,0
	.stabs	"Vector<MAUtil::ListenerSet<MAUtil::KeyListener>::Combo>:Tt(17,11)=s12mSize:/1(0,3),0,32;mCapacity:/1(0,3),32,32;mData:/1(17,12)=*(17,13)=xsCombo:,64,32;__base_ctor::(17,14)=#(17,11),(0,6),(17,15)=*(17,11),(0,3),(0,6);:_ZN6MAUtil6VectorINS_11ListenerSetINS_11KeyListenerEE5ComboEEC2Ei;2A.;__comp_ctor::(17,14):_ZN6MAUtil6VectorINS_11ListenerSetINS_11KeyListenerEE5ComboEEC1Ei;2A.;__base_ctor::(17,16)=#(17,11),(0,6),(17,15),(17,17)=&(17,18)=k(17,11),(0,6);:_ZN6MAUtil6VectorINS_11ListenerSetINS_11KeyListenerEE5ComboEEC2ERKS5_;2A.;__comp_ctor::(17,16):_ZN6MAUtil6VectorINS_11ListenerSetINS_11KeyListenerEE5ComboEEC1ERKS5_;2A.;__base_dtor::(17,19)=#(17,11),(0,6),(17,15),(0,6);:_ZN6MAUtil6VectorINS_11ListenerSetINS_11KeyListenerEE5ComboEED2Ev;2A.;__comp_dtor::(17,19):_ZN6MAUtil6VectorINS_11ListenerSetINS_11KeyListenerEE5ComboEED1Ev;2A.;operator=::(17,20)=#(17,11),(17,21)=&(17,11),(17,15),(17,17),(0,6);:_ZN6MAUtil6VectorINS_11ListenerSetINS_11KeyListenerEE5ComboEEaSERKS5_;2A.;add::(17,22)=#(17,11),(0,6),(17,15),(17,23)=&(17,24)=k(17,13),(0,6);:_ZN6MAUtil6VectorINS_11ListenerSetINS_11KeyListenerEE5ComboEE3addERKS4_;2A.(17,25)=#(17,11),(0,6),(17,15),(17,26)=*(17,24),(0,3),(0,6);:_ZN6MAUtil6VectorINS_11ListenerSetINS_11KeyListenerEE5ComboEE3addEPKS4_i;2A.;remove::(17,27)=#(17,11),(0,6),(17,15),(17,12),(0,6);:_ZN6MAUtil6VectorINS_11ListenerSetINS_11KeyListenerEE5ComboEE6removeEPS4_;2A.(17,28)=#(17,11),(0,6),(17,15),(0,3),(0,6);:_ZN6MAUtil6VectorINS_11ListenerSetINS_11KeyListenerEE5ComboEE6removeEi;2A.(17,29)=#(17,11),(0,6),(17,15),(0,3),(0,3),(0,6);:_ZN6MAUtil6VectorINS_11ListenerSetINS_11KeyListenerEE5ComboEE6removeEii;2A.;insert::(17,30)=#(17,11),(0,6),(17,15),(0,3),(17,13),(0,6);:_ZN6MAUtil6VectorINS_11ListenerSetINS_11KeyListenerEE5ComboEE6insertEiS4_;2A.;size::(17,31)=#(17,11),(0,3),(17,32)=*(17,18),(0,6);:_ZNK6MAUtil6VectorINS_11ListenerSetINS_11KeyListenerEE5ComboEE4sizeEv;2B.;resize::(17,28):_ZN6MAUtil6VectorINS_11ListenerSetINS_11KeyListenerEE5ComboEE6resizeEi;2A.;reserve::(17,28):_ZN6MAUtil6VectorINS_11ListenerSetINS_11KeyListenerEE5ComboEE7reserveEi;2A.;clear::(17,19):_ZN6MAUtil6VectorINS_11ListenerSetINS_11KeyListenerEE5ComboEE5clearEv;2A.;empty::(17,33)=#(17,11),(0,4),(17,32),(0,6);:_ZNK6MAUtil6VectorINS_11ListenerSetINS_11KeyListenerEE5ComboEE5emptyEv;2B.;capacity::(17,31):_ZNK6MAUtil6VectorINS_11ListenerSetINS_11KeyListenerEE5ComboEE8capacityEv;2B.;begin::(17,34)=#(17,11),(17,12),(17,15),(0,6);:_ZN6MAUtil6VectorINS_11ListenerSetINS_11KeyListenerEE5ComboEE5beginEv;2A.;end::(17,34):_ZN6MAUtil6VectorINS_11ListenerSetINS_11KeyListenerEE5ComboEE3endEv;2A.;begin::(17,35)=#(17,11),(17,26),(17,32),(0,6);:_ZNK6MAUtil6VectorINS_11ListenerSetINS_11KeyListenerEE5ComboEE5beginEv;2B.;end::(17,35):_ZNK6MAUtil6VectorINS_11ListenerSetINS_11KeyListenerEE5ComboEE3endEv;2B.;operator[]::(17,36)=#(17,11),(17,37)=&(17,13),(17,15),(0,3),(0,6);:_ZN6MAUtil6VectorINS_11ListenerSetINS_11KeyListenerEE5ComboEEixEi;2A.(17,38)=#(17,11),(17,23),(17,32),(0,3),(0,6);:_ZNK6MAUtil6VectorINS_11ListenerSetINS_11KeyListenerEE5ComboEEixEi;2B.;pointer::(17,35):_ZNK6MAUtil6VectorINS_11ListenerSetINS_11KeyListenerEE5ComboEE7pointerEv;2B.(17,34):_ZN6MAUtil6VectorINS_11ListenerSetINS_11KeyListenerEE5ComboEE7pointerEv;2A.;;",128,0,94,0
	.stabs	"ListenerSet<MAUtil::KeyListener>:Tt(17,39)=s16mRunning:/0(0,4),0,8;mUpdateRequired:/0(0,4),8,8;mShouldDelete:/0(0,4),16,8;mVec:/0(17,11),32,96;__base_ctor::(17,40)=#(17,39),(0,6),(17,41)=*(17,39),(0,4),(0,6);:_ZN6MAUtil11ListenerSetINS_11KeyListenerEEC2Eb;2A.;__comp_ctor::(17,40):_ZN6MAUtil11ListenerSetINS_11KeyListenerEEC1Eb;2A.;begin::(17,42)=#(17,39),(17,43)=xsiterator:,(17,41),(0,6);:_ZN6MAUtil11ListenerSetINS_11KeyListenerEE5beginEv;2A.;add::(17,44)=#(17,39),(0,6),(17,41),(17,45)=*(17,46)=xsKeyListener:,(0,6);:_ZN6MAUtil11ListenerSetINS_11KeyListenerEE3addEPS1_;2A.;remove::(17,44):_ZN6MAUtil11ListenerSetINS_11KeyListenerEE6removeEPS1_;2A.;contains::(17,47)=#(17,39),(0,4),(17,41),(17,45),(0,6);:_ZN6MAUtil11ListenerSetINS_11KeyListenerEE8containsEPS1_;2A.;setRunning::(17,48)=#(17,39),(0,6),(17,41),(0,4),(0,6);:_ZN6MAUtil11ListenerSetINS_11KeyListenerEE10setRunningEb;2A.;size::(17,49)=#(17,39),(0,3),(17,50)=*(17,51)=k(17,39),(0,6);:_ZNK6MAUtil11ListenerSetINS_11KeyListenerEE4sizeEv;2B.;operator=::(17,52)=#(17,39),(17,53)=&(17,39),(17,41),(17,54)=&(17,51),(0,6);:_ZN6MAUtil11ListenerSetINS_11KeyListenerEEaSERKS2_;2A.;__base_ctor::(17,55)=#(17,39),(0,6),(17,41),(17,54),(0,6);:_ZN6MAUtil11ListenerSetINS_11KeyListenerEEC2ERKS2_;2A.;__comp_ctor::(17,55):_ZN6MAUtil11ListenerSetINS_11KeyListenerEEC1ERKS2_;2A.;__base_dtor::(17,56)=#(17,39),(0,6),(17,41),(0,6);:_ZN6MAUtil11ListenerSetINS_11KeyListenerEED2Ev;2A.;__comp_dtor::(17,56):_ZN6MAUtil11ListenerSetINS_11KeyListenerEED1Ev;2A.;;",128,0,37,0
	.stabs	"Vector<MAUtil::ListenerSet<MAUtil::PointerListener>::Combo>:Tt(17,57)=s12mSize:/1(0,3),0,32;mCapacity:/1(0,3),32,32;mData:/1(17,58)=*(17,59)=xsCombo:,64,32;__base_ctor::(17,60)=#(17,57),(0,6),(17,61)=*(17,57),(0,3),(0,6);:_ZN6MAUtil6VectorINS_11ListenerSetINS_15PointerListenerEE5ComboEEC2Ei;2A.;__comp_ctor::(17,60):_ZN6MAUtil6VectorINS_11ListenerSetINS_15PointerListenerEE5ComboEEC1Ei;2A.;__base_ctor::(17,62)=#(17,57),(0,6),(17,61),(17,63)=&(17,64)=k(17,57),(0,6);:_ZN6MAUtil6VectorINS_11ListenerSetINS_15PointerListenerEE5ComboEEC2ERKS5_;2A.;__comp_ctor::(17,62):_ZN6MAUtil6VectorINS_11ListenerSetINS_15PointerListenerEE5ComboEEC1ERKS5_;2A.;__base_dtor::(17,65)=#(17,57),(0,6),(17,61),(0,6);:_ZN6MAUtil6VectorINS_11ListenerSetINS_15PointerListenerEE5ComboEED2Ev;2A.;__comp_dtor::(17,65):_ZN6MAUtil6VectorINS_11ListenerSetINS_15PointerListenerEE5ComboEED1Ev;2A.;operator=::(17,66)=#(17,57),(17,67)=&(17,57),(17,61),(17,63),(0,6);:_ZN6MAUtil6VectorINS_11ListenerSetINS_15PointerListenerEE5ComboEEaSERKS5_;2A.;add::(17,68)=#(17,57),(0,6),(17,61),(17,69)=&(17,70)=k(17,59),(0,6);:_ZN6MAUtil6VectorINS_11ListenerSetINS_15PointerListenerEE5ComboEE3addERKS4_;2A.(17,71)=#(17,57),(0,6),(17,61),(17,72)=*(17,70),(0,3),(0,6);:_ZN6MAUtil6VectorINS_11ListenerSetINS_15PointerListenerEE5ComboEE3addEPKS4_i;2A.;remove::(17,73)=#(17,57),(0,6),(17,61),(17,58),(0,6);:_ZN6MAUtil6VectorINS_11ListenerSetINS_15PointerListenerEE5ComboEE6removeEPS4_;2A.(17,74)=#(17,57),(0,6),(17,61),(0,3),(0,6);:_ZN6MAUtil6VectorINS_11ListenerSetINS_15PointerListenerEE5ComboEE6removeEi;2A.(17,75)=#(17,57),(0,6),(17,61),(0,3),(0,3),(0,6);:_ZN6MAUtil6VectorINS_11ListenerSetINS_15PointerListenerEE5ComboEE6removeEii;2A.;insert::(17,76)=#(17,57),(0,6),(17,61),(0,3),(17,59),(0,6);:_ZN6MAUtil6VectorINS_11ListenerSetINS_15PointerListenerEE5ComboEE6insertEiS4_;2A.;size::(17,77)=#(17,57),(0,3),(17,78)=*(17,64),(0,6);:_ZNK6MAUtil6VectorINS_11ListenerSetINS_15PointerListenerEE5ComboEE4sizeEv;2B.;resize::(17,74):_ZN6MAUtil6VectorINS_11ListenerSetINS_15PointerListenerEE5ComboEE6resizeEi;2A.;reserve::(17,74):_ZN6MAUtil6VectorINS_11ListenerSetINS_15PointerListenerEE5ComboEE7reserveEi;2A.;clear::(17,65):_ZN6MAUtil6VectorINS_11ListenerSetINS_15PointerListenerEE5ComboEE5clearEv;2A.;empty::(17,79)=#(17,57),(0,4),(17,78),(0,6);:_ZNK6MAUtil6VectorINS_11ListenerSetINS_15PointerListenerEE5ComboEE5emptyEv;2B.;capacity::(17,77):_ZNK6MAUtil6VectorINS_11ListenerSetINS_15PointerListenerEE5ComboEE8capacityEv;2B.;begin::(17,80)=#(17,57),(17,58),(17,61),(0,6);:_ZN6MAUtil6VectorINS_11ListenerSetINS_15PointerListenerEE5ComboEE5beginEv;2A.;end::(17,80):_ZN6MAUtil6VectorINS_11ListenerSetINS_15PointerListenerEE5ComboEE3endEv;2A.;begin::(17,81)=#(17,57),(17,72),(17,78),(0,6);:_ZNK6MAUtil6VectorINS_11ListenerSetINS_15PointerListenerEE5ComboEE5beginEv;2B.;end::(17,81):_ZNK6MAUtil6VectorINS_11ListenerSetINS_15PointerListenerEE5ComboEE3endEv;2B.;operator[]::(17,82)=#(17,57),(17,83)=&(17,59),(17,61),(0,3),(0,6);:_ZN6MAUtil6VectorINS_11ListenerSetINS_15PointerListenerEE5ComboEEixEi;2A.(17,84)=#(17,57),(17,69),(17,78),(0,3),(0,6);:_ZNK6MAUtil6VectorINS_11ListenerSetINS_15PointerListenerEE5ComboEEixEi;2B.;pointer::(17,81):_ZNK6MAUtil6VectorINS_11ListenerSetINS_15PointerListenerEE5ComboEE7pointerEv;2B.(17,80):_ZN6MAUtil6VectorINS_11ListenerSetINS_15PointerListenerEE5ComboEE7pointerEv;2A.;;",128,0,94,0
	.stabs	"ListenerSet<MAUtil::PointerListener>:Tt(17,85)=s16mRunning:/0(0,4),0,8;mUpdateRequired:/0(0,4),8,8;mShouldDelete:/0(0,4),16,8;mVec:/0(17,57),32,96;__base_ctor::(17,86)=#(17,85),(0,6),(17,87)=*(17,85),(0,4),(0,6);:_ZN6MAUtil11ListenerSetINS_15PointerListenerEEC2Eb;2A.;__comp_ctor::(17,86):_ZN6MAUtil11ListenerSetINS_15PointerListenerEEC1Eb;2A.;begin::(17,88)=#(17,85),(17,89)=xsiterator:,(17,87),(0,6);:_ZN6MAUtil11ListenerSetINS_15PointerListenerEE5beginEv;2A.;add::(17,90)=#(17,85),(0,6),(17,87),(17,91)=*(17,92)=xsPointerListener:,(0,6);:_ZN6MAUtil11ListenerSetINS_15PointerListenerEE3addEPS1_;2A.;remove::(17,90):_ZN6MAUtil11ListenerSetINS_15PointerListenerEE6removeEPS1_;2A.;contains::(17,93)=#(17,85),(0,4),(17,87),(17,91),(0,6);:_ZN6MAUtil11ListenerSetINS_15PointerListenerEE8containsEPS1_;2A.;setRunning::(17,94)=#(17,85),(0,6),(17,87),(0,4),(0,6);:_ZN6MAUtil11ListenerSetINS_15PointerListenerEE10setRunningEb;2A.;size::(17,95)=#(17,85),(0,3),(17,96)=*(17,97)=k(17,85),(0,6);:_ZNK6MAUtil11ListenerSetINS_15PointerListenerEE4sizeEv;2B.;operator=::(17,98)=#(17,85),(17,99)=&(17,85),(17,87),(17,100)=&(17,97),(0,6);:_ZN6MAUtil11ListenerSetINS_15PointerListenerEEaSERKS2_;2A.;__base_ctor::(17,101)=#(17,85),(0,6),(17,87),(17,100),(0,6);:_ZN6MAUtil11ListenerSetINS_15PointerListenerEEC2ERKS2_;2A.;__comp_ctor::(17,101):_ZN6MAUtil11ListenerSetINS_15PointerListenerEEC1ERKS2_;2A.;__base_dtor::(17,102)=#(17,85),(0,6),(17,87),(0,6);:_ZN6MAUtil11ListenerSetINS_15PointerListenerEED2Ev;2A.;__comp_dtor::(17,102):_ZN6MAUtil11ListenerSetINS_15PointerListenerEED1Ev;2A.;;",128,0,37,0
	.stabs	"Vector<MAUtil::CloseListener*>:Tt(17,103)=s12mSize:/1(0,3),0,32;mCapacity:/1(0,3),32,32;mData:/1(17,104)=*(17,105)=*(17,106)=xsCloseListener:,64,32;__base_ctor::(17,107)=#(17,103),(0,6),(17,108)=*(17,103),(0,3),(0,6);:_ZN6MAUtil6VectorIPNS_13CloseListenerEEC2Ei;2A.;__comp_ctor::(17,107):_ZN6MAUtil6VectorIPNS_13CloseListenerEEC1Ei;2A.;__base_ctor::(17,109)=#(17,103),(0,6),(17,108),(17,110)=&(17,111)=k(17,103),(0,6);:_ZN6MAUtil6VectorIPNS_13CloseListenerEEC2ERKS3_;2A.;__comp_ctor::(17,109):_ZN6MAUtil6VectorIPNS_13CloseListenerEEC1ERKS3_;2A.;__base_dtor::(17,112)=#(17,103),(0,6),(17,108),(0,6);:_ZN6MAUtil6VectorIPNS_13CloseListenerEED2Ev;2A.;__comp_dtor::(17,112):_ZN6MAUtil6VectorIPNS_13CloseListenerEED1Ev;2A.;operator=::(17,113)=#(17,103),(17,114)=&(17,103),(17,108),(17,110),(0,6);:_ZN6MAUtil6VectorIPNS_13CloseListenerEEaSERKS3_;2A.;add::(17,115)=#(17,103),(0,6),(17,108),(17,116)=&(17,117)=k(17,105),(0,6);:_ZN6MAUtil6VectorIPNS_13CloseListenerEE3addERKS2_;2A.(17,118)=#(17,103),(0,6),(17,108),(17,119)=*(17,117),(0,3),(0,6);:_ZN6MAUtil6VectorIPNS_13CloseListenerEE3addEPKS2_i;2A.;remove::(17,120)=#(17,103),(0,6),(17,108),(17,104),(0,6);:_ZN6MAUtil6VectorIPNS_13CloseListenerEE6removeEPS2_;2A.(17,121)=#(17,103),(0,6),(17,108),(0,3),(0,6);:_ZN6MAUtil6VectorIPNS_13CloseListenerEE6removeEi;2A.(17,122)=#(17,103),(0,6),(17,108),(0,3),(0,3),(0,6);:_ZN6MAUtil6VectorIPNS_13CloseListenerEE6removeEii;2A.;insert::(17,123)=#(17,103),(0,6),(17,108),(0,3),(17,105),(0,6);:_ZN6MAUtil6VectorIPNS_13CloseListenerEE6insertEiS2_;2A.;size::(17,124)=#(17,103),(0,3),(17,125)=*(17,111),(0,6);:_ZNK6MAUtil6VectorIPNS_13CloseListenerEE4sizeEv;2B.;resize::(17,121):_ZN6MAUtil6VectorIPNS_13CloseListenerEE6resizeEi;2A.;reserve::(17,121):_ZN6MAUtil6VectorIPNS_13CloseListenerEE7reserveEi;2A.;clear::(17,112):_ZN6MAUtil6VectorIPNS_13CloseListenerEE5clearEv;2A.;empty::(17,126)=#(17,103),(0,4),(17,125),(0,6);:_ZNK6MAUtil6VectorIPNS_13CloseListenerEE5emptyEv;2B.;capacity::(17,124):_ZNK6MAUtil6VectorIPNS_13CloseListenerEE8capacityEv;2B.;begin::(17,127)=#(17,103),(17,104),(17,108),(0,6);:_ZN6MAUtil6VectorIPNS_13CloseListenerEE5beginEv;2A.;end::(17,127):_ZN6MAUtil6VectorIPNS_13CloseListenerEE3endEv;2A.;begin::(17,128)=#(17,103),(17,119),(17,125),(0,6);:_ZNK6MAUtil6VectorIPNS_13CloseListenerEE5beginEv;2B.;end::(17,128):_ZNK6MAUtil6VectorIPNS_13CloseListenerEE3endEv;2B.;operator[]::(17,129)=#(17,103),(17,130)=&(17,105),(17,108),(0,3),(0,6);:_ZN6MAUtil6VectorIPNS_13CloseListenerEEixEi;2A.(17,131)=#(17,103),(17,116),(17,125),(0,3),(0,6);:_ZNK6MAUtil6VectorIPNS_13CloseListenerEEixEi;2B.;pointer::(17,128):_ZNK6MAUtil6VectorIPNS_13CloseListenerEE7pointerEv;2B.(17,127):_ZN6MAUtil6VectorIPNS_13CloseListenerEE7pointerEv;2A.;;",128,0,94,0
	.stabs	"Vector<MAUtil::ListenerSet<MAUtil::ConnListener>::Combo>:Tt(17,132)=s12mSize:/1(0,3),0,32;mCapacity:/1(0,3),32,32;mData:/1(17,133)=*(17,134)=xsCombo:,64,32;__base_ctor::(17,135)=#(17,132),(0,6),(17,136)=*(17,132),(0,3),(0,6);:_ZN6MAUtil6VectorINS_11ListenerSetINS_12ConnListenerEE5ComboEEC2Ei;2A.;__comp_ctor::(17,135):_ZN6MAUtil6VectorINS_11ListenerSetINS_12ConnListenerEE5ComboEEC1Ei;2A.;__base_ctor::(17,137)=#(17,132),(0,6),(17,136),(17,138)=&(17,139)=k(17,132),(0,6);:_ZN6MAUtil6VectorINS_11ListenerSetINS_12ConnListenerEE5ComboEEC2ERKS5_;2A.;__comp_ctor::(17,137):_ZN6MAUtil6VectorINS_11ListenerSetINS_12ConnListenerEE5ComboEEC1ERKS5_;2A.;__base_dtor::(17,140)=#(17,132),(0,6),(17,136),(0,6);:_ZN6MAUtil6VectorINS_11ListenerSetINS_12ConnListenerEE5ComboEED2Ev;2A.;__comp_dtor::(17,140):_ZN6MAUtil6VectorINS_11ListenerSetINS_12ConnListenerEE5ComboEED1Ev;2A.;operator=::(17,141)=#(17,132),(17,142)=&(17,132),(17,136),(17,138),(0,6);:_ZN6MAUtil6VectorINS_11ListenerSetINS_12ConnListenerEE5ComboEEaSERKS5_;2A.;add::(17,143)=#(17,132),(0,6),(17,136),(17,144)=&(17,145)=k(17,134),(0,6);:_ZN6MAUtil6VectorINS_11ListenerSetINS_12ConnListenerEE5ComboEE3addERKS4_;2A.(17,146)=#(17,132),(0,6),(17,136),(17,147)=*(17,145),(0,3),(0,6);:_ZN6MAUtil6VectorINS_11ListenerSetINS_12ConnListenerEE5ComboEE3addEPKS4_i;2A.;remove::(17,148)=#(17,132),(0,6),(17,136),(17,133),(0,6);:_ZN6MAUtil6VectorINS_11ListenerSetINS_12ConnListenerEE5ComboEE6removeEPS4_;2A.(17,149)=#(17,132),(0,6),(17,136),(0,3),(0,6);:_ZN6MAUtil6VectorINS_11ListenerSetINS_12ConnListenerEE5ComboEE6removeEi;2A.(17,150)=#(17,132),(0,6),(17,136),(0,3),(0,3),(0,6);:_ZN6MAUtil6VectorINS_11ListenerSetINS_12ConnListenerEE5ComboEE6removeEii;2A.;insert::(17,151)=#(17,132),(0,6),(17,136),(0,3),(17,134),(0,6);:_ZN6MAUtil6VectorINS_11ListenerSetINS_12ConnListenerEE5ComboEE6insertEiS4_;2A.;size::(17,152)=#(17,132),(0,3),(17,153)=*(17,139),(0,6);:_ZNK6MAUtil6VectorINS_11ListenerSetINS_12ConnListenerEE5ComboEE4sizeEv;2B.;resize::(17,149):_ZN6MAUtil6VectorINS_11ListenerSetINS_12ConnListenerEE5ComboEE6resizeEi;2A.;reserve::(17,149):_ZN6MAUtil6VectorINS_11ListenerSetINS_12ConnListenerEE5ComboEE7reserveEi;2A.;clear::(17,140):_ZN6MAUtil6VectorINS_11ListenerSetINS_12ConnListenerEE5ComboEE5clearEv;2A.;empty::(17,154)=#(17,132),(0,4),(17,153),(0,6);:_ZNK6MAUtil6VectorINS_11ListenerSetINS_12ConnListenerEE5ComboEE5emptyEv;2B.;capacity::(17,152):_ZNK6MAUtil6VectorINS_11ListenerSetINS_12ConnListenerEE5ComboEE8capacityEv;2B.;begin::(17,155)=#(17,132),(17,133),(17,136),(0,6);:_ZN6MAUtil6VectorINS_11ListenerSetINS_12ConnListenerEE5ComboEE5beginEv;2A.;end::(17,155):_ZN6MAUtil6VectorINS_11ListenerSetINS_12ConnListenerEE5ComboEE3endEv;2A.;begin::(17,156)=#(17,132),(17,147),(17,153),(0,6);:_ZNK6MAUtil6VectorINS_11ListenerSetINS_12ConnListenerEE5ComboEE5beginEv;2B.;end::(17,156):_ZNK6MAUtil6VectorINS_11ListenerSetINS_12ConnListenerEE5ComboEE3endEv;2B.;operator[]::(17,157)=#(17,132),(17,158)=&(17,134),(17,136),(0,3),(0,6);:_ZN6MAUtil6VectorINS_11ListenerSetINS_12ConnListenerEE5ComboEEixEi;2A.(17,159)=#(17,132),(17,144),(17,153),(0,3),(0,6);:_ZNK6MAUtil6VectorINS_11ListenerSetINS_12ConnListenerEE5ComboEEixEi;2B.;pointer::(17,156):_ZNK6MAUtil6VectorINS_11ListenerSetINS_12ConnListenerEE5ComboEE7pointerEv;2B.(17,155):_ZN6MAUtil6VectorINS_11ListenerSetINS_12ConnListenerEE5ComboEE7pointerEv;2A.;;",128,0,94,0
	.stabs	"ListenerSet<MAUtil::ConnListener>:Tt(17,160)=s16mRunning:/0(0,4),0,8;mUpdateRequired:/0(0,4),8,8;mShouldDelete:/0(0,4),16,8;mVec:/0(17,132),32,96;__base_ctor::(17,161)=#(17,160),(0,6),(17,162)=*(17,160),(0,4),(0,6);:_ZN6MAUtil11ListenerSetINS_12ConnListenerEEC2Eb;2A.;__comp_ctor::(17,161):_ZN6MAUtil11ListenerSetINS_12ConnListenerEEC1Eb;2A.;begin::(17,163)=#(17,160),(17,164)=xsiterator:,(17,162),(0,6);:_ZN6MAUtil11ListenerSetINS_12ConnListenerEE5beginEv;2A.;add::(17,165)=#(17,160),(0,6),(17,162),(17,166)=*(17,167)=xsConnListener:,(0,6);:_ZN6MAUtil11ListenerSetINS_12ConnListenerEE3addEPS1_;2A.;remove::(17,165):_ZN6MAUtil11ListenerSetINS_12ConnListenerEE6removeEPS1_;2A.;contains::(17,168)=#(17,160),(0,4),(17,162),(17,166),(0,6);:_ZN6MAUtil11ListenerSetINS_12ConnListenerEE8containsEPS1_;2A.;setRunning::(17,169)=#(17,160),(0,6),(17,162),(0,4),(0,6);:_ZN6MAUtil11ListenerSetINS_12ConnListenerEE10setRunningEb;2A.;size::(17,170)=#(17,160),(0,3),(17,171)=*(17,172)=k(17,160),(0,6);:_ZNK6MAUtil11ListenerSetINS_12ConnListenerEE4sizeEv;2B.;operator=::(17,173)=#(17,160),(17,174)=&(17,160),(17,162),(17,175)=&(17,172),(0,6);:_ZN6MAUtil11ListenerSetINS_12ConnListenerEEaSERKS2_;2A.;__base_ctor::(17,176)=#(17,160),(0,6),(17,162),(17,175),(0,6);:_ZN6MAUtil11ListenerSetINS_12ConnListenerEEC2ERKS2_;2A.;__comp_ctor::(17,176):_ZN6MAUtil11ListenerSetINS_12ConnListenerEEC1ERKS2_;2A.;__base_dtor::(17,177)=#(17,160),(0,6),(17,162),(0,6);:_ZN6MAUtil11ListenerSetINS_12ConnListenerEED2Ev;2A.;__comp_dtor::(17,177):_ZN6MAUtil11ListenerSetINS_12ConnListenerEED1Ev;2A.;;",128,0,37,0
	.stabs	"Vector<MAUtil::ListenerSet<MAUtil::IdleListener>::Combo>:Tt(17,178)=s12mSize:/1(0,3),0,32;mCapacity:/1(0,3),32,32;mData:/1(17,179)=*(17,180)=xsCombo:,64,32;__base_ctor::(17,181)=#(17,178),(0,6),(17,182)=*(17,178),(0,3),(0,6);:_ZN6MAUtil6VectorINS_11ListenerSetINS_12IdleListenerEE5ComboEEC2Ei;2A.;__comp_ctor::(17,181):_ZN6MAUtil6VectorINS_11ListenerSetINS_12IdleListenerEE5ComboEEC1Ei;2A.;__base_ctor::(17,183)=#(17,178),(0,6),(17,182),(17,184)=&(17,185)=k(17,178),(0,6);:_ZN6MAUtil6VectorINS_11ListenerSetINS_12IdleListenerEE5ComboEEC2ERKS5_;2A.;__comp_ctor::(17,183):_ZN6MAUtil6VectorINS_11ListenerSetINS_12IdleListenerEE5ComboEEC1ERKS5_;2A.;__base_dtor::(17,186)=#(17,178),(0,6),(17,182),(0,6);:_ZN6MAUtil6VectorINS_11ListenerSetINS_12IdleListenerEE5ComboEED2Ev;2A.;__comp_dtor::(17,186):_ZN6MAUtil6VectorINS_11ListenerSetINS_12IdleListenerEE5ComboEED1Ev;2A.;operator=::(17,187)=#(17,178),(17,188)=&(17,178),(17,182),(17,184),(0,6);:_ZN6MAUtil6VectorINS_11ListenerSetINS_12IdleListenerEE5ComboEEaSERKS5_;2A.;add::(17,189)=#(17,178),(0,6),(17,182),(17,190)=&(17,191)=k(17,180),(0,6);:_ZN6MAUtil6VectorINS_11ListenerSetINS_12IdleListenerEE5ComboEE3addERKS4_;2A.(17,192)=#(17,178),(0,6),(17,182),(17,193)=*(17,191),(0,3),(0,6);:_ZN6MAUtil6VectorINS_11ListenerSetINS_12IdleListenerEE5ComboEE3addEPKS4_i;2A.;remove::(17,194)=#(17,178),(0,6),(17,182),(17,179),(0,6);:_ZN6MAUtil6VectorINS_11ListenerSetINS_12IdleListenerEE5ComboEE6removeEPS4_;2A.(17,195)=#(17,178),(0,6),(17,182),(0,3),(0,6);:_ZN6MAUtil6VectorINS_11ListenerSetINS_12IdleListenerEE5ComboEE6removeEi;2A.(17,196)=#(17,178),(0,6),(17,182),(0,3),(0,3),(0,6);:_ZN6MAUtil6VectorINS_11ListenerSetINS_12IdleListenerEE5ComboEE6removeEii;2A.;insert::(17,197)=#(17,178),(0,6),(17,182),(0,3),(17,180),(0,6);:_ZN6MAUtil6VectorINS_11ListenerSetINS_12IdleListenerEE5ComboEE6insertEiS4_;2A.;size::(17,198)=#(17,178),(0,3),(17,199)=*(17,185),(0,6);:_ZNK6MAUtil6VectorINS_11ListenerSetINS_12IdleListenerEE5ComboEE4sizeEv;2B.;resize::(17,195):_ZN6MAUtil6VectorINS_11ListenerSetINS_12IdleListenerEE5ComboEE6resizeEi;2A.;reserve::(17,195):_ZN6MAUtil6VectorINS_11ListenerSetINS_12IdleListenerEE5ComboEE7reserveEi;2A.;clear::(17,186):_ZN6MAUtil6VectorINS_11ListenerSetINS_12IdleListenerEE5ComboEE5clearEv;2A.;empty::(17,200)=#(17,178),(0,4),(17,199),(0,6);:_ZNK6MAUtil6VectorINS_11ListenerSetINS_12IdleListenerEE5ComboEE5emptyEv;2B.;capacity::(17,198):_ZNK6MAUtil6VectorINS_11ListenerSetINS_12IdleListenerEE5ComboEE8capacityEv;2B.;begin::(17,201)=#(17,178),(17,179),(17,182),(0,6);:_ZN6MAUtil6VectorINS_11ListenerSetINS_12IdleListenerEE5ComboEE5beginEv;2A.;end::(17,201):_ZN6MAUtil6VectorINS_11ListenerSetINS_12IdleListenerEE5ComboEE3endEv;2A.;begin::(17,202)=#(17,178),(17,193),(17,199),(0,6);:_ZNK6MAUtil6VectorINS_11ListenerSetINS_12IdleListenerEE5ComboEE5beginEv;2B.;end::(17,202):_ZNK6MAUtil6VectorINS_11ListenerSetINS_12IdleListenerEE5ComboEE3endEv;2B.;operator[]::(17,203)=#(17,178),(17,204)=&(17,180),(17,182),(0,3),(0,6);:_ZN6MAUtil6VectorINS_11ListenerSetINS_12IdleListenerEE5ComboEEixEi;2A.(17,205)=#(17,178),(17,190),(17,199),(0,3),(0,6);:_ZNK6MAUtil6VectorINS_11ListenerSetINS_12IdleListenerEE5ComboEEixEi;2B.;pointer::(17,202):_ZNK6MAUtil6VectorINS_11ListenerSetINS_12IdleListenerEE5ComboEE7pointerEv;2B.(17,201):_ZN6MAUtil6VectorINS_11ListenerSetINS_12IdleListenerEE5ComboEE7pointerEv;2A.;;",128,0,94,0
	.stabs	"ListenerSet<MAUtil::IdleListener>:Tt(17,206)=s16mRunning:/0(0,4),0,8;mUpdateRequired:/0(0,4),8,8;mShouldDelete:/0(0,4),16,8;mVec:/0(17,178),32,96;__base_ctor::(17,207)=#(17,206),(0,6),(17,208)=*(17,206),(0,4),(0,6);:_ZN6MAUtil11ListenerSetINS_12IdleListenerEEC2Eb;2A.;__comp_ctor::(17,207):_ZN6MAUtil11ListenerSetINS_12IdleListenerEEC1Eb;2A.;begin::(17,209)=#(17,206),(17,210)=xsiterator:,(17,208),(0,6);:_ZN6MAUtil11ListenerSetINS_12IdleListenerEE5beginEv;2A.;add::(17,211)=#(17,206),(0,6),(17,208),(17,212)=*(17,213)=xsIdleListener:,(0,6);:_ZN6MAUtil11ListenerSetINS_12IdleListenerEE3addEPS1_;2A.;remove::(17,211):_ZN6MAUtil11ListenerSetINS_12IdleListenerEE6removeEPS1_;2A.;contains::(17,214)=#(17,206),(0,4),(17,208),(17,212),(0,6);:_ZN6MAUtil11ListenerSetINS_12IdleListenerEE8containsEPS1_;2A.;setRunning::(17,215)=#(17,206),(0,6),(17,208),(0,4),(0,6);:_ZN6MAUtil11ListenerSetINS_12IdleListenerEE10setRunningEb;2A.;size::(17,216)=#(17,206),(0,3),(17,217)=*(17,218)=k(17,206),(0,6);:_ZNK6MAUtil11ListenerSetINS_12IdleListenerEE4sizeEv;2B.;operator=::(17,219)=#(17,206),(17,220)=&(17,206),(17,208),(17,221)=&(17,218),(0,6);:_ZN6MAUtil11ListenerSetINS_12IdleListenerEEaSERKS2_;2A.;__base_ctor::(17,222)=#(17,206),(0,6),(17,208),(17,221),(0,6);:_ZN6MAUtil11ListenerSetINS_12IdleListenerEEC2ERKS2_;2A.;__comp_ctor::(17,222):_ZN6MAUtil11ListenerSetINS_12IdleListenerEEC1ERKS2_;2A.;__base_dtor::(17,223)=#(17,206),(0,6),(17,208),(0,6);:_ZN6MAUtil11ListenerSetINS_12IdleListenerEED2Ev;2A.;__comp_dtor::(17,223):_ZN6MAUtil11ListenerSetINS_12IdleListenerEED1Ev;2A.;;",128,0,37,0
	.stabs	"Vector<MAUtil::ListenerSet<MAUtil::Environment::TimerEventInstance>::Combo>:Tt(17,224)=s12mSize:/1(0,3),0,32;mCapacity:/1(0,3),32,32;mData:/1(17,225)=*(17,226)=xsCombo:,64,32;__base_ctor::(17,227)=#(17,224),(0,6),(17,228)=*(17,224),(0,3),(0,6);:_ZN6MAUtil6VectorINS_11ListenerSetINS_11Environment18TimerEventInstanceEE5ComboEEC2Ei;2A.;__comp_ctor::(17,227):_ZN6MAUtil6VectorINS_11ListenerSetINS_11Environment18TimerEventInstanceEE5ComboEEC1Ei;2A.;__base_ctor::(17,229)=#(17,224),(0,6),(17,228),(17,230)=&(17,231)=k(17,224),(0,6);:_ZN6MAUtil6VectorINS_11ListenerSetINS_11Environment18TimerEventInstanceEE5ComboEEC2ERKS6_;2A.;__comp_ctor::(17,229):_ZN6MAUtil6VectorINS_11ListenerSetINS_11Environment18TimerEventInstanceEE5ComboEEC1ERKS6_;2A.;__base_dtor::(17,232)=#(17,224),(0,6),(17,228),(0,6);:_ZN6MAUtil6VectorINS_11ListenerSetINS_11Environment18TimerEventInstanceEE5ComboEED2Ev;2A.;__comp_dtor::(17,232):_ZN6MAUtil6VectorINS_11ListenerSetINS_11Environment18TimerEventInstanceEE5ComboEED1Ev;2A.;operator=::(17,233)=#(17,224),(17,234)=&(17,224),(17,228),(17,230),(0,6);:_ZN6MAUtil6VectorINS_11ListenerSetINS_11Environment18TimerEventInstanceEE5ComboEEaSERKS6_;2A.;add::(17,235)=#(17,224),(0,6),(17,228),(17,236)=&(17,237)=k(17,226),(0,6);:_ZN6MAUtil6VectorINS_11ListenerSetINS_11Environment18TimerEventInstanceEE5ComboEE3addERKS5_;2A.(17,238)=#(17,224),(0,6),(17,228),(17,239)=*(17,237),(0,3),(0,6);:_ZN6MAUtil6VectorINS_11ListenerSetINS_11Environment18TimerEventInstanceEE5ComboEE3addEPKS5_i;2A.;remove::(17,240)=#(17,224),(0,6),(17,228),(17,225),(0,6);:_ZN6MAUtil6VectorINS_11ListenerSetINS_11Environment18TimerEventInstanceEE5ComboEE6removeEPS5_;2A.(17,241)=#(17,224),(0,6),(17,228),(0,3),(0,6);:_ZN6MAUtil6VectorINS_11ListenerSetINS_11Environment18TimerEventInstanceEE5ComboEE6removeEi;2A.(17,242)=#(17,224),(0,6),(17,228),(0,3),(0,3),(0,6);:_ZN6MAUtil6VectorINS_11ListenerSetINS_11Environment18TimerEventInstanceEE5ComboEE6removeEii;2A.;insert::(17,243)=#(17,224),(0,6),(17,228),(0,3),(17,226),(0,6);:_ZN6MAUtil6VectorINS_11ListenerSetINS_11Environment18TimerEventInstanceEE5ComboEE6insertEiS5_;2A.;size::(17,244)=#(17,224),(0,3),(17,245)=*(17,231),(0,6);:_ZNK6MAUtil6VectorINS_11ListenerSetINS_11Environment18TimerEventInstanceEE5ComboEE4sizeEv;2B.;resize::(17,241):_ZN6MAUtil6VectorINS_11ListenerSetINS_11Environment18TimerEventInstanceEE5ComboEE6resizeEi;2A.;reserve::(17,241):_ZN6MAUtil6VectorINS_11ListenerSetINS_11Environment18TimerEventInstanceEE5ComboEE7reserveEi;2A.;clear::(17,232):_ZN6MAUtil6VectorINS_11ListenerSetINS_11Environment18TimerEventInstanceEE5ComboEE5clearEv;2A.;empty::(17,246)=#(17,224),(0,4),(17,245),(0,6);:_ZNK6MAUtil6VectorINS_11ListenerSetINS_11Environment18TimerEventInstanceEE5ComboEE5emptyEv;2B.;capacity::(17,244):_ZNK6MAUtil6VectorINS_11ListenerSetINS_11Environment18TimerEventInstanceEE5ComboEE8capacityEv;2B.;begin::(17,247)=#(17,224),(17,225),(17,228),(0,6);:_ZN6MAUtil6VectorINS_11ListenerSetINS_11Environment18TimerEventInstanceEE5ComboEE5beginEv;2A.;end::(17,247):_ZN6MAUtil6VectorINS_11ListenerSetINS_11Environment18TimerEventInstanceEE5ComboEE3endEv;2A.;begin::(17,248)=#(17,224),(17,239),(17,245),(0,6);:_ZNK6MAUtil6VectorINS_11ListenerSetINS_11Environment18TimerEventInstanceEE5ComboEE5beginEv;2B.;end::(17,248):_ZNK6MAUtil6VectorINS_11ListenerSetINS_11Environment18TimerEventInstanceEE5ComboEE3endEv;2B.;operator[]::(17,249)=#(17,224),(17,250)=&(17,226),(17,228),(0,3),(0,6);:_ZN6MAUtil6VectorINS_11ListenerSetINS_11Environment18TimerEventInstanceEE5ComboEEixEi;2A.(17,251)=#(17,224),(17,236),(17,245),(0,3),(0,6);:_ZNK6MAUtil6VectorINS_11ListenerSetINS_11Environment18TimerEventInstanceEE5ComboEEixEi;2B.;pointer::(17,248):_ZNK6MAUtil6VectorINS_11ListenerSetINS_11Environment18TimerEventInstanceEE5ComboEE7pointerEv;2B.(17,247):_ZN6MAUtil6VectorINS_11ListenerSetINS_11Environment18TimerEventInstanceEE5ComboEE7pointerEv;2A.;;",128,0,94,0
	.stabs	"ListenerSet<MAUtil::Environment::TimerEventInstance>:Tt(17,252)=s16mRunning:/0(0,4),0,8;mUpdateRequired:/0(0,4),8,8;mShouldDelete:/0(0,4),16,8;mVec:/0(17,224),32,96;__base_ctor::(17,253)=#(17,252),(0,6),(17,254)=*(17,252),(0,4),(0,6);:_ZN6MAUtil11ListenerSetINS_11Environment18TimerEventInstanceEEC2Eb;2A.;__comp_ctor::(17,253):_ZN6MAUtil11ListenerSetINS_11Environment18TimerEventInstanceEEC1Eb;2A.;begin::(17,255)=#(17,252),(17,256)=xsiterator:,(17,254),(0,6);:_ZN6MAUtil11ListenerSetINS_11Environment18TimerEventInstanceEE5beginEv;2A.;add::(17,257)=#(17,252),(0,6),(17,254),(17,5),(0,6);:_ZN6MAUtil11ListenerSetINS_11Environment18TimerEventInstanceEE3addEPS2_;2A.;remove::(17,257):_ZN6MAUtil11ListenerSetINS_11Environment18TimerEventInstanceEE6removeEPS2_;2A.;contains::(17,258)=#(17,252),(0,4),(17,254),(17,5),(0,6);:_ZN6MAUtil11ListenerSetINS_11Environment18TimerEventInstanceEE8containsEPS2_;2A.;setRunning::(17,259)=#(17,252),(0,6),(17,254),(0,4),(0,6);:_ZN6MAUtil11ListenerSetINS_11Environment18TimerEventInstanceEE10setRunningEb;2A.;size::(17,260)=#(17,252),(0,3),(17,261)=*(17,262)=k(17,252),(0,6);:_ZNK6MAUtil11ListenerSetINS_11Environment18TimerEventInstanceEE4sizeEv;2B.;operator=::(17,263)=#(17,252),(17,264)=&(17,252),(17,254),(17,265)=&(17,262),(0,6);:_ZN6MAUtil11ListenerSetINS_11Environment18TimerEventInstanceEEaSERKS3_;2A.;__base_ctor::(17,266)=#(17,252),(0,6),(17,254),(17,265),(0,6);:_ZN6MAUtil11ListenerSetINS_11Environment18TimerEventInstanceEEC2ERKS3_;2A.;__comp_ctor::(17,266):_ZN6MAUtil11ListenerSetINS_11Environment18TimerEventInstanceEEC1ERKS3_;2A.;__base_dtor::(17,267)=#(17,252),(0,6),(17,254),(0,6);:_ZN6MAUtil11ListenerSetINS_11Environment18TimerEventInstanceEED2Ev;2A.;__comp_dtor::(17,267):_ZN6MAUtil11ListenerSetINS_11Environment18TimerEventInstanceEED1Ev;2A.;;",128,0,37,0
	.stabs	"Vector<MAUtil::ListenerSet<MAUtil::FocusListener>::Combo>:Tt(17,268)=s12mSize:/1(0,3),0,32;mCapacity:/1(0,3),32,32;mData:/1(17,269)=*(17,270)=xsCombo:,64,32;__base_ctor::(17,271)=#(17,268),(0,6),(17,272)=*(17,268),(0,3),(0,6);:_ZN6MAUtil6VectorINS_11ListenerSetINS_13FocusListenerEE5ComboEEC2Ei;2A.;__comp_ctor::(17,271):_ZN6MAUtil6VectorINS_11ListenerSetINS_13FocusListenerEE5ComboEEC1Ei;2A.;__base_ctor::(17,273)=#(17,268),(0,6),(17,272),(17,274)=&(17,275)=k(17,268),(0,6);:_ZN6MAUtil6VectorINS_11ListenerSetINS_13FocusListenerEE5ComboEEC2ERKS5_;2A.;__comp_ctor::(17,273):_ZN6MAUtil6VectorINS_11ListenerSetINS_13FocusListenerEE5ComboEEC1ERKS5_;2A.;__base_dtor::(17,276)=#(17,268),(0,6),(17,272),(0,6);:_ZN6MAUtil6VectorINS_11ListenerSetINS_13FocusListenerEE5ComboEED2Ev;2A.;__comp_dtor::(17,276):_ZN6MAUtil6VectorINS_11ListenerSetINS_13FocusListenerEE5ComboEED1Ev;2A.;operator=::(17,277)=#(17,268),(17,278)=&(17,268),(17,272),(17,274),(0,6);:_ZN6MAUtil6VectorINS_11ListenerSetINS_13FocusListenerEE5ComboEEaSERKS5_;2A.;add::(17,279)=#(17,268),(0,6),(17,272),(17,280)=&(17,281)=k(17,270),(0,6);:_ZN6MAUtil6VectorINS_11ListenerSetINS_13FocusListenerEE5ComboEE3addERKS4_;2A.(17,282)=#(17,268),(0,6),(17,272),(17,283)=*(17,281),(0,3),(0,6);:_ZN6MAUtil6VectorINS_11ListenerSetINS_13FocusListenerEE5ComboEE3addEPKS4_i;2A.;remove::(17,284)=#(17,268),(0,6),(17,272),(17,269),(0,6);:_ZN6MAUtil6VectorINS_11ListenerSetINS_13FocusListenerEE5ComboEE6removeEPS4_;2A.(17,285)=#(17,268),(0,6),(17,272),(0,3),(0,6);:_ZN6MAUtil6VectorINS_11ListenerSetINS_13FocusListenerEE5ComboEE6removeEi;2A.(17,286)=#(17,268),(0,6),(17,272),(0,3),(0,3),(0,6);:_ZN6MAUtil6VectorINS_11ListenerSetINS_13FocusListenerEE5ComboEE6removeEii;2A.;insert::(17,287)=#(17,268),(0,6),(17,272),(0,3),(17,270),(0,6);:_ZN6MAUtil6VectorINS_11ListenerSetINS_13FocusListenerEE5ComboEE6insertEiS4_;2A.;size::(17,288)=#(17,268),(0,3),(17,289)=*(17,275),(0,6);:_ZNK6MAUtil6VectorINS_11ListenerSetINS_13FocusListenerEE5ComboEE4sizeEv;2B.;resize::(17,285):_ZN6MAUtil6VectorINS_11ListenerSetINS_13FocusListenerEE5ComboEE6resizeEi;2A.;reserve::(17,285):_ZN6MAUtil6VectorINS_11ListenerSetINS_13FocusListenerEE5ComboEE7reserveEi;2A.;clear::(17,276):_ZN6MAUtil6VectorINS_11ListenerSetINS_13FocusListenerEE5ComboEE5clearEv;2A.;empty::(17,290)=#(17,268),(0,4),(17,289),(0,6);:_ZNK6MAUtil6VectorINS_11ListenerSetINS_13FocusListenerEE5ComboEE5emptyEv;2B.;capacity::(17,288):_ZNK6MAUtil6VectorINS_11ListenerSetINS_13FocusListenerEE5ComboEE8capacityEv;2B.;begin::(17,291)=#(17,268),(17,269),(17,272),(0,6);:_ZN6MAUtil6VectorINS_11ListenerSetINS_13FocusListenerEE5ComboEE5beginEv;2A.;end::(17,291):_ZN6MAUtil6VectorINS_11ListenerSetINS_13FocusListenerEE5ComboEE3endEv;2A.;begin::(17,292)=#(17,268),(17,283),(17,289),(0,6);:_ZNK6MAUtil6VectorINS_11ListenerSetINS_13FocusListenerEE5ComboEE5beginEv;2B.;end::(17,292):_ZNK6MAUtil6VectorINS_11ListenerSetINS_13FocusListenerEE5ComboEE3endEv;2B.;operator[]::(17,293)=#(17,268),(17,294)=&(17,270),(17,272),(0,3),(0,6);:_ZN6MAUtil6VectorINS_11ListenerSetINS_13FocusListenerEE5ComboEEixEi;2A.(17,295)=#(17,268),(17,280),(17,289),(0,3),(0,6);:_ZNK6MAUtil6VectorINS_11ListenerSetINS_13FocusListenerEE5ComboEEixEi;2B.;pointer::(17,292):_ZNK6MAUtil6VectorINS_11ListenerSetINS_13FocusListenerEE5ComboEE7pointerEv;2B.(17,291):_ZN6MAUtil6VectorINS_11ListenerSetINS_13FocusListenerEE5ComboEE7pointerEv;2A.;;",128,0,94,0
	.stabs	"ListenerSet<MAUtil::FocusListener>:Tt(17,296)=s16mRunning:/0(0,4),0,8;mUpdateRequired:/0(0,4),8,8;mShouldDelete:/0(0,4),16,8;mVec:/0(17,268),32,96;__base_ctor::(17,297)=#(17,296),(0,6),(17,298)=*(17,296),(0,4),(0,6);:_ZN6MAUtil11ListenerSetINS_13FocusListenerEEC2Eb;2A.;__comp_ctor::(17,297):_ZN6MAUtil11ListenerSetINS_13FocusListenerEEC1Eb;2A.;begin::(17,299)=#(17,296),(17,300)=xsiterator:,(17,298),(0,6);:_ZN6MAUtil11ListenerSetINS_13FocusListenerEE5beginEv;2A.;add::(17,301)=#(17,296),(0,6),(17,298),(17,302)=*(17,303)=xsFocusListener:,(0,6);:_ZN6MAUtil11ListenerSetINS_13FocusListenerEE3addEPS1_;2A.;remove::(17,301):_ZN6MAUtil11ListenerSetINS_13FocusListenerEE6removeEPS1_;2A.;contains::(17,304)=#(17,296),(0,4),(17,298),(17,302),(0,6);:_ZN6MAUtil11ListenerSetINS_13FocusListenerEE8containsEPS1_;2A.;setRunning::(17,305)=#(17,296),(0,6),(17,298),(0,4),(0,6);:_ZN6MAUtil11ListenerSetINS_13FocusListenerEE10setRunningEb;2A.;size::(17,306)=#(17,296),(0,3),(17,307)=*(17,308)=k(17,296),(0,6);:_ZNK6MAUtil11ListenerSetINS_13FocusListenerEE4sizeEv;2B.;operator=::(17,309)=#(17,296),(17,310)=&(17,296),(17,298),(17,311)=&(17,308),(0,6);:_ZN6MAUtil11ListenerSetINS_13FocusListenerEEaSERKS2_;2A.;__base_ctor::(17,312)=#(17,296),(0,6),(17,298),(17,311),(0,6);:_ZN6MAUtil11ListenerSetINS_13FocusListenerEEC2ERKS2_;2A.;__comp_ctor::(17,312):_ZN6MAUtil11ListenerSetINS_13FocusListenerEEC1ERKS2_;2A.;__base_dtor::(17,313)=#(17,296),(0,6),(17,298),(0,6);:_ZN6MAUtil11ListenerSetINS_13FocusListenerEED2Ev;2A.;__comp_dtor::(17,313):_ZN6MAUtil11ListenerSetINS_13FocusListenerEED1Ev;2A.;;",128,0,37,0
	.stabs	"Vector<MAUtil::ListenerSet<MAUtil::CustomEventListener>::Combo>:Tt(17,314)=s12mSize:/1(0,3),0,32;mCapacity:/1(0,3),32,32;mData:/1(17,315)=*(17,316)=xsCombo:,64,32;__base_ctor::(17,317)=#(17,314),(0,6),(17,318)=*(17,314),(0,3),(0,6);:_ZN6MAUtil6VectorINS_11ListenerSetINS_19CustomEventListenerEE5ComboEEC2Ei;2A.;__comp_ctor::(17,317):_ZN6MAUtil6VectorINS_11ListenerSetINS_19CustomEventListenerEE5ComboEEC1Ei;2A.;__base_ctor::(17,319)=#(17,314),(0,6),(17,318),(17,320)=&(17,321)=k(17,314),(0,6);:_ZN6MAUtil6VectorINS_11ListenerSetINS_19CustomEventListenerEE5ComboEEC2ERKS5_;2A.;__comp_ctor::(17,319):_ZN6MAUtil6VectorINS_11ListenerSetINS_19CustomEventListenerEE5ComboEEC1ERKS5_;2A.;__base_dtor::(17,322)=#(17,314),(0,6),(17,318),(0,6);:_ZN6MAUtil6VectorINS_11ListenerSetINS_19CustomEventListenerEE5ComboEED2Ev;2A.;__comp_dtor::(17,322):_ZN6MAUtil6VectorINS_11ListenerSetINS_19CustomEventListenerEE5ComboEED1Ev;2A.;operator=::(17,323)=#(17,314),(17,324)=&(17,314),(17,318),(17,320),(0,6);:_ZN6MAUtil6VectorINS_11ListenerSetINS_19CustomEventListenerEE5ComboEEaSERKS5_;2A.;add::(17,325)=#(17,314),(0,6),(17,318),(17,326)=&(17,327)=k(17,316),(0,6);:_ZN6MAUtil6VectorINS_11ListenerSetINS_19CustomEventListenerEE5ComboEE3addERKS4_;2A.(17,328)=#(17,314),(0,6),(17,318),(17,329)=*(17,327),(0,3),(0,6);:_ZN6MAUtil6VectorINS_11ListenerSetINS_19CustomEventListenerEE5ComboEE3addEPKS4_i;2A.;remove::(17,330)=#(17,314),(0,6),(17,318),(17,315),(0,6);:_ZN6MAUtil6VectorINS_11ListenerSetINS_19CustomEventListenerEE5ComboEE6removeEPS4_;2A.(17,331)=#(17,314),(0,6),(17,318),(0,3),(0,6);:_ZN6MAUtil6VectorINS_11ListenerSetINS_19CustomEventListenerEE5ComboEE6removeEi;2A.(17,332)=#(17,314),(0,6),(17,318),(0,3),(0,3),(0,6);:_ZN6MAUtil6VectorINS_11ListenerSetINS_19CustomEventListenerEE5ComboEE6removeEii;2A.;insert::(17,333)=#(17,314),(0,6),(17,318),(0,3),(17,316),(0,6);:_ZN6MAUtil6VectorINS_11ListenerSetINS_19CustomEventListenerEE5ComboEE6insertEiS4_;2A.;size::(17,334)=#(17,314),(0,3),(17,335)=*(17,321),(0,6);:_ZNK6MAUtil6VectorINS_11ListenerSetINS_19CustomEventListenerEE5ComboEE4sizeEv;2B.;resize::(17,331):_ZN6MAUtil6VectorINS_11ListenerSetINS_19CustomEventListenerEE5ComboEE6resizeEi;2A.;reserve::(17,331):_ZN6MAUtil6VectorINS_11ListenerSetINS_19CustomEventListenerEE5ComboEE7reserveEi;2A.;clear::(17,322):_ZN6MAUtil6VectorINS_11ListenerSetINS_19CustomEventListenerEE5ComboEE5clearEv;2A.;empty::(17,336)=#(17,314),(0,4),(17,335),(0,6);:_ZNK6MAUtil6VectorINS_11ListenerSetINS_19CustomEventListenerEE5ComboEE5emptyEv;2B.;capacity::(17,334):_ZNK6MAUtil6VectorINS_11ListenerSetINS_19CustomEventListenerEE5ComboEE8capacityEv;2B.;begin::(17,337)=#(17,314),(17,315),(17,318),(0,6);:_ZN6MAUtil6VectorINS_11ListenerSetINS_19CustomEventListenerEE5ComboEE5beginEv;2A.;end::(17,337):_ZN6MAUtil6VectorINS_11ListenerSetINS_19CustomEventListenerEE5ComboEE3endEv;2A.;begin::(17,338)=#(17,314),(17,329),(17,335),(0,6);:_ZNK6MAUtil6VectorINS_11ListenerSetINS_19CustomEventListenerEE5ComboEE5beginEv;2B.;end::(17,338):_ZNK6MAUtil6VectorINS_11ListenerSetINS_19CustomEventListenerEE5ComboEE3endEv;2B.;operator[]::(17,339)=#(17,314),(17,340)=&(17,316),(17,318),(0,3),(0,6);:_ZN6MAUtil6VectorINS_11ListenerSetINS_19CustomEventListenerEE5ComboEEixEi;2A.(17,341)=#(17,314),(17,326),(17,335),(0,3),(0,6);:_ZNK6MAUtil6VectorINS_11ListenerSetINS_19CustomEventListenerEE5ComboEEixEi;2B.;pointer::(17,338):_ZNK6MAUtil6VectorINS_11ListenerSetINS_19CustomEventListenerEE5ComboEE7pointerEv;2B.(17,337):_ZN6MAUtil6VectorINS_11ListenerSetINS_19CustomEventListenerEE5ComboEE7pointerEv;2A.;;",128,0,94,0
	.stabs	"ListenerSet<MAUtil::CustomEventListener>:Tt(17,342)=s16mRunning:/0(0,4),0,8;mUpdateRequired:/0(0,4),8,8;mShouldDelete:/0(0,4),16,8;mVec:/0(17,314),32,96;__base_ctor::(17,343)=#(17,342),(0,6),(17,344)=*(17,342),(0,4),(0,6);:_ZN6MAUtil11ListenerSetINS_19CustomEventListenerEEC2Eb;2A.;__comp_ctor::(17,343):_ZN6MAUtil11ListenerSetINS_19CustomEventListenerEEC1Eb;2A.;begin::(17,345)=#(17,342),(17,346)=xsiterator:,(17,344),(0,6);:_ZN6MAUtil11ListenerSetINS_19CustomEventListenerEE5beginEv;2A.;add::(17,347)=#(17,342),(0,6),(17,344),(17,348)=*(17,349)=xsCustomEventListener:,(0,6);:_ZN6MAUtil11ListenerSetINS_19CustomEventListenerEE3addEPS1_;2A.;remove::(17,347):_ZN6MAUtil11ListenerSetINS_19CustomEventListenerEE6removeEPS1_;2A.;contains::(17,350)=#(17,342),(0,4),(17,344),(17,348),(0,6);:_ZN6MAUtil11ListenerSetINS_19CustomEventListenerEE8containsEPS1_;2A.;setRunning::(17,351)=#(17,342),(0,6),(17,344),(0,4),(0,6);:_ZN6MAUtil11ListenerSetINS_19CustomEventListenerEE10setRunningEb;2A.;size::(17,352)=#(17,342),(0,3),(17,353)=*(17,354)=k(17,342),(0,6);:_ZNK6MAUtil11ListenerSetINS_19CustomEventListenerEE4sizeEv;2B.;operator=::(17,355)=#(17,342),(17,356)=&(17,342),(17,344),(17,357)=&(17,354),(0,6);:_ZN6MAUtil11ListenerSetINS_19CustomEventListenerEEaSERKS2_;2A.;__base_ctor::(17,358)=#(17,342),(0,6),(17,344),(17,357),(0,6);:_ZN6MAUtil11ListenerSetINS_19CustomEventListenerEEC2ERKS2_;2A.;__comp_ctor::(17,358):_ZN6MAUtil11ListenerSetINS_19CustomEventListenerEEC1ERKS2_;2A.;__base_dtor::(17,359)=#(17,342),(0,6),(17,344),(0,6);:_ZN6MAUtil11ListenerSetINS_19CustomEventListenerEED2Ev;2A.;__comp_dtor::(17,359):_ZN6MAUtil11ListenerSetINS_19CustomEventListenerEED1Ev;2A.;;",128,0,37,0
	.stabs	"Vector<MAUtil::ListenerSet<MAUtil::TextBoxListener>::Combo>:Tt(17,360)=s12mSize:/1(0,3),0,32;mCapacity:/1(0,3),32,32;mData:/1(17,361)=*(17,362)=xsCombo:,64,32;__base_ctor::(17,363)=#(17,360),(0,6),(17,364)=*(17,360),(0,3),(0,6);:_ZN6MAUtil6VectorINS_11ListenerSetINS_15TextBoxListenerEE5ComboEEC2Ei;2A.;__comp_ctor::(17,363):_ZN6MAUtil6VectorINS_11ListenerSetINS_15TextBoxListenerEE5ComboEEC1Ei;2A.;__base_ctor::(17,365)=#(17,360),(0,6),(17,364),(17,366)=&(17,367)=k(17,360),(0,6);:_ZN6MAUtil6VectorINS_11ListenerSetINS_15TextBoxListenerEE5ComboEEC2ERKS5_;2A.;__comp_ctor::(17,365):_ZN6MAUtil6VectorINS_11ListenerSetINS_15TextBoxListenerEE5ComboEEC1ERKS5_;2A.;__base_dtor::(17,368)=#(17,360),(0,6),(17,364),(0,6);:_ZN6MAUtil6VectorINS_11ListenerSetINS_15TextBoxListenerEE5ComboEED2Ev;2A.;__comp_dtor::(17,368):_ZN6MAUtil6VectorINS_11ListenerSetINS_15TextBoxListenerEE5ComboEED1Ev;2A.;operator=::(17,369)=#(17,360),(17,370)=&(17,360),(17,364),(17,366),(0,6);:_ZN6MAUtil6VectorINS_11ListenerSetINS_15TextBoxListenerEE5ComboEEaSERKS5_;2A.;add::(17,371)=#(17,360),(0,6),(17,364),(17,372)=&(17,373)=k(17,362),(0,6);:_ZN6MAUtil6VectorINS_11ListenerSetINS_15TextBoxListenerEE5ComboEE3addERKS4_;2A.(17,374)=#(17,360),(0,6),(17,364),(17,375)=*(17,373),(0,3),(0,6);:_ZN6MAUtil6VectorINS_11ListenerSetINS_15TextBoxListenerEE5ComboEE3addEPKS4_i;2A.;remove::(17,376)=#(17,360),(0,6),(17,364),(17,361),(0,6);:_ZN6MAUtil6VectorINS_11ListenerSetINS_15TextBoxListenerEE5ComboEE6removeEPS4_;2A.(17,377)=#(17,360),(0,6),(17,364),(0,3),(0,6);:_ZN6MAUtil6VectorINS_11ListenerSetINS_15TextBoxListenerEE5ComboEE6removeEi;2A.(17,378)=#(17,360),(0,6),(17,364),(0,3),(0,3),(0,6);:_ZN6MAUtil6VectorINS_11ListenerSetINS_15TextBoxListenerEE5ComboEE6removeEii;2A.;insert::(17,379)=#(17,360),(0,6),(17,364),(0,3),(17,362),(0,6);:_ZN6MAUtil6VectorINS_11ListenerSetINS_15TextBoxListenerEE5ComboEE6insertEiS4_;2A.;size::(17,380)=#(17,360),(0,3),(17,381)=*(17,367),(0,6);:_ZNK6MAUtil6VectorINS_11ListenerSetINS_15TextBoxListenerEE5ComboEE4sizeEv;2B.;resize::(17,377):_ZN6MAUtil6VectorINS_11ListenerSetINS_15TextBoxListenerEE5ComboEE6resizeEi;2A.;reserve::(17,377):_ZN6MAUtil6VectorINS_11ListenerSetINS_15TextBoxListenerEE5ComboEE7reserveEi;2A.;clear::(17,368):_ZN6MAUtil6VectorINS_11ListenerSetINS_15TextBoxListenerEE5ComboEE5clearEv;2A.;empty::(17,382)=#(17,360),(0,4),(17,381),(0,6);:_ZNK6MAUtil6VectorINS_11ListenerSetINS_15TextBoxListenerEE5ComboEE5emptyEv;2B.;capacity::(17,380):_ZNK6MAUtil6VectorINS_11ListenerSetINS_15TextBoxListenerEE5ComboEE8capacityEv;2B.;begin::(17,383)=#(17,360),(17,361),(17,364),(0,6);:_ZN6MAUtil6VectorINS_11ListenerSetINS_15TextBoxListenerEE5ComboEE5beginEv;2A.;end::(17,383):_ZN6MAUtil6VectorINS_11ListenerSetINS_15TextBoxListenerEE5ComboEE3endEv;2A.;begin::(17,384)=#(17,360),(17,375),(17,381),(0,6);:_ZNK6MAUtil6VectorINS_11ListenerSetINS_15TextBoxListenerEE5ComboEE5beginEv;2B.;end::(17,384):_ZNK6MAUtil6VectorINS_11ListenerSetINS_15TextBoxListenerEE5ComboEE3endEv;2B.;operator[]::(17,385)=#(17,360),(17,386)=&(17,362),(17,364),(0,3),(0,6);:_ZN6MAUtil6VectorINS_11ListenerSetINS_15TextBoxListenerEE5ComboEEixEi;2A.(17,387)=#(17,360),(17,372),(17,381),(0,3),(0,6);:_ZNK6MAUtil6VectorINS_11ListenerSetINS_15TextBoxListenerEE5ComboEEixEi;2B.;pointer::(17,384):_ZNK6MAUtil6VectorINS_11ListenerSetINS_15TextBoxListenerEE5ComboEE7pointerEv;2B.(17,383):_ZN6MAUtil6VectorINS_11ListenerSetINS_15TextBoxListenerEE5ComboEE7pointerEv;2A.;;",128,0,94,0
	.stabs	"ListenerSet<MAUtil::TextBoxListener>:Tt(17,388)=s16mRunning:/0(0,4),0,8;mUpdateRequired:/0(0,4),8,8;mShouldDelete:/0(0,4),16,8;mVec:/0(17,360),32,96;__base_ctor::(17,389)=#(17,388),(0,6),(17,390)=*(17,388),(0,4),(0,6);:_ZN6MAUtil11ListenerSetINS_15TextBoxListenerEEC2Eb;2A.;__comp_ctor::(17,389):_ZN6MAUtil11ListenerSetINS_15TextBoxListenerEEC1Eb;2A.;begin::(17,391)=#(17,388),(17,392)=xsiterator:,(17,390),(0,6);:_ZN6MAUtil11ListenerSetINS_15TextBoxListenerEE5beginEv;2A.;add::(17,393)=#(17,388),(0,6),(17,390),(17,394)=*(17,395)=xsTextBoxListener:,(0,6);:_ZN6MAUtil11ListenerSetINS_15TextBoxListenerEE3addEPS1_;2A.;remove::(17,393):_ZN6MAUtil11ListenerSetINS_15TextBoxListenerEE6removeEPS1_;2A.;contains::(17,396)=#(17,388),(0,4),(17,390),(17,394),(0,6);:_ZN6MAUtil11ListenerSetINS_15TextBoxListenerEE8containsEPS1_;2A.;setRunning::(17,397)=#(17,388),(0,6),(17,390),(0,4),(0,6);:_ZN6MAUtil11ListenerSetINS_15TextBoxListenerEE10setRunningEb;2A.;size::(17,398)=#(17,388),(0,3),(17,399)=*(17,400)=k(17,388),(0,6);:_ZNK6MAUtil11ListenerSetINS_15TextBoxListenerEE4sizeEv;2B.;operator=::(17,401)=#(17,388),(17,402)=&(17,388),(17,390),(17,403)=&(17,400),(0,6);:_ZN6MAUtil11ListenerSetINS_15TextBoxListenerEEaSERKS2_;2A.;__base_ctor::(17,404)=#(17,388),(0,6),(17,390),(17,403),(0,6);:_ZN6MAUtil11ListenerSetINS_15TextBoxListenerEEC2ERKS2_;2A.;__comp_ctor::(17,404):_ZN6MAUtil11ListenerSetINS_15TextBoxListenerEEC1ERKS2_;2A.;__base_dtor::(17,405)=#(17,388),(0,6),(17,390),(0,6);:_ZN6MAUtil11ListenerSetINS_15TextBoxListenerEED2Ev;2A.;__comp_dtor::(17,405):_ZN6MAUtil11ListenerSetINS_15TextBoxListenerEED1Ev;2A.;;",128,0,37,0
	.stabn	162,0,0,0
	.stabn	162,0,0,0
	.stabs	"c:/Apps/MoSync2.4/include/MAUI/Label.h",130,0,0,0
	.stabs	"c:/Apps/MoSync2.4/include/MAUI/Font.h",130,0,0,0
	.stabs	"CharDescriptor:Tt(19,1)=s16x:(0,12),0,16;y:(0,12),16,16;width:(0,12),32,16;height:(0,12),48,16;xOffset:(0,13),64,16;yOffset:(0,13),80,16;xAdvance:(0,13),96,16;page:(0,12),112,16;operator=::(19,2)=#(19,1),(19,3)=&(19,1),(19,4)=*(19,1),(19,5)=&(19,6)=k(19,1),(0,6);:_ZN4MAUI14CharDescriptoraSERKS0_;2A.;__base_ctor::(19,7)=#(19,1),(0,6),(19,4),(19,5),(0,6);:_ZN4MAUI14CharDescriptorC2ERKS0_;2A.;__comp_ctor::(19,7):_ZN4MAUI14CharDescriptorC1ERKS0_;2A.;__base_ctor::(19,8)=#(19,1),(0,6),(19,4),(0,6);:_ZN4MAUI14CharDescriptorC2Ev;2A.;__comp_ctor::(19,8):_ZN4MAUI14CharDescriptorC1Ev;2A.;;",128,0,40,0
	.stabs	"Charset:Tt(19,9)=s4122lineHeight:(0,12),0,16;base:(0,12),16,16;width:(0,12),32,16;height:(0,12),48,16;pages:(0,12),64,16;chars:(19,10)=ar(3,53);0;255;(19,1),80,32768;name:(19,11)=ar(3,53);0;15;(0,19),32848,128;operator=::(19,12)=#(19,9),(19,13)=&(19,9),(19,14)=*(19,9),(19,15)=&(19,16)=k(19,9),(0,6);:_ZN4MAUI7CharsetaSERKS0_;2A.;__base_ctor::(19,17)=#(19,9),(0,6),(19,14),(19,15),(0,6);:_ZN4MAUI7CharsetC2ERKS0_;2A.;__comp_ctor::(19,17):_ZN4MAUI7CharsetC1ERKS0_;2A.;__base_ctor::(19,18)=#(19,9),(0,6),(19,14),(0,6);:_ZN4MAUI7CharsetC2Ev;2A.;__comp_ctor::(19,18):_ZN4MAUI7CharsetC1Ev;2A.;;",128,0,55,0
	.stabs	"Font:Tt(19,19)=s12fontImage:/1(3,10),0,32;charset:/1(19,14),32,32;mLineSpacing:/1(0,3),64,32;__base_ctor::(19,20)=#(19,19),(0,6),(19,21)=*(19,19),(3,10),(0,6);:_ZN4MAUI4FontC2Ei;2A.;__comp_ctor::(19,20):_ZN4MAUI4FontC1Ei;2A.;__base_dtor::(19,22)=#(19,19),(0,6),(19,21),(0,6);:_ZN4MAUI4FontD2Ev;2A.;__comp_dtor::(19,22):_ZN4MAUI4FontD1Ev;2A.;setResource::(19,20):_ZN4MAUI4Font11setResourceEi;2A.;getHandle::(19,23)=#(19,19),(3,10),(19,24)=*(19,25)=k(19,19),(0,6);:_ZNK4MAUI4Font9getHandleEv;2B.;getName::(19,26)=#(19,19),(19,27)=*(19,28)=k(0,19),(19,24),(0,6);:_ZNK4MAUI4Font7getNameEv;2B.;setLineSpacing::(19,29)=#(19,19),(0,6),(19,21),(0,3),(0,6);:_ZN4MAUI4Font14setLineSpacingEi;2A.;getLineSpacing::(19,30)=#(19,19),(0,3),(19,24),(0,6);:_ZNK4MAUI4Font14getLineSpacingEv;2B.;getStringDimensions::(19,31)=#(19,19),(3,11),(19,24),(19,27),(0,3),(0,6);:_ZNK4MAUI4Font19getStringDimensionsEPKci;2B.;getBoundedStringDimensions::(19,32)=#(19,19),(3,11),(19,24),(19,27),(19,33)=&(19,34)=k(19,35)=xsRect:,(0,3),(0,6);:_ZNK4MAUI4Font26getBoundedStringDimensionsEPKcRKN6MAUtil4RectEi;2B.;getLineBreak::(19,36)=#(19,19),(0,3),(19,24),(0,3),(19,27),(19,33),(0,6);:_ZNK4MAUI4Font12getLineBreakEiPKcRKN6MAUtil4RectE;2B.;calculateLine::(19,36):_ZNK4MAUI4Font13calculateLineEiPKcRKN6MAUtil4RectE;2B.;calculateRectOfIndex::(19,37)=#(19,19),(19,35),(19,24),(0,3),(19,27),(19,33),(0,6);:_ZNK4MAUI4Font20calculateRectOfIndexEiPKcRKN6MAUtil4RectE;2B.;drawString::(19,38)=#(19,19),(0,6),(19,21),(19,27),(0,3),(0,3),(0,6);:_ZN4MAUI4Font10drawStringEPKcii;2A.;drawBoundedString::(19,39)=#(19,19),(0,6),(19,21),(19,27),(0,3),(0,3),(19,33),(0,6);:_ZN4MAUI4Font17drawBoundedStringEPKciiRKN6MAUtil4RectE;2A.;getCharset::(19,40)=#(19,19),(19,15),(19,24),(0,6);:_ZNK4MAUI4Font10getCharsetEv;2B.;calcCharPos::(19,41)=#(19,19),(0,6),(19,21),(0,19),(12,34),(12,34),(0,6);:_ZN4MAUI4Font11calcCharPosEcPiS1_;1A.;calcLineBreaks::(19,42)=#(19,19),(0,6),(19,24),(19,27),(0,3),(0,3),(19,33),(0,6);:_ZNK4MAUI4Font14calcLineBreaksEPKciiRKN6MAUtil4RectE;1B.;operator=::(19,43)=#(19,19),(19,44)=&(19,19),(19,21),(19,45)=&(19,25),(0,6);:_ZN4MAUI4FontaSERKS0_;2A.;__base_ctor::(19,46)=#(19,19),(0,6),(19,21),(19,45),(0,6);:_ZN4MAUI4FontC2ERKS0_;2A.;__comp_ctor::(19,46):_ZN4MAUI4FontC1ERKS0_;2A.;;",128,0,70,0
	.stabn	162,0,0,0
	.stabs	"Label::HorizontalAlignment:t(18,1)=eHA_LEFT:0,HA_CENTER:1,HA_RIGHT:2,;",128,0,44,0
	.stabs	"Label::VerticalAlignment:t(18,2)=eVA_TOP:0,VA_CENTER:1,VA_BOTTOM:2,;",128,0,50,0
	.stabs	"BasicString<char>:Tt(10,2)=s4sd:/1(18,3)=*(18,4)=xsStringData<char>:,0,32;__base_ctor::(18,5)=#(10,2),(0,6),(18,6)=*(10,2),(0,6);:_ZN6MAUtil11BasicStringIcEC2Ev;2A.;__comp_ctor::(18,5):_ZN6MAUtil11BasicStringIcEC1Ev;2A.;__base_ctor::(18,7)=#(10,2),(0,6),(18,6),(0,3),(0,6);:_ZN6MAUtil11BasicStringIcEC2Ei;2A.;__comp_ctor::(18,7):_ZN6MAUtil11BasicStringIcEC1Ei;2A.;__base_ctor::(18,8)=#(10,2),(0,6),(18,6),(19,27),(0,6);:_ZN6MAUtil11BasicStringIcEC2EPKc;2A.;__comp_ctor::(18,8):_ZN6MAUtil11BasicStringIcEC1EPKc;2A.;__base_ctor::(18,9)=#(10,2),(0,6),(18,6),(19,27),(0,3),(0,6);:_ZN6MAUtil11BasicStringIcEC2EPKci;2A.;__comp_ctor::(18,9):_ZN6MAUtil11BasicStringIcEC1EPKci;2A.;__base_ctor::(18,10)=#(10,2),(0,6),(18,6),(18,11)=&(18,12)=k(10,2),(0,6);:_ZN6MAUtil11BasicStringIcEC2ERKS1_;2A.;__comp_ctor::(18,10):_ZN6MAUtil11BasicStringIcEC1ERKS1_;2A.;c_str::(18,13)=#(10,2),(19,27),(18,14)=*(18,12),(0,6);:_ZNK6MAUtil11BasicStringIcE5c_strEv;2B.;operator=::(18,15)=#(10,2),(18,16)=&(10,2),(18,6),(18,11),(0,6);:_ZN6MAUtil11BasicStringIcEaSERKS1_;2A.;operator[]::(18,17)=#(10,2),(18,18)=&(0,19),(18,6),(0,3),(0,6);:_ZN6MAUtil11BasicStringIcEixEi;2A.(18,19)=#(10,2),(18,20)=&(19,28),(18,14),(0,3),(0,6);:_ZNK6MAUtil11BasicStringIcEixEi;2B.;operator==::(18,21)=#(10,2),(0,4),(18,14),(18,11),(0,6);:_ZNK6MAUtil11BasicStringIcEeqERKS1_;2B.;operator!=::(18,21):_ZNK6MAUtil11BasicStringIcEneERKS1_;2B.;operator<::(18,21):_ZNK6MAUtil11BasicStringIcEltERKS1_;2B.;operator>::(18,21):_ZNK6MAUtil11BasicStringIcEgtERKS1_;2B.;operator<=::(18,21):_ZNK6MAUtil11BasicStringIcEleERKS1_;2B.;operator>=::(18,21):_ZNK6MAUtil11BasicStringIcEgeERKS1_;2B.;operator+::(18,22)=#(10,2),(10,2),(18,14),(18,11),(0,6);:_ZNK6MAUtil11BasicStringIcEplERKS1_;2B.;operator+=::(18,15):_ZN6MAUtil11BasicStringIcEpLERKS1_;2A.;operator+::(18,23)=#(10,2),(10,2),(18,14),(0,19),(0,6);:_ZNK6MAUtil11BasicStringIcEplEc;2B.;operator+=::(18,24)=#(10,2),(18,16),(18,6),(0,19),(0,6);:_ZN6MAUtil11BasicStringIcEpLEc;2A.;find::(18,25)=#(10,2),(0,3),(18,14),(18,11),(0,17),(0,6);:_ZNK6MAUtil11BasicStringIcE4findERKS1_j;2B.;findLastOf::(18,26)=#(10,2),(0,3),(18,14),(0,19),(0,6);:_ZNK6MAUtil11BasicStringIcE10findLastOfEc;2B.;findFirstOf::(18,27)=#(10,2),(0,3),(18,14),(0,19),(0,3),(0,6);:_ZNK6MAUtil11BasicStringIcE11findFirstOfEci;2B.;findFirstNotOf::(18,27):_ZNK6MAUtil11BasicStringIcE14findFirstNotOfEci;2B.;insert::(18,28)=#(10,2),(0,6),(18,6),(0,3),(18,11),(0,6);:_ZN6MAUtil11BasicStringIcE6insertEiRKS1_;2A.(18,29)=#(10,2),(0,6),(18,6),(0,3),(0,19),(0,6);:_ZN6MAUtil11BasicStringIcE6insertEic;2A.;remove::(18,30)=#(10,2),(0,6),(18,6),(0,3),(0,3),(0,6);:_ZN6MAUtil11BasicStringIcE6removeEii;2A.;substr::(18,31)=#(10,2),(10,2),(18,14),(0,3),(0,3),(0,6);:_ZNK6MAUtil11BasicStringIcE6substrEii;2B.;capacity::(18,32)=#(10,2),(0,3),(18,14),(0,6);:_ZNK6MAUtil11BasicStringIcE8capacityEv;2B.;size::(18,32):_ZNK6MAUtil11BasicStringIcE4sizeEv;2B.;length::(18,32):_ZNK6MAUtil11BasicStringIcE6lengthEv;2B.;resize::(18,7):_ZN6MAUtil11BasicStringIcE6resizeEi;2A.;reserve::(18,7):_ZN6MAUtil11BasicStringIcE7reserveEi;2A.;clear::(18,5):_ZN6MAUtil11BasicStringIcE5clearEv;2A.;append::(18,9):_ZN6MAUtil11BasicStringIcE6appendEPKci;2A.;setData::(18,33)=#(10,2),(0,6),(18,6),(18,3),(0,6);:_ZN6MAUtil11BasicStringIcE7setDataEPNS_10StringDataIcEE;2A.;pointer::(18,34)=#(10,2),(3,5),(18,6),(0,6);:_ZN6MAUtil11BasicStringIcE7pointerEv;2A.;__base_dtor::(18,5):_ZN6MAUtil11BasicStringIcED2Ev;2A.;__comp_dtor::(18,5):_ZN6MAUtil11BasicStringIcED1Ev;2A.;allocStringData::(18,9):_ZN6MAUtil11BasicStringIcE15allocStringDataEPKci;1A.;;",128,0,104,0
	.stabn	162,0,0,0
	.stabs	"C:\\GameCards Core\\GameCards\\MobidexANC\\/XmlConnection.h",130,0,0,0
	.stabs	"c:/Apps/MoSync2.4/include/MAUtil/Connection.h",130,0,0,0
	.stabn	162,0,0,0
	.stabs	"c:/Apps/MoSync2.4/include/MTXml/MTXml.h",130,0,0,0
	.stabs	"MTXContext:t(22,1)=(22,2)=xsMTXContext:",128,0,82,0
	.stabs	"MTXContext:Tt(22,2)=s52encoding:(22,3)=*(22,4)=f(0,6),0,32;tagStart:(22,5)=*(22,6)=f(0,6),32,32;tagAttr:(22,7)=*(22,8)=f(0,6),64,32;tagStartEnd:(22,9)=*(22,10)=f(0,6),96,32;tagData:(22,5),128,32;tagEnd:(22,5),160,32;emptyTagEnd:(22,9),192,32;dataRemains:(22,11)=*(22,12)=f(0,6),224,32;parseError:(22,9),256,32;unicodeCharacter:(22,13)=*(22,14)=f(0,10),288,32;userData:(3,9),320,32;iState:(0,3),352,32;iUtf8:(0,3),384,32;operator=::(22,15)=#(22,2),(22,16)=&(22,2),(22,17)=*(22,2),(22,18)=&(22,19)=k(22,2),(0,6);:_ZN10MTXContextaSERKS_;2A.;__base_ctor::(22,20)=#(22,2),(0,6),(22,17),(22,18),(0,6);:_ZN10MTXContextC2ERKS_;2A.;__comp_ctor::(22,20):_ZN10MTXContextC1ERKS_;2A.;__base_ctor::(22,21)=#(22,2),(0,6),(22,17),(0,6);:_ZN10MTXContextC2Ev;2A.;__comp_ctor::(22,21):_ZN10MTXContextC1Ev;2A.;;",128,0,101,0
	.stabs	"ContextBase:Tt(22,22)=s56mContext:/1(22,1),0,416;mMtx:/1(22,23)=*(22,24)=xsMtxListener:,416,32;stop::(22,25)=#(22,22),(0,6),(22,26)=*(22,22),(0,6);:_ZN3Mtx11ContextBase4stopEv;2A.;initBase::(22,25):_ZN3Mtx11ContextBase8initBaseEv;1A.;operator=::(22,27)=#(22,22),(22,28)=&(22,22),(22,26),(22,29)=&(22,30)=k(22,22),(0,6);:_ZN3Mtx11ContextBaseaSERKS0_;2A.;__base_ctor::(22,31)=#(22,22),(0,6),(22,26),(22,29),(0,6);:_ZN3Mtx11ContextBaseC2ERKS0_;2A.;__comp_ctor::(22,31):_ZN3Mtx11ContextBaseC1ERKS0_;2A.;__base_ctor::(22,32)=#(22,22),(0,6),(22,26),(0,6);:_ZN3Mtx11ContextBaseC2Ev;2A.;__comp_ctor::(22,32):_ZN3Mtx11ContextBaseC1Ev;2A.;;",128,0,362,0
	.stabs	"ContextW:Tt(22,33)=s60!1,020,(22,22);mXml:/0(22,34)=*(22,35)=xsXmlListenerW:,448,32;init::(22,36)=#(22,33),(0,6),(22,37)=*(22,33),(22,23),(22,34),(0,6);:_ZN3Mtx8ContextW4initEPNS_11MtxListenerEPNS_12XmlListenerWE;2A.;feed::(22,38)=#(22,33),(0,4),(22,37),(3,5),(22,39)=*(0,5),(0,6);:_ZN3Mtx8ContextW4feedEPcPw;2A.;operator=::(22,40)=#(22,33),(22,41)=&(22,33),(22,37),(22,42)=&(22,43)=k(22,33),(0,6);:_ZN3Mtx8ContextWaSERKS0_;2A.;__base_ctor::(22,44)=#(22,33),(0,6),(22,37),(22,42),(0,6);:_ZN3Mtx8ContextWC2ERKS0_;2A.;__comp_ctor::(22,44):_ZN3Mtx8ContextWC1ERKS0_;2A.;__base_ctor::(22,45)=#(22,33),(0,6),(22,37),(0,6);:_ZN3Mtx8ContextWC2Ev;2A.;__comp_ctor::(22,45):_ZN3Mtx8ContextWC1Ev;2A.;;",128,0,377,0
	.stabs	"Context:Tt(22,46)=s60!1,020,(22,22);mXml:/0(22,47)=*(22,48)=xsXmlListener:,448,32;init::(22,49)=#(22,46),(0,6),(22,50)=*(22,46),(22,23),(22,47),(0,6);:_ZN3Mtx7Context4initEPNS_11MtxListenerEPNS_11XmlListenerE;2A.;feed::(22,51)=#(22,46),(0,4),(22,50),(3,5),(0,6);:_ZN3Mtx7Context4feedEPc;2A.;feedProcess::(22,51):_ZN3Mtx7Context11feedProcessEPc;2A.;process::(22,52)=#(22,46),(0,3),(22,50),(3,5),(0,6);:_ZN3Mtx7Context7processEPc;2A.;operator=::(22,53)=#(22,46),(22,54)=&(22,46),(22,50),(22,55)=&(22,56)=k(22,46),(0,6);:_ZN3Mtx7ContextaSERKS0_;2A.;__base_ctor::(22,57)=#(22,46),(0,6),(22,50),(22,55),(0,6);:_ZN3Mtx7ContextC2ERKS0_;2A.;__comp_ctor::(22,57):_ZN3Mtx7ContextC1ERKS0_;2A.;__base_ctor::(22,58)=#(22,46),(0,6),(22,50),(0,6);:_ZN3Mtx7ContextC2Ev;2A.;__comp_ctor::(22,58):_ZN3Mtx7ContextC1Ev;2A.;;",128,0,394,0
	.stabn	162,0,0,0
	.stabn	162,0,0,0
	.stabs	"C:\\GameCards Core\\GameCards\\MobidexANC\\/Feed.h",130,0,0,0
	.stabs	"C:\\GameCards Core\\GameCards\\MobidexANC\\/Albums.h",130,0,0,0
	.stabs	"c:/Apps/MoSync2.4/include/MAUtil/Map.h",130,0,0,0
	.stabs	"c:/Apps/MoSync2.4/include/MAUtil/Dictionary.h",130,0,0,0
	.stabs	"c:/Apps/MoSync2.4/include/kazlib/dict.h",130,0,0,0
	.stabs	"dictcount_t:t(27,1)=(0,16)",128,0,39,0
	.stabs	"dnode_color_t:t(27,2)=ednode_red:0,dnode_black:1,;",128,0,46,0
	.stabs	"dnode_t:Tt(27,3)=s24dict_left:(27,4)=*(27,3),0,32;dict_right:(27,4),32,32;dict_parent:(27,4),64,32;dict_color:(27,2),96,32;dict_key:(15,5),128,32;dict_data:(3,9),160,32;operator=::(27,5)=#(27,3),(27,6)=&(27,3),(27,4),(27,7)=&(27,8)=k(27,3),(0,6);:_ZN7dnode_taSERKS_;2A.;__base_ctor::(27,9)=#(27,3),(0,6),(27,4),(27,7),(0,6);:_ZN7dnode_tC2ERKS_;2A.;__comp_ctor::(27,9):_ZN7dnode_tC1ERKS_;2A.;__base_ctor::(27,10)=#(27,3),(0,6),(27,4),(0,6);:_ZN7dnode_tC2Ev;2A.;__comp_ctor::(27,10):_ZN7dnode_tC1Ev;2A.;;",128,0,48,0
	.stabs	"dnode_t:t(27,11)=(27,3)",128,0,59,0
	.stabs	"dict_comp_t:t(27,12)=(15,15)",128,0,61,0
	.stabs	"dnode_alloc_t:t(27,13)=(27,14)=*(27,15)=f(27,16)=*(27,11)",128,0,62,0
	.stabs	"dnode_free_t:t(27,17)=(27,18)=*(27,19)=f(0,6)",128,0,63,0
	.stabs	"dict_t:Tt(27,20)=s52dict_nilnode:(27,11),0,192;dict_nodecount:(27,1),192,32;dict_maxcount:(27,1),224,32;dict_compare:(27,12),256,32;dict_allocnode:(27,13),288,32;dict_freenode:(27,17),320,32;dict_context:(3,9),352,32;dict_dupes:(0,3),384,32;operator=::(27,21)=#(27,20),(27,22)=&(27,20),(27,23)=*(27,20),(27,24)=&(27,25)=k(27,20),(0,6);:_ZN6dict_taSERKS_;2A.;__base_ctor::(27,26)=#(27,20),(0,6),(27,23),(27,24),(0,6);:_ZN6dict_tC2ERKS_;2A.;__comp_ctor::(27,26):_ZN6dict_tC1ERKS_;2A.;__base_ctor::(27,27)=#(27,20),(0,6),(27,23),(0,6);:_ZN6dict_tC2Ev;2A.;__comp_ctor::(27,27):_ZN6dict_tC1Ev;2A.;;",128,0,65,0
	.stabs	"dict_t:t(27,28)=(27,20)",128,0,78,0
	.stabs	"dnode_process_t:t(27,29)=(27,30)=*(27,31)=f(0,6)",128,0,80,0
	.stabs	"dict_load_t:Tt(27,32)=s28dict_dictptr:(27,33)=*(27,28),0,32;dict_nilnode:(27,11),32,192;operator=::(27,34)=#(27,32),(27,35)=&(27,32),(27,36)=*(27,32),(27,37)=&(27,38)=k(27,32),(0,6);:_ZN11dict_load_taSERKS_;2A.;__base_ctor::(27,39)=#(27,32),(0,6),(27,36),(27,37),(0,6);:_ZN11dict_load_tC2ERKS_;2A.;__comp_ctor::(27,39):_ZN11dict_load_tC1ERKS_;2A.;__base_ctor::(27,40)=#(27,32),(0,6),(27,36),(0,6);:_ZN11dict_load_tC2Ev;2A.;__comp_ctor::(27,40):_ZN11dict_load_tC1Ev;2A.;;",128,0,82,0
	.stabs	"dict_load_t:t(27,41)=(27,32)",128,0,89,0
	.stabn	162,0,0,0
	.stabn	162,0,0,0
	.stabn	162,0,0,0
	.stabs	"Dictionary<const MAUtil::BasicString<char>,MAUtil::Pair<const MAUtil::BasicString<char>, MAUtil::BasicString<char> > >:Tt(24,1)=s56mDict:/1(27,28),0,416;mKeyOffset:/1(0,3),416,32;__base_ctor::(24,2)=#(24,1),(0,6),(24,3)=*(24,1),(24,4)=&(24,5)=k(24,1),(0,6);:_ZN6MAUtil10DictionaryIKNS_11BasicStringIcEENS_4PairIS3_S2_EEEC2ERKS6_;2A.;__comp_ctor::(24,2):_ZN6MAUtil10DictionaryIKNS_11BasicStringIcEENS_4PairIS3_S2_EEEC1ERKS6_;2A.;operator=::(24,6)=#(24,1),(24,7)=&(24,1),(24,3),(24,4),(0,6);:_ZN6MAUtil10DictionaryIKNS_11BasicStringIcEENS_4PairIS3_S2_EEEaSERKS6_;2A.;__base_dtor::(24,8)=#(24,1),(0,6),(24,3),(0,6);:_ZN6MAUtil10DictionaryIKNS_11BasicStringIcEENS_4PairIS3_S2_EEED2Ev;2A.;__comp_dtor::(24,8):_ZN6MAUtil10DictionaryIKNS_11BasicStringIcEENS_4PairIS3_S2_EEED1Ev;2A.;find::(24,9)=#(24,1),(24,10)=xsIterator:,(24,3),(24,11)=&(24,12)=k(10,1),(0,6);:_ZN6MAUtil10DictionaryIKNS_11BasicStringIcEENS_4PairIS3_S2_EEE4findERS3_;2A.(24,13)=#(24,1),(24,14)=xsConstIterator:,(24,15)=*(24,5),(24,11),(0,6);:_ZNK6MAUtil10DictionaryIKNS_11BasicStringIcEENS_4PairIS3_S2_EEE4findERS3_;2B.;erase::(24,16)=#(24,1),(0,4),(24,3),(24,11),(0,6);:_ZN6MAUtil10DictionaryIKNS_11BasicStringIcEENS_4PairIS3_S2_EEE5eraseERS3_;2A.(24,17)=#(24,1),(0,6),(24,3),(24,10),(0,6);:_ZN6MAUtil10DictionaryIKNS_11BasicStringIcEENS_4PairIS3_S2_EEE5eraseENS6_8IteratorE;2A.;begin::(24,18)=#(24,1),(24,10),(24,3),(0,6);:_ZN6MAUtil10DictionaryIKNS_11BasicStringIcEENS_4PairIS3_S2_EEE5beginEv;2A.(24,19)=#(24,1),(24,14),(24,15),(0,6);:_ZNK6MAUtil10DictionaryIKNS_11BasicStringIcEENS_4PairIS3_S2_EEE5beginEv;2B.;end::(24,18):_ZN6MAUtil10DictionaryIKNS_11BasicStringIcEENS_4PairIS3_S2_EEE3endEv;2A.(24,19):_ZNK6MAUtil10DictionaryIKNS_11BasicStringIcEENS_4PairIS3_S2_EEE3endEv;2B.;size::(24,20)=#(24,1),(2,1),(24,15),(0,6);:_ZNK6MAUtil10DictionaryIKNS_11BasicStringIcEENS_4PairIS3_S2_EEE4sizeEv;2B.;clear::(24,8):_ZN6MAUtil10DictionaryIKNS_11BasicStringIcEENS_4PairIS3_S2_EEE5clearEv;2A.;init::(24,21)=#(24,1),(0,6),(24,3),(24,22)=*(24,23)=f(0,3),(0,6);:_ZN6MAUtil10DictionaryIKNS_11BasicStringIcEENS_4PairIS3_S2_EEE4initEPFiRS3_S7_E;1A.;__base_ctor::(24,24)=#(24,1),(0,6),(24,3),(24,22),(0,3),(0,6);:_ZN6MAUtil10DictionaryIKNS_11BasicStringIcEENS_4PairIS3_S2_EEEC2EPFiRS3_S7_Ei;1A.;__comp_ctor::(24,24):_ZN6MAUtil10DictionaryIKNS_11BasicStringIcEENS_4PairIS3_S2_EEEC1EPFiRS3_S7_Ei;1A.;insert::(24,25)=#(24,1),(24,26)=xsPair<MAUtil::Dictionary<const MAUtil::BasicString<char>, MAUtil::Pair<const MAUtil::BasicString<char>, MAUtil::BasicString<char> > >::Iterator,bool>:,(24,3),(24,27)=&(24,28)=k(24,29)=xsPair<const MAUtil::BasicString<char>,MAUtil::BasicString<char> >:,(0,6);:_ZN6MAUtil10DictionaryIKNS_11BasicStringIcEENS_4PairIS3_S2_EEE6insertERKS5_;1A.;;",128,0,57,0
	.stabs	"Map<MAUtil::BasicString<char>,MAUtil::BasicString<char> >:Tt(24,30)=s56!1,020,(24,1);__base_ctor::(24,31)=#(24,30),(0,6),(24,32)=*(24,30),(24,22),(0,6);:_ZN6MAUtil3MapINS_11BasicStringIcEES2_EC2EPFiRKS2_S5_E;2A.;__comp_ctor::(24,31):_ZN6MAUtil3MapINS_11BasicStringIcEES2_EC1EPFiRKS2_S5_E;2A.;insert::(24,33)=#(24,30),(24,26),(24,32),(24,11),(24,11),(0,6);:_ZN6MAUtil3MapINS_11BasicStringIcEES2_E6insertERKS2_S5_;2A.;operator[]::(24,34)=#(24,30),(24,35)=&(10,1),(24,32),(24,11),(0,6);:_ZN6MAUtil3MapINS_11BasicStringIcEES2_EixERKS2_;2A.;operator=::(24,36)=#(24,30),(24,37)=&(24,30),(24,32),(24,38)=&(24,39)=k(24,30),(0,6);:_ZN6MAUtil3MapINS_11BasicStringIcEES2_EaSERKS3_;2A.;__base_ctor::(24,40)=#(24,30),(0,6),(24,32),(24,38),(0,6);:_ZN6MAUtil3MapINS_11BasicStringIcEES2_EC2ERKS3_;2A.;__comp_ctor::(24,40):_ZN6MAUtil3MapINS_11BasicStringIcEES2_EC1ERKS3_;2A.;__base_dtor::(24,41)=#(24,30),(0,6),(24,32),(0,6);:_ZN6MAUtil3MapINS_11BasicStringIcEES2_ED2Ev;2A.;__comp_dtor::(24,41):_ZN6MAUtil3MapINS_11BasicStringIcEES2_ED1Ev;2A.;;",128,0,37,0
	.stabs	"Albums:Tt(24,42)=s60album:/0(24,30),0,448;loaded:/0(0,4),448,8;getNames::(24,43)=#(24,42),(24,44)=xsVector<MAUtil::BasicString<char> >:,(24,45)=*(24,42),(0,6);:_ZN6Albums8getNamesEv;2A.;getIDs::(24,43):_ZN6Albums6getIDsEv;2A.;setAll::(24,46)=#(24,42),(0,6),(24,45),(19,27),(0,6);:_ZN6Albums6setAllEPKc;2A.;addAlbum::(24,47)=#(24,42),(0,6),(24,45),(19,27),(19,27),(0,6);:_ZN6Albums8addAlbumEPKcS1_;2A.;removeAlbum::(24,46):_ZN6Albums11removeAlbumEPKc;2A.;getAll::(24,48)=#(24,42),(10,1),(24,45),(0,6);:_ZN6Albums6getAllEv;2A.;getLoaded::(24,49)=#(24,42),(0,4),(24,45),(0,6);:_ZN6Albums9getLoadedEv;2A.;setLoaded::(24,50)=#(24,42),(0,6),(24,45),(0,4),(0,6);:_ZN6Albums9setLoadedEb;2A.;clearAll::(24,51)=#(24,42),(0,6),(24,45),(0,6);:_ZN6Albums8clearAllEv;2A.;size::(24,52)=#(24,42),(0,3),(24,45),(0,6);:_ZN6Albums4sizeEv;2A.;getId::(24,53)=#(24,42),(10,1),(24,45),(10,1),(0,6);:_ZN6Albums5getIdEN6MAUtil11BasicStringIcEE;2A.;operator=::(24,54)=#(24,42),(24,55)=&(24,42),(24,45),(24,56)=&(24,57)=k(24,42),(0,6);:_ZN6AlbumsaSERKS_;2A.;__base_ctor::(24,58)=#(24,42),(0,6),(24,45),(24,56),(0,6);:_ZN6AlbumsC2ERKS_;2A.;__comp_ctor::(24,58):_ZN6AlbumsC1ERKS_;2A.;__base_ctor::(24,51):_ZN6AlbumsC2Ev;2A.;__comp_ctor::(24,51):_ZN6AlbumsC1Ev;2A.;__base_dtor::(24,51):_ZN6AlbumsD2Ev;2A.;__comp_dtor::(24,51):_ZN6AlbumsD1Ev;2A.;;",128,0,10,0
	.stabn	162,0,0,0
	.stabs	"Feed:Tt(23,1)=s84encrypt:/0(10,1),0,32;uname:/0(10,1),32,32;noSuccess:/0(10,1),64,32;touch:/0(10,1),96,32;album:/0(24,45),128,32;real_album:/0(24,42),160,480;touchEnabled:/0(0,4),640,8;loaded:/0(0,4),648,8;setEncrypt::(23,2)=#(23,1),(0,6),(23,3)=*(23,1),(19,27),(0,6);:_ZN4Feed10setEncryptEPKc;2A.;setUsername::(23,2):_ZN4Feed11setUsernameEPKc;2A.;setID::(23,2):_ZN4Feed5setIDEPKc;2A.;setUnsuccessful::(23,2):_ZN4Feed15setUnsuccessfulEPKc;2A.;setAll::(23,2):_ZN4Feed6setAllEPKc;2A.;setLoaded::(23,4)=#(23,1),(0,6),(23,3),(0,4),(0,6);:_ZN4Feed9setLoadedEb;2A.;setAlbum::(23,2):_ZN4Feed8setAlbumEPKc;2A.;setTouch::(23,5)=#(23,1),(0,4),(23,3),(19,27),(0,6);:_ZN4Feed8setTouchEPKc;2A.;setTouchEnabled::(23,6)=#(23,1),(0,4),(23,3),(0,4),(0,6);:_ZN4Feed15setTouchEnabledEb;2A.;getAlbum::(23,7)=#(23,1),(24,45),(23,3),(0,6);:_ZN4Feed8getAlbumEv;2A.;getAlbumString::(23,8)=#(23,1),(10,1),(23,3),(0,6);:_ZN4Feed14getAlbumStringEv;2A.;getEncrypt::(23,8):_ZN4Feed10getEncryptEv;2A.;getUsername::(23,8):_ZN4Feed11getUsernameEv;2A.;getID::(23,8):_ZN4Feed5getIDEv;2A.;getUnsuccessful::(23,8):_ZN4Feed15getUnsuccessfulEv;2A.;getAll::(23,8):_ZN4Feed6getAllEv;2A.;getAlbumNames::(23,9)=#(23,1),(24,44),(23,3),(0,6);:_ZN4Feed13getAlbumNamesEv;2A.;getTouchEnabled::(23,10)=#(23,1),(0,4),(23,3),(0,6);:_ZN4Feed15getTouchEnabledEv;2A.;getTouch::(23,8):_ZN4Feed8getTouchEv;2A.;getLoaded::(23,10):_ZN4Feed9getLoadedEv;2A.;operator=::(23,11)=#(23,1),(23,12)=&(23,1),(23,3),(23,13)=&(23,14)=k(23,1),(0,6);:_ZN4FeedaSERKS_;2A.;__base_ctor::(23,15)=#(23,1),(0,6),(23,3),(23,13),(0,6);:_ZN4FeedC2ERKS_;2A.;__comp_ctor::(23,15):_ZN4FeedC1ERKS_;2A.;__base_ctor::(23,16)=#(23,1),(0,6),(23,3),(0,6);:_ZN4FeedC2Ev;2A.;__comp_ctor::(23,16):_ZN4FeedC1Ev;2A.;__base_dtor::(23,16):_ZN4FeedD2Ev;2A.;__comp_dtor::(23,16):_ZN4FeedD1Ev;2A.;;",128,0,8,0
	.stabn	162,0,0,0
	.stabs	"C:\\GameCards Core\\GameCards\\MobidexANC\\/Card.h",130,0,0,0
	.stabs	"Card:Tt(28,1)=s36quantity:/0(10,1),0,32;text:/0(10,1),32,32;thumb:/0(10,1),64,32;front:/0(10,1),96,32;back:/0(10,1),128,32;id:/0(10,1),160,32;rate:/0(10,1),192,32;value:/0(10,1),224,32;loaded:/0(0,4),256,8;getQuantity::(28,2)=#(28,1),(10,1),(28,3)=*(28,1),(0,6);:_ZN4Card11getQuantityEv;2A.;setQuantity::(28,4)=#(28,1),(0,6),(28,3),(19,27),(0,6);:_ZN4Card11setQuantityEPKc;2A.;getText::(28,2):_ZN4Card7getTextEv;2A.;setText::(28,4):_ZN4Card7setTextEPKc;2A.;getThumb::(28,2):_ZN4Card8getThumbEv;2A.;setThumb::(28,4):_ZN4Card8setThumbEPKc;2A.;getFront::(28,2):_ZN4Card8getFrontEv;2A.;setFront::(28,4):_ZN4Card8setFrontEPKc;2A.;getBack::(28,2):_ZN4Card7getBackEv;2A.;setBack::(28,4):_ZN4Card7setBackEPKc;2A.;getId::(28,2):_ZN4Card5getIdEv;2A.;setId::(28,4):_ZN4Card5setIdEPKc;2A.;getRate::(28,2):_ZN4Card7getRateEv;2A.;setRate::(28,4):_ZN4Card7setRateEPKc;2A.;getValue::(28,2):_ZN4Card8getValueEv;2A.;setValue::(28,4):_ZN4Card8setValueEPKc;2A.;getLoaded::(28,5)=#(28,1),(0,4),(28,3),(0,6);:_ZN4Card9getLoadedEv;2A.;setLoaded::(28,6)=#(28,1),(0,6),(28,3),(0,4),(0,6);:_ZN4Card9setLoadedEb;2A.;getAll::(28,2):_ZN4Card6getAllEv;2A.;setAll::(28,4):_ZN4Card6setAllEPKc;2A.;operator=::(28,7)=#(28,1),(28,8)=&(28,1),(28,3),(28,9)=&(28,10)=k(28,1),(0,6);:_ZN4CardaSERKS_;2A.;__base_ctor::(28,11)=#(28,1),(0,6),(28,3),(28,9),(0,6);:_ZN4CardC2ERKS_;2A.;__comp_ctor::(28,11):_ZN4CardC1ERKS_;2A.;__base_ctor::(28,12)=#(28,1),(0,6),(28,3),(0,6);:_ZN4CardC2Ev;2A.;__comp_ctor::(28,12):_ZN4CardC1Ev;2A.;__base_dtor::(28,12):_ZN4CardD2Ev;2A.;__comp_dtor::(28,12):_ZN4CardD1Ev;2A.;;",128,0,8,0
	.stabn	162,0,0,0
	.stabs	"C:\\GameCards Core\\GameCards\\MobidexANC\\/ImageCache.h",130,0,0,0
	.stabs	"C:\\GameCards Core\\GameCards\\MobidexANC\\/ImageCacheRequest.h",130,0,0,0
	.stabs	"c:/Apps/MoSync2.4/include/MAUI/Image.h",130,0,0,0
	.stabn	162,0,0,0
	.stabs	"ImageCacheRequest:Tt(30,1)=s16card:/0(28,3),0,32;img:/0(30,2)=*(30,3)=xsImage:,32,32;height:/0(0,3),64,32;type:/0(0,3),96,32;__base_ctor::(30,4)=#(30,1),(0,6),(30,5)=*(30,1),(0,6);:_ZN17ImageCacheRequestC2Ev;2A.;__comp_ctor::(30,4):_ZN17ImageCacheRequestC1Ev;2A.;__base_ctor::(30,6)=#(30,1),(0,6),(30,5),(30,2),(28,3),(0,3),(0,3),(0,6);:_ZN17ImageCacheRequestC2EPN4MAUI5ImageEP4Cardii;2A.;__comp_ctor::(30,6):_ZN17ImageCacheRequestC1EPN4MAUI5ImageEP4Cardii;2A.;__base_dtor::(30,4):_ZN17ImageCacheRequestD2Ev;2A.;__comp_dtor::(30,4):_ZN17ImageCacheRequestD1Ev;2A.;getUrl::(30,7)=#(30,1),(10,1),(30,5),(0,6);:_ZN17ImageCacheRequest6getUrlEv;2A.;getSaveName::(30,7):_ZN17ImageCacheRequest11getSaveNameEv;2A.;getImage::(30,8)=#(30,1),(30,2),(30,5),(0,6);:_ZN17ImageCacheRequest8getImageEv;2A.;getHeight::(30,9)=#(30,1),(0,3),(30,5),(0,6);:_ZN17ImageCacheRequest9getHeightEv;2A.;getType::(30,9):_ZN17ImageCacheRequest7getTypeEv;2A.;operator=::(30,10)=#(30,1),(30,11)=&(30,1),(30,5),(30,12)=&(30,13)=k(30,1),(0,6);:_ZN17ImageCacheRequestaSERKS_;2A.;__base_ctor::(30,14)=#(30,1),(0,6),(30,5),(30,12),(0,6);:_ZN17ImageCacheRequestC2ERKS_;2A.;__comp_ctor::(30,14):_ZN17ImageCacheRequestC1ERKS_;2A.;;",128,0,14,0
	.stabn	162,0,0,0
	.stabs	"c:/Apps/MoSync2.4/include/MAUtil/Downloader.h",130,0,0,0
	.stabs	"Vector<MAUtil::DownloadListener*>:Tt(32,1)=s12mSize:/1(0,3),0,32;mCapacity:/1(0,3),32,32;mData:/1(32,2)=*(32,3)=*(32,4)=xsDownloadListener:,64,32;__base_ctor::(32,5)=#(32,1),(0,6),(32,6)=*(32,1),(0,3),(0,6);:_ZN6MAUtil6VectorIPNS_16DownloadListenerEEC2Ei;2A.;__comp_ctor::(32,5):_ZN6MAUtil6VectorIPNS_16DownloadListenerEEC1Ei;2A.;__base_ctor::(32,7)=#(32,1),(0,6),(32,6),(32,8)=&(32,9)=k(32,1),(0,6);:_ZN6MAUtil6VectorIPNS_16DownloadListenerEEC2ERKS3_;2A.;__comp_ctor::(32,7):_ZN6MAUtil6VectorIPNS_16DownloadListenerEEC1ERKS3_;2A.;__base_dtor::(32,10)=#(32,1),(0,6),(32,6),(0,6);:_ZN6MAUtil6VectorIPNS_16DownloadListenerEED2Ev;2A.;__comp_dtor::(32,10):_ZN6MAUtil6VectorIPNS_16DownloadListenerEED1Ev;2A.;operator=::(32,11)=#(32,1),(32,12)=&(32,1),(32,6),(32,8),(0,6);:_ZN6MAUtil6VectorIPNS_16DownloadListenerEEaSERKS3_;2A.;add::(32,13)=#(32,1),(0,6),(32,6),(32,14)=&(32,15)=k(32,3),(0,6);:_ZN6MAUtil6VectorIPNS_16DownloadListenerEE3addERKS2_;2A.(32,16)=#(32,1),(0,6),(32,6),(32,17)=*(32,15),(0,3),(0,6);:_ZN6MAUtil6VectorIPNS_16DownloadListenerEE3addEPKS2_i;2A.;remove::(32,18)=#(32,1),(0,6),(32,6),(32,2),(0,6);:_ZN6MAUtil6VectorIPNS_16DownloadListenerEE6removeEPS2_;2A.(32,19)=#(32,1),(0,6),(32,6),(0,3),(0,6);:_ZN6MAUtil6VectorIPNS_16DownloadListenerEE6removeEi;2A.(32,20)=#(32,1),(0,6),(32,6),(0,3),(0,3),(0,6);:_ZN6MAUtil6VectorIPNS_16DownloadListenerEE6removeEii;2A.;insert::(32,21)=#(32,1),(0,6),(32,6),(0,3),(32,3),(0,6);:_ZN6MAUtil6VectorIPNS_16DownloadListenerEE6insertEiS2_;2A.;size::(32,22)=#(32,1),(0,3),(32,23)=*(32,9),(0,6);:_ZNK6MAUtil6VectorIPNS_16DownloadListenerEE4sizeEv;2B.;resize::(32,19):_ZN6MAUtil6VectorIPNS_16DownloadListenerEE6resizeEi;2A.;reserve::(32,19):_ZN6MAUtil6VectorIPNS_16DownloadListenerEE7reserveEi;2A.;clear::(32,10):_ZN6MAUtil6VectorIPNS_16DownloadListenerEE5clearEv;2A.;empty::(32,24)=#(32,1),(0,4),(32,23),(0,6);:_ZNK6MAUtil6VectorIPNS_16DownloadListenerEE5emptyEv;2B.;capacity::(32,22):_ZNK6MAUtil6VectorIPNS_16DownloadListenerEE8capacityEv;2B.;begin::(32,25)=#(32,1),(32,2),(32,6),(0,6);:_ZN6MAUtil6VectorIPNS_16DownloadListenerEE5beginEv;2A.;end::(32,25):_ZN6MAUtil6VectorIPNS_16DownloadListenerEE3endEv;2A.;begin::(32,26)=#(32,1),(32,17),(32,23),(0,6);:_ZNK6MAUtil6VectorIPNS_16DownloadListenerEE5beginEv;2B.;end::(32,26):_ZNK6MAUtil6VectorIPNS_16DownloadListenerEE3endEv;2B.;operator[]::(32,27)=#(32,1),(32,28)=&(32,3),(32,6),(0,3),(0,6);:_ZN6MAUtil6VectorIPNS_16DownloadListenerEEixEi;2A.(32,29)=#(32,1),(32,14),(32,23),(0,3),(0,6);:_ZNK6MAUtil6VectorIPNS_16DownloadListenerEEixEi;2B.;pointer::(32,26):_ZNK6MAUtil6VectorIPNS_16DownloadListenerEE7pointerEv;2B.(32,25):_ZN6MAUtil6VectorIPNS_16DownloadListenerEE7pointerEv;2A.;;",128,0,94,0
	.stabs	"Vector<MAHandle>:Tt(32,30)=s12mSize:/1(0,3),0,32;mCapacity:/1(0,3),32,32;mData:/1(32,31)=*(3,10),64,32;__base_ctor::(32,32)=#(32,30),(0,6),(32,33)=*(32,30),(0,3),(0,6);:_ZN6MAUtil6VectorIiEC2Ei;2A.;__comp_ctor::(32,32):_ZN6MAUtil6VectorIiEC1Ei;2A.;__base_ctor::(32,34)=#(32,30),(0,6),(32,33),(32,35)=&(32,36)=k(32,30),(0,6);:_ZN6MAUtil6VectorIiEC2ERKS1_;2A.;__comp_ctor::(32,34):_ZN6MAUtil6VectorIiEC1ERKS1_;2A.;__base_dtor::(32,37)=#(32,30),(0,6),(32,33),(0,6);:_ZN6MAUtil6VectorIiED2Ev;2A.;__comp_dtor::(32,37):_ZN6MAUtil6VectorIiED1Ev;2A.;operator=::(32,38)=#(32,30),(32,39)=&(32,30),(32,33),(32,35),(0,6);:_ZN6MAUtil6VectorIiEaSERKS1_;2A.;add::(32,40)=#(32,30),(0,6),(32,33),(32,41)=&(32,42)=k(3,10),(0,6);:_ZN6MAUtil6VectorIiE3addERKi;2A.(32,43)=#(32,30),(0,6),(32,33),(32,44)=*(32,42),(0,3),(0,6);:_ZN6MAUtil6VectorIiE3addEPKii;2A.;remove::(32,45)=#(32,30),(0,6),(32,33),(32,31),(0,6);:_ZN6MAUtil6VectorIiE6removeEPi;2A.(32,46)=#(32,30),(0,6),(32,33),(0,3),(0,6);:_ZN6MAUtil6VectorIiE6removeEi;2A.(32,47)=#(32,30),(0,6),(32,33),(0,3),(0,3),(0,6);:_ZN6MAUtil6VectorIiE6removeEii;2A.;insert::(32,47):_ZN6MAUtil6VectorIiE6insertEii;2A.;size::(32,48)=#(32,30),(0,3),(32,49)=*(32,36),(0,6);:_ZNK6MAUtil6VectorIiE4sizeEv;2B.;resize::(32,46):_ZN6MAUtil6VectorIiE6resizeEi;2A.;reserve::(32,46):_ZN6MAUtil6VectorIiE7reserveEi;2A.;clear::(32,37):_ZN6MAUtil6VectorIiE5clearEv;2A.;empty::(32,50)=#(32,30),(0,4),(32,49),(0,6);:_ZNK6MAUtil6VectorIiE5emptyEv;2B.;capacity::(32,48):_ZNK6MAUtil6VectorIiE8capacityEv;2B.;begin::(32,51)=#(32,30),(32,31),(32,33),(0,6);:_ZN6MAUtil6VectorIiE5beginEv;2A.;end::(32,51):_ZN6MAUtil6VectorIiE3endEv;2A.;begin::(32,52)=#(32,30),(32,44),(32,49),(0,6);:_ZNK6MAUtil6VectorIiE5beginEv;2B.;end::(32,52):_ZNK6MAUtil6VectorIiE3endEv;2B.;operator[]::(32,53)=#(32,30),(32,54)=&(3,10),(32,33),(0,3),(0,6);:_ZN6MAUtil6VectorIiEixEi;2A.(32,55)=#(32,30),(32,41),(32,49),(0,3),(0,6);:_ZNK6MAUtil6VectorIiEixEi;2B.;pointer::(32,52):_ZNK6MAUtil6VectorIiE7pointerEv;2B.(32,51):_ZN6MAUtil6VectorIiE7pointerEv;2A.;;",128,0,94,0
	.stabn	162,0,0,0
	.stabs	"Vector<ImageCacheRequest*>:Tt(29,1)=s12mSize:/1(0,3),0,32;mCapacity:/1(0,3),32,32;mData:/1(29,2)=*(30,5),64,32;__base_ctor::(29,3)=#(29,1),(0,6),(29,4)=*(29,1),(0,3),(0,6);:_ZN6MAUtil6VectorIP17ImageCacheRequestEC2Ei;2A.;__comp_ctor::(29,3):_ZN6MAUtil6VectorIP17ImageCacheRequestEC1Ei;2A.;__base_ctor::(29,5)=#(29,1),(0,6),(29,4),(29,6)=&(29,7)=k(29,1),(0,6);:_ZN6MAUtil6VectorIP17ImageCacheRequestEC2ERKS3_;2A.;__comp_ctor::(29,5):_ZN6MAUtil6VectorIP17ImageCacheRequestEC1ERKS3_;2A.;__base_dtor::(29,8)=#(29,1),(0,6),(29,4),(0,6);:_ZN6MAUtil6VectorIP17ImageCacheRequestED2Ev;2A.;__comp_dtor::(29,8):_ZN6MAUtil6VectorIP17ImageCacheRequestED1Ev;2A.;operator=::(29,9)=#(29,1),(29,10)=&(29,1),(29,4),(29,6),(0,6);:_ZN6MAUtil6VectorIP17ImageCacheRequestEaSERKS3_;2A.;add::(29,11)=#(29,1),(0,6),(29,4),(29,12)=&(29,13)=k(30,5),(0,6);:_ZN6MAUtil6VectorIP17ImageCacheRequestE3addERKS2_;2A.(29,14)=#(29,1),(0,6),(29,4),(29,15)=*(29,13),(0,3),(0,6);:_ZN6MAUtil6VectorIP17ImageCacheRequestE3addEPKS2_i;2A.;remove::(29,16)=#(29,1),(0,6),(29,4),(29,2),(0,6);:_ZN6MAUtil6VectorIP17ImageCacheRequestE6removeEPS2_;2A.(29,17)=#(29,1),(0,6),(29,4),(0,3),(0,6);:_ZN6MAUtil6VectorIP17ImageCacheRequestE6removeEi;2A.(29,18)=#(29,1),(0,6),(29,4),(0,3),(0,3),(0,6);:_ZN6MAUtil6VectorIP17ImageCacheRequestE6removeEii;2A.;insert::(29,19)=#(29,1),(0,6),(29,4),(0,3),(30,5),(0,6);:_ZN6MAUtil6VectorIP17ImageCacheRequestE6insertEiS2_;2A.;size::(29,20)=#(29,1),(0,3),(29,21)=*(29,7),(0,6);:_ZNK6MAUtil6VectorIP17ImageCacheRequestE4sizeEv;2B.;resize::(29,17):_ZN6MAUtil6VectorIP17ImageCacheRequestE6resizeEi;2A.;reserve::(29,17):_ZN6MAUtil6VectorIP17ImageCacheRequestE7reserveEi;2A.;clear::(29,8):_ZN6MAUtil6VectorIP17ImageCacheRequestE5clearEv;2A.;empty::(29,22)=#(29,1),(0,4),(29,21),(0,6);:_ZNK6MAUtil6VectorIP17ImageCacheRequestE5emptyEv;2B.;capacity::(29,20):_ZNK6MAUtil6VectorIP17ImageCacheRequestE8capacityEv;2B.;begin::(29,23)=#(29,1),(29,2),(29,4),(0,6);:_ZN6MAUtil6VectorIP17ImageCacheRequestE5beginEv;2A.;end::(29,23):_ZN6MAUtil6VectorIP17ImageCacheRequestE3endEv;2A.;begin::(29,24)=#(29,1),(29,15),(29,21),(0,6);:_ZNK6MAUtil6VectorIP17ImageCacheRequestE5beginEv;2B.;end::(29,24):_ZNK6MAUtil6VectorIP17ImageCacheRequestE3endEv;2B.;operator[]::(29,25)=#(29,1),(29,26)=&(30,5),(29,4),(0,3),(0,6);:_ZN6MAUtil6VectorIP17ImageCacheRequestEixEi;2A.(29,27)=#(29,1),(29,12),(29,21),(0,3),(0,6);:_ZNK6MAUtil6VectorIP17ImageCacheRequestEixEi;2B.;pointer::(29,24):_ZNK6MAUtil6VectorIP17ImageCacheRequestE7pointerEv;2B.(29,23):_ZN6MAUtil6VectorIP17ImageCacheRequestE7pointerEv;2A.;;",128,0,94,0
	.stabn	162,0,0,0
	.stabs	"C:\\GameCards Core\\GameCards\\MobidexANC\\/UI/KineticListBox.h",130,0,0,0
	.stabs	"c:/Apps/MoSync2.4/include/MAUI/Engine.h",130,0,0,0
	.stabn	162,0,0,0
	.stabs	"KineticListBox::KineticListBoxOrientation:t(33,1)=eLBO_HORIZONTAL:0,LBO_VERTICAL:1,;",128,0,51,0
	.stabs	"KineticListBox::KineticListBoxAnimationType:t(33,2)=eLBA_NONE:0,LBA_LINEAR:1,;",128,0,56,0
	.stabs	"Vector<MAUI::KineticListBoxListener*>:Tt(33,3)=s12mSize:/1(0,3),0,32;mCapacity:/1(0,3),32,32;mData:/1(33,4)=*(33,5)=*(33,6)=xsKineticListBoxListener:,64,32;__base_ctor::(33,7)=#(33,3),(0,6),(33,8)=*(33,3),(0,3),(0,6);:_ZN6MAUtil6VectorIPN4MAUI22KineticListBoxListenerEEC2Ei;2A.;__comp_ctor::(33,7):_ZN6MAUtil6VectorIPN4MAUI22KineticListBoxListenerEEC1Ei;2A.;__base_ctor::(33,9)=#(33,3),(0,6),(33,8),(33,10)=&(33,11)=k(33,3),(0,6);:_ZN6MAUtil6VectorIPN4MAUI22KineticListBoxListenerEEC2ERKS4_;2A.;__comp_ctor::(33,9):_ZN6MAUtil6VectorIPN4MAUI22KineticListBoxListenerEEC1ERKS4_;2A.;__base_dtor::(33,12)=#(33,3),(0,6),(33,8),(0,6);:_ZN6MAUtil6VectorIPN4MAUI22KineticListBoxListenerEED2Ev;2A.;__comp_dtor::(33,12):_ZN6MAUtil6VectorIPN4MAUI22KineticListBoxListenerEED1Ev;2A.;operator=::(33,13)=#(33,3),(33,14)=&(33,3),(33,8),(33,10),(0,6);:_ZN6MAUtil6VectorIPN4MAUI22KineticListBoxListenerEEaSERKS4_;2A.;add::(33,15)=#(33,3),(0,6),(33,8),(33,16)=&(33,17)=k(33,5),(0,6);:_ZN6MAUtil6VectorIPN4MAUI22KineticListBoxListenerEE3addERKS3_;2A.(33,18)=#(33,3),(0,6),(33,8),(33,19)=*(33,17),(0,3),(0,6);:_ZN6MAUtil6VectorIPN4MAUI22KineticListBoxListenerEE3addEPKS3_i;2A.;remove::(33,20)=#(33,3),(0,6),(33,8),(33,4),(0,6);:_ZN6MAUtil6VectorIPN4MAUI22KineticListBoxListenerEE6removeEPS3_;2A.(33,21)=#(33,3),(0,6),(33,8),(0,3),(0,6);:_ZN6MAUtil6VectorIPN4MAUI22KineticListBoxListenerEE6removeEi;2A.(33,22)=#(33,3),(0,6),(33,8),(0,3),(0,3),(0,6);:_ZN6MAUtil6VectorIPN4MAUI22KineticListBoxListenerEE6removeEii;2A.;insert::(33,23)=#(33,3),(0,6),(33,8),(0,3),(33,5),(0,6);:_ZN6MAUtil6VectorIPN4MAUI22KineticListBoxListenerEE6insertEiS3_;2A.;size::(33,24)=#(33,3),(0,3),(33,25)=*(33,11),(0,6);:_ZNK6MAUtil6VectorIPN4MAUI22KineticListBoxListenerEE4sizeEv;2B.;resize::(33,21):_ZN6MAUtil6VectorIPN4MAUI22KineticListBoxListenerEE6resizeEi;2A.;reserve::(33,21):_ZN6MAUtil6VectorIPN4MAUI22KineticListBoxListenerEE7reserveEi;2A.;clear::(33,12):_ZN6MAUtil6VectorIPN4MAUI22KineticListBoxListenerEE5clearEv;2A.;empty::(33,26)=#(33,3),(0,4),(33,25),(0,6);:_ZNK6MAUtil6VectorIPN4MAUI22KineticListBoxListenerEE5emptyEv;2B.;capacity::(33,24):_ZNK6MAUtil6VectorIPN4MAUI22KineticListBoxListenerEE8capacityEv;2B.;begin::(33,27)=#(33,3),(33,4),(33,8),(0,6);:_ZN6MAUtil6VectorIPN4MAUI22KineticListBoxListenerEE5beginEv;2A.;end::(33,27):_ZN6MAUtil6VectorIPN4MAUI22KineticListBoxListenerEE3endEv;2A.;begin::(33,28)=#(33,3),(33,19),(33,25),(0,6);:_ZNK6MAUtil6VectorIPN4MAUI22KineticListBoxListenerEE5beginEv;2B.;end::(33,28):_ZNK6MAUtil6VectorIPN4MAUI22KineticListBoxListenerEE3endEv;2B.;operator[]::(33,29)=#(33,3),(33,30)=&(33,5),(33,8),(0,3),(0,6);:_ZN6MAUtil6VectorIPN4MAUI22KineticListBoxListenerEEixEi;2A.(33,31)=#(33,3),(33,16),(33,25),(0,3),(0,6);:_ZNK6MAUtil6VectorIPN4MAUI22KineticListBoxListenerEEixEi;2B.;pointer::(33,28):_ZNK6MAUtil6VectorIPN4MAUI22KineticListBoxListenerEE7pointerEv;2B.(33,27):_ZN6MAUtil6VectorIPN4MAUI22KineticListBoxListenerEE7pointerEv;2A.;;",128,0,94,0
	.stabs	"Vector<MAUtil::Point>:Tt(33,32)=s12mSize:/1(0,3),0,32;mCapacity:/1(0,3),32,32;mData:/1(11,3),64,32;__base_ctor::(33,33)=#(33,32),(0,6),(33,34)=*(33,32),(0,3),(0,6);:_ZN6MAUtil6VectorINS_5PointEEC2Ei;2A.;__comp_ctor::(33,33):_ZN6MAUtil6VectorINS_5PointEEC1Ei;2A.;__base_ctor::(33,35)=#(33,32),(0,6),(33,34),(33,36)=&(33,37)=k(33,32),(0,6);:_ZN6MAUtil6VectorINS_5PointEEC2ERKS2_;2A.;__comp_ctor::(33,35):_ZN6MAUtil6VectorINS_5PointEEC1ERKS2_;2A.;__base_dtor::(33,38)=#(33,32),(0,6),(33,34),(0,6);:_ZN6MAUtil6VectorINS_5PointEED2Ev;2A.;__comp_dtor::(33,38):_ZN6MAUtil6VectorINS_5PointEED1Ev;2A.;operator=::(33,39)=#(33,32),(33,40)=&(33,32),(33,34),(33,36),(0,6);:_ZN6MAUtil6VectorINS_5PointEEaSERKS2_;2A.;add::(33,41)=#(33,32),(0,6),(33,34),(11,7),(0,6);:_ZN6MAUtil6VectorINS_5PointEE3addERKS1_;2A.(33,42)=#(33,32),(0,6),(33,34),(33,43)=*(11,8),(0,3),(0,6);:_ZN6MAUtil6VectorINS_5PointEE3addEPKS1_i;2A.;remove::(33,44)=#(33,32),(0,6),(33,34),(11,3),(0,6);:_ZN6MAUtil6VectorINS_5PointEE6removeEPS1_;2A.(33,45)=#(33,32),(0,6),(33,34),(0,3),(0,6);:_ZN6MAUtil6VectorINS_5PointEE6removeEi;2A.(33,46)=#(33,32),(0,6),(33,34),(0,3),(0,3),(0,6);:_ZN6MAUtil6VectorINS_5PointEE6removeEii;2A.;insert::(33,47)=#(33,32),(0,6),(33,34),(0,3),(11,1),(0,6);:_ZN6MAUtil6VectorINS_5PointEE6insertEiS1_;2A.;size::(33,48)=#(33,32),(0,3),(33,49)=*(33,37),(0,6);:_ZNK6MAUtil6VectorINS_5PointEE4sizeEv;2B.;resize::(33,45):_ZN6MAUtil6VectorINS_5PointEE6resizeEi;2A.;reserve::(33,45):_ZN6MAUtil6VectorINS_5PointEE7reserveEi;2A.;clear::(33,38):_ZN6MAUtil6VectorINS_5PointEE5clearEv;2A.;empty::(33,50)=#(33,32),(0,4),(33,49),(0,6);:_ZNK6MAUtil6VectorINS_5PointEE5emptyEv;2B.;capacity::(33,48):_ZNK6MAUtil6VectorINS_5PointEE8capacityEv;2B.;begin::(33,51)=#(33,32),(11,3),(33,34),(0,6);:_ZN6MAUtil6VectorINS_5PointEE5beginEv;2A.;end::(33,51):_ZN6MAUtil6VectorINS_5PointEE3endEv;2A.;begin::(33,52)=#(33,32),(33,43),(33,49),(0,6);:_ZNK6MAUtil6VectorINS_5PointEE5beginEv;2B.;end::(33,52):_ZNK6MAUtil6VectorINS_5PointEE3endEv;2B.;operator[]::(33,53)=#(33,32),(11,6),(33,34),(0,3),(0,6);:_ZN6MAUtil6VectorINS_5PointEEixEi;2A.(33,54)=#(33,32),(11,7),(33,49),(0,3),(0,6);:_ZNK6MAUtil6VectorINS_5PointEEixEi;2B.;pointer::(33,52):_ZNK6MAUtil6VectorINS_5PointEE7pointerEv;2B.(33,51):_ZN6MAUtil6VectorINS_5PointEE7pointerEv;2A.;;",128,0,94,0
	.stabs	"Vector<float>:Tt(33,55)=s12mSize:/1(0,3),0,32;mCapacity:/1(0,3),32,32;mData:/1(33,56)=*(0,9),64,32;__base_ctor::(33,57)=#(33,55),(0,6),(33,58)=*(33,55),(0,3),(0,6);:_ZN6MAUtil6VectorIfEC2Ei;2A.;__comp_ctor::(33,57):_ZN6MAUtil6VectorIfEC1Ei;2A.;__base_ctor::(33,59)=#(33,55),(0,6),(33,58),(33,60)=&(33,61)=k(33,55),(0,6);:_ZN6MAUtil6VectorIfEC2ERKS1_;2A.;__comp_ctor::(33,59):_ZN6MAUtil6VectorIfEC1ERKS1_;2A.;__base_dtor::(33,62)=#(33,55),(0,6),(33,58),(0,6);:_ZN6MAUtil6VectorIfED2Ev;2A.;__comp_dtor::(33,62):_ZN6MAUtil6VectorIfED1Ev;2A.;operator=::(33,63)=#(33,55),(33,64)=&(33,55),(33,58),(33,60),(0,6);:_ZN6MAUtil6VectorIfEaSERKS1_;2A.;add::(33,65)=#(33,55),(0,6),(33,58),(33,66)=&(33,67)=k(0,9),(0,6);:_ZN6MAUtil6VectorIfE3addERKf;2A.(33,68)=#(33,55),(0,6),(33,58),(33,69)=*(33,67),(0,3),(0,6);:_ZN6MAUtil6VectorIfE3addEPKfi;2A.;remove::(33,70)=#(33,55),(0,6),(33,58),(33,56),(0,6);:_ZN6MAUtil6VectorIfE6removeEPf;2A.(33,71)=#(33,55),(0,6),(33,58),(0,3),(0,6);:_ZN6MAUtil6VectorIfE6removeEi;2A.(33,72)=#(33,55),(0,6),(33,58),(0,3),(0,3),(0,6);:_ZN6MAUtil6VectorIfE6removeEii;2A.;insert::(33,73)=#(33,55),(0,6),(33,58),(0,3),(0,9),(0,6);:_ZN6MAUtil6VectorIfE6insertEif;2A.;size::(33,74)=#(33,55),(0,3),(33,75)=*(33,61),(0,6);:_ZNK6MAUtil6VectorIfE4sizeEv;2B.;resize::(33,71):_ZN6MAUtil6VectorIfE6resizeEi;2A.;reserve::(33,71):_ZN6MAUtil6VectorIfE7reserveEi;2A.;clear::(33,62):_ZN6MAUtil6VectorIfE5clearEv;2A.;empty::(33,76)=#(33,55),(0,4),(33,75),(0,6);:_ZNK6MAUtil6VectorIfE5emptyEv;2B.;capacity::(33,74):_ZNK6MAUtil6VectorIfE8capacityEv;2B.;begin::(33,77)=#(33,55),(33,56),(33,58),(0,6);:_ZN6MAUtil6VectorIfE5beginEv;2A.;end::(33,77):_ZN6MAUtil6VectorIfE3endEv;2A.;begin::(33,78)=#(33,55),(33,69),(33,75),(0,6);:_ZNK6MAUtil6VectorIfE5beginEv;2B.;end::(33,78):_ZNK6MAUtil6VectorIfE3endEv;2B.;operator[]::(33,79)=#(33,55),(33,80)=&(0,9),(33,58),(0,3),(0,6);:_ZN6MAUtil6VectorIfEixEi;2A.(33,81)=#(33,55),(33,66),(33,75),(0,3),(0,6);:_ZNK6MAUtil6VectorIfEixEi;2B.;pointer::(33,78):_ZNK6MAUtil6VectorIfE7pointerEv;2B.(33,77):_ZN6MAUtil6VectorIfE7pointerEv;2A.;;",128,0,94,0
	.stabn	162,0,0,0
	.stabs	"Dictionary<const MAUtil::BasicString<char>,MAUtil::Pair<const MAUtil::BasicString<char>, Card> >:Tt(6,1)=s56mDict:/1(27,28),0,416;mKeyOffset:/1(0,3),416,32;__base_ctor::(6,2)=#(6,1),(0,6),(6,3)=*(6,1),(6,4)=&(6,5)=k(6,1),(0,6);:_ZN6MAUtil10DictionaryIKNS_11BasicStringIcEENS_4PairIS3_4CardEEEC2ERKS7_;2A.;__comp_ctor::(6,2):_ZN6MAUtil10DictionaryIKNS_11BasicStringIcEENS_4PairIS3_4CardEEEC1ERKS7_;2A.;operator=::(6,6)=#(6,1),(6,7)=&(6,1),(6,3),(6,4),(0,6);:_ZN6MAUtil10DictionaryIKNS_11BasicStringIcEENS_4PairIS3_4CardEEEaSERKS7_;2A.;__base_dtor::(6,8)=#(6,1),(0,6),(6,3),(0,6);:_ZN6MAUtil10DictionaryIKNS_11BasicStringIcEENS_4PairIS3_4CardEEED2Ev;2A.;__comp_dtor::(6,8):_ZN6MAUtil10DictionaryIKNS_11BasicStringIcEENS_4PairIS3_4CardEEED1Ev;2A.;find::(6,9)=#(6,1),(6,10)=xsIterator:,(6,3),(24,11),(0,6);:_ZN6MAUtil10DictionaryIKNS_11BasicStringIcEENS_4PairIS3_4CardEEE4findERS3_;2A.(6,11)=#(6,1),(6,12)=xsConstIterator:,(6,13)=*(6,5),(24,11),(0,6);:_ZNK6MAUtil10DictionaryIKNS_11BasicStringIcEENS_4PairIS3_4CardEEE4findERS3_;2B.;erase::(6,14)=#(6,1),(0,4),(6,3),(24,11),(0,6);:_ZN6MAUtil10DictionaryIKNS_11BasicStringIcEENS_4PairIS3_4CardEEE5eraseERS3_;2A.(6,15)=#(6,1),(0,6),(6,3),(6,10),(0,6);:_ZN6MAUtil10DictionaryIKNS_11BasicStringIcEENS_4PairIS3_4CardEEE5eraseENS7_8IteratorE;2A.;begin::(6,16)=#(6,1),(6,10),(6,3),(0,6);:_ZN6MAUtil10DictionaryIKNS_11BasicStringIcEENS_4PairIS3_4CardEEE5beginEv;2A.(6,17)=#(6,1),(6,12),(6,13),(0,6);:_ZNK6MAUtil10DictionaryIKNS_11BasicStringIcEENS_4PairIS3_4CardEEE5beginEv;2B.;end::(6,16):_ZN6MAUtil10DictionaryIKNS_11BasicStringIcEENS_4PairIS3_4CardEEE3endEv;2A.(6,17):_ZNK6MAUtil10DictionaryIKNS_11BasicStringIcEENS_4PairIS3_4CardEEE3endEv;2B.;size::(6,18)=#(6,1),(2,1),(6,13),(0,6);:_ZNK6MAUtil10DictionaryIKNS_11BasicStringIcEENS_4PairIS3_4CardEEE4sizeEv;2B.;clear::(6,8):_ZN6MAUtil10DictionaryIKNS_11BasicStringIcEENS_4PairIS3_4CardEEE5clearEv;2A.;init::(6,19)=#(6,1),(0,6),(6,3),(24,22),(0,6);:_ZN6MAUtil10DictionaryIKNS_11BasicStringIcEENS_4PairIS3_4CardEEE4initEPFiRS3_S8_E;1A.;__base_ctor::(6,20)=#(6,1),(0,6),(6,3),(24,22),(0,3),(0,6);:_ZN6MAUtil10DictionaryIKNS_11BasicStringIcEENS_4PairIS3_4CardEEEC2EPFiRS3_S8_Ei;1A.;__comp_ctor::(6,20):_ZN6MAUtil10DictionaryIKNS_11BasicStringIcEENS_4PairIS3_4CardEEEC1EPFiRS3_S8_Ei;1A.;insert::(6,21)=#(6,1),(6,22)=xsPair<MAUtil::Dictionary<const MAUtil::BasicString<char>, MAUtil::Pair<const MAUtil::BasicString<char>, Card> >::Iterator,bool>:,(6,3),(6,23)=&(6,24)=k(6,25)=xsPair<const MAUtil::BasicString<char>,Card>:,(0,6);:_ZN6MAUtil10DictionaryIKNS_11BasicStringIcEENS_4PairIS3_4CardEEE6insertERKS6_;1A.;;",128,0,57,0
	.stabs	"Map<MAUtil::BasicString<char>,Card>:Tt(6,26)=s56!1,020,(6,1);__base_ctor::(6,27)=#(6,26),(0,6),(6,28)=*(6,26),(24,22),(0,6);:_ZN6MAUtil3MapINS_11BasicStringIcEE4CardEC2EPFiRKS2_S6_E;2A.;__comp_ctor::(6,27):_ZN6MAUtil3MapINS_11BasicStringIcEE4CardEC1EPFiRKS2_S6_E;2A.;insert::(6,29)=#(6,26),(6,22),(6,28),(24,11),(28,9),(0,6);:_ZN6MAUtil3MapINS_11BasicStringIcEE4CardE6insertERKS2_RKS3_;2A.;operator[]::(6,30)=#(6,26),(28,8),(6,28),(24,11),(0,6);:_ZN6MAUtil3MapINS_11BasicStringIcEE4CardEixERKS2_;2A.;operator=::(6,31)=#(6,26),(6,32)=&(6,26),(6,28),(6,33)=&(6,34)=k(6,26),(0,6);:_ZN6MAUtil3MapINS_11BasicStringIcEE4CardEaSERKS4_;2A.;__base_ctor::(6,35)=#(6,26),(0,6),(6,28),(6,33),(0,6);:_ZN6MAUtil3MapINS_11BasicStringIcEE4CardEC2ERKS4_;2A.;__comp_ctor::(6,35):_ZN6MAUtil3MapINS_11BasicStringIcEE4CardEC1ERKS4_;2A.;__base_dtor::(6,36)=#(6,26),(0,6),(6,28),(0,6);:_ZN6MAUtil3MapINS_11BasicStringIcEE4CardED2Ev;2A.;__comp_dtor::(6,36):_ZN6MAUtil3MapINS_11BasicStringIcEE4CardED1Ev;2A.;;",128,0,37,0
	.stabs	"Dictionary<const MAUtil::BasicString<char>,MAUtil::Pair<const MAUtil::BasicString<char>, Card> >::Iterator:Tt(6,10)=s8mNode:/1(6,37)=*(6,38)=xsDictNode:,0,32;mDict:/1(27,33),32,32;operator*::(6,39)=#(6,10),(6,40)=&(6,25),(6,41)=*(6,10),(0,6);:_ZN6MAUtil10DictionaryIKNS_11BasicStringIcEENS_4PairIS3_4CardEEE8IteratordeEv;2A.;operator->::(6,42)=#(6,10),(6,43)=*(6,25),(6,41),(0,6);:_ZN6MAUtil10DictionaryIKNS_11BasicStringIcEENS_4PairIS3_4CardEEE8IteratorptEv;2A.;operator++::(6,44)=#(6,10),(6,45)=&(6,10),(6,41),(0,6);:_ZN6MAUtil10DictionaryIKNS_11BasicStringIcEENS_4PairIS3_4CardEEE8IteratorppEv;2A.(6,46)=#(6,10),(6,10),(6,41),(0,3),(0,6);:_ZN6MAUtil10DictionaryIKNS_11BasicStringIcEENS_4PairIS3_4CardEEE8IteratorppEi;2A.;operator--::(6,44):_ZN6MAUtil10DictionaryIKNS_11BasicStringIcEENS_4PairIS3_4CardEEE8IteratormmEv;2A.(6,46):_ZN6MAUtil10DictionaryIKNS_11BasicStringIcEENS_4PairIS3_4CardEEE8IteratormmEi;2A.;operator==::(6,47)=#(6,10),(0,4),(6,48)=*(6,49)=k(6,10),(6,50)=&(6,49),(0,6);:_ZNK6MAUtil10DictionaryIKNS_11BasicStringIcEENS_4PairIS3_4CardEEE8IteratoreqERKS8_;2B.;operator!=::(6,47):_ZNK6MAUtil10DictionaryIKNS_11BasicStringIcEENS_4PairIS3_4CardEEE8IteratorneERKS8_;2B.;operator=::(6,51)=#(6,10),(6,45),(6,41),(6,50),(0,6);:_ZN6MAUtil10DictionaryIKNS_11BasicStringIcEENS_4PairIS3_4CardEEE8IteratoraSERKS8_;2A.;__base_ctor::(6,52)=#(6,10),(0,6),(6,41),(6,50),(0,6);:_ZN6MAUtil10DictionaryIKNS_11BasicStringIcEENS_4PairIS3_4CardEEE8IteratorC2ERKS8_;2A.;__comp_ctor::(6,52):_ZN6MAUtil10DictionaryIKNS_11BasicStringIcEENS_4PairIS3_4CardEEE8IteratorC1ERKS8_;2A.;__base_ctor::(6,53)=#(6,10),(0,6),(6,41),(27,33),(0,6);:_ZN6MAUtil10DictionaryIKNS_11BasicStringIcEENS_4PairIS3_4CardEEE8IteratorC2EP6dict_t;1A.;__comp_ctor::(6,53):_ZN6MAUtil10DictionaryIKNS_11BasicStringIcEENS_4PairIS3_4CardEEE8IteratorC1EP6dict_t;1A.;;",128,0,76,0
	.stabs	"Vector<MAUtil::BasicString<char> >:Tt(24,44)=s12mSize:/1(0,3),0,32;mCapacity:/1(0,3),32,32;mData:/1(6,54)=*(10,1),64,32;__base_ctor::(6,55)=#(24,44),(0,6),(6,56)=*(24,44),(0,3),(0,6);:_ZN6MAUtil6VectorINS_11BasicStringIcEEEC2Ei;2A.;__comp_ctor::(6,55):_ZN6MAUtil6VectorINS_11BasicStringIcEEEC1Ei;2A.;__base_ctor::(6,57)=#(24,44),(0,6),(6,56),(6,58)=&(6,59)=k(24,44),(0,6);:_ZN6MAUtil6VectorINS_11BasicStringIcEEEC2ERKS3_;2A.;__comp_ctor::(6,57):_ZN6MAUtil6VectorINS_11BasicStringIcEEEC1ERKS3_;2A.;__base_dtor::(6,60)=#(24,44),(0,6),(6,56),(0,6);:_ZN6MAUtil6VectorINS_11BasicStringIcEEED2Ev;2A.;__comp_dtor::(6,60):_ZN6MAUtil6VectorINS_11BasicStringIcEEED1Ev;2A.;operator=::(6,61)=#(24,44),(6,62)=&(24,44),(6,56),(6,58),(0,6);:_ZN6MAUtil6VectorINS_11BasicStringIcEEEaSERKS3_;2A.;add::(6,63)=#(24,44),(0,6),(6,56),(24,11),(0,6);:_ZN6MAUtil6VectorINS_11BasicStringIcEEE3addERKS2_;2A.(6,64)=#(24,44),(0,6),(6,56),(6,65)=*(24,12),(0,3),(0,6);:_ZN6MAUtil6VectorINS_11BasicStringIcEEE3addEPKS2_i;2A.;remove::(6,66)=#(24,44),(0,6),(6,56),(6,54),(0,6);:_ZN6MAUtil6VectorINS_11BasicStringIcEEE6removeEPS2_;2A.(6,67)=#(24,44),(0,6),(6,56),(0,3),(0,6);:_ZN6MAUtil6VectorINS_11BasicStringIcEEE6removeEi;2A.(6,68)=#(24,44),(0,6),(6,56),(0,3),(0,3),(0,6);:_ZN6MAUtil6VectorINS_11BasicStringIcEEE6removeEii;2A.;insert::(6,69)=#(24,44),(0,6),(6,56),(0,3),(10,2),(0,6);:_ZN6MAUtil6VectorINS_11BasicStringIcEEE6insertEiS2_;2A.;size::(6,70)=#(24,44),(0,3),(6,71)=*(6,59),(0,6);:_ZNK6MAUtil6VectorINS_11BasicStringIcEEE4sizeEv;2B.;resize::(6,67):_ZN6MAUtil6VectorINS_11BasicStringIcEEE6resizeEi;2A.;reserve::(6,67):_ZN6MAUtil6VectorINS_11BasicStringIcEEE7reserveEi;2A.;clear::(6,60):_ZN6MAUtil6VectorINS_11BasicStringIcEEE5clearEv;2A.;empty::(6,72)=#(24,44),(0,4),(6,71),(0,6);:_ZNK6MAUtil6VectorINS_11BasicStringIcEEE5emptyEv;2B.;capacity::(6,70):_ZNK6MAUtil6VectorINS_11BasicStringIcEEE8capacityEv;2B.;begin::(6,73)=#(24,44),(6,54),(6,56),(0,6);:_ZN6MAUtil6VectorINS_11BasicStringIcEEE5beginEv;2A.;end::(6,73):_ZN6MAUtil6VectorINS_11BasicStringIcEEE3endEv;2A.;begin::(6,74)=#(24,44),(6,65),(6,71),(0,6);:_ZNK6MAUtil6VectorINS_11BasicStringIcEEE5beginEv;2B.;end::(6,74):_ZNK6MAUtil6VectorINS_11BasicStringIcEEE3endEv;2B.;operator[]::(6,75)=#(24,44),(24,35),(6,56),(0,3),(0,6);:_ZN6MAUtil6VectorINS_11BasicStringIcEEEixEi;2A.(6,76)=#(24,44),(24,11),(6,71),(0,3),(0,6);:_ZNK6MAUtil6VectorINS_11BasicStringIcEEEixEi;2B.;pointer::(6,74):_ZNK6MAUtil6VectorINS_11BasicStringIcEEE7pointerEv;2B.(6,73):_ZN6MAUtil6VectorINS_11BasicStringIcEEE7pointerEv;2A.;;",128,0,94,0
	.stabn	162,0,0,0
	.stabs	"C:\\GameCards Core\\GameCards\\MobidexANC\\/Util.h",130,0,0,0
	.stabs	"c:/Apps/MoSync2.4/include/MAUI/Layout.h",130,0,0,0
	.stabs	"Layout::HorizontalAlignment:t(36,1)=eHA_LEFT:0,HA_CENTER:1,HA_RIGHT:2,;",128,0,40,0
	.stabs	"Layout::VerticalAlignment:t(36,2)=eVA_TOP:0,VA_CENTER:1,VA_BOTTOM:2,;",128,0,46,0
	.stabn	162,0,0,0
	.stabs	"c:/Apps/MoSync2.4/include/MAUI/ListBox.h",130,0,0,0
	.stabs	"ListBox::ListBoxOrientation:t(37,1)=eLBO_HORIZONTAL:0,LBO_VERTICAL:1,;",128,0,59,0
	.stabs	"ListBox::ListBoxAnimationType:t(37,2)=eLBA_NONE:0,LBA_LINEAR:1,;",128,0,64,0
	.stabs	"Vector<MAUI::ItemSelectedListener*>:Tt(37,3)=s12mSize:/1(0,3),0,32;mCapacity:/1(0,3),32,32;mData:/1(37,4)=*(37,5)=*(37,6)=xsItemSelectedListener:,64,32;__base_ctor::(37,7)=#(37,3),(0,6),(37,8)=*(37,3),(0,3),(0,6);:_ZN6MAUtil6VectorIPN4MAUI20ItemSelectedListenerEEC2Ei;2A.;__comp_ctor::(37,7):_ZN6MAUtil6VectorIPN4MAUI20ItemSelectedListenerEEC1Ei;2A.;__base_ctor::(37,9)=#(37,3),(0,6),(37,8),(37,10)=&(37,11)=k(37,3),(0,6);:_ZN6MAUtil6VectorIPN4MAUI20ItemSelectedListenerEEC2ERKS4_;2A.;__comp_ctor::(37,9):_ZN6MAUtil6VectorIPN4MAUI20ItemSelectedListenerEEC1ERKS4_;2A.;__base_dtor::(37,12)=#(37,3),(0,6),(37,8),(0,6);:_ZN6MAUtil6VectorIPN4MAUI20ItemSelectedListenerEED2Ev;2A.;__comp_dtor::(37,12):_ZN6MAUtil6VectorIPN4MAUI20ItemSelectedListenerEED1Ev;2A.;operator=::(37,13)=#(37,3),(37,14)=&(37,3),(37,8),(37,10),(0,6);:_ZN6MAUtil6VectorIPN4MAUI20ItemSelectedListenerEEaSERKS4_;2A.;add::(37,15)=#(37,3),(0,6),(37,8),(37,16)=&(37,17)=k(37,5),(0,6);:_ZN6MAUtil6VectorIPN4MAUI20ItemSelectedListenerEE3addERKS3_;2A.(37,18)=#(37,3),(0,6),(37,8),(37,19)=*(37,17),(0,3),(0,6);:_ZN6MAUtil6VectorIPN4MAUI20ItemSelectedListenerEE3addEPKS3_i;2A.;remove::(37,20)=#(37,3),(0,6),(37,8),(37,4),(0,6);:_ZN6MAUtil6VectorIPN4MAUI20ItemSelectedListenerEE6removeEPS3_;2A.(37,21)=#(37,3),(0,6),(37,8),(0,3),(0,6);:_ZN6MAUtil6VectorIPN4MAUI20ItemSelectedListenerEE6removeEi;2A.(37,22)=#(37,3),(0,6),(37,8),(0,3),(0,3),(0,6);:_ZN6MAUtil6VectorIPN4MAUI20ItemSelectedListenerEE6removeEii;2A.;insert::(37,23)=#(37,3),(0,6),(37,8),(0,3),(37,5),(0,6);:_ZN6MAUtil6VectorIPN4MAUI20ItemSelectedListenerEE6insertEiS3_;2A.;size::(37,24)=#(37,3),(0,3),(37,25)=*(37,11),(0,6);:_ZNK6MAUtil6VectorIPN4MAUI20ItemSelectedListenerEE4sizeEv;2B.;resize::(37,21):_ZN6MAUtil6VectorIPN4MAUI20ItemSelectedListenerEE6resizeEi;2A.;reserve::(37,21):_ZN6MAUtil6VectorIPN4MAUI20ItemSelectedListenerEE7reserveEi;2A.;clear::(37,12):_ZN6MAUtil6VectorIPN4MAUI20ItemSelectedListenerEE5clearEv;2A.;empty::(37,26)=#(37,3),(0,4),(37,25),(0,6);:_ZNK6MAUtil6VectorIPN4MAUI20ItemSelectedListenerEE5emptyEv;2B.;capacity::(37,24):_ZNK6MAUtil6VectorIPN4MAUI20ItemSelectedListenerEE8capacityEv;2B.;begin::(37,27)=#(37,3),(37,4),(37,8),(0,6);:_ZN6MAUtil6VectorIPN4MAUI20ItemSelectedListenerEE5beginEv;2A.;end::(37,27):_ZN6MAUtil6VectorIPN4MAUI20ItemSelectedListenerEE3endEv;2A.;begin::(37,28)=#(37,3),(37,19),(37,25),(0,6);:_ZNK6MAUtil6VectorIPN4MAUI20ItemSelectedListenerEE5beginEv;2B.;end::(37,28):_ZNK6MAUtil6VectorIPN4MAUI20ItemSelectedListenerEE3endEv;2B.;operator[]::(37,29)=#(37,3),(37,30)=&(37,5),(37,8),(0,3),(0,6);:_ZN6MAUtil6VectorIPN4MAUI20ItemSelectedListenerEEixEi;2A.(37,31)=#(37,3),(37,16),(37,25),(0,3),(0,6);:_ZNK6MAUtil6VectorIPN4MAUI20ItemSelectedListenerEEixEi;2B.;pointer::(37,28):_ZNK6MAUtil6VectorIPN4MAUI20ItemSelectedListenerEE7pointerEv;2B.(37,27):_ZN6MAUtil6VectorIPN4MAUI20ItemSelectedListenerEE7pointerEv;2A.;;",128,0,94,0
	.stabn	162,0,0,0
	.stabn	162,0,0,0
	.stabs	"C:\\GameCards Core\\GameCards\\MobidexANC\\/ImageScreen.h",130,0,0,0
	.stabn	162,0,0,0
	.stabs	"C:\\GameCards Core\\GameCards\\MobidexANC\\/TradeFriendDetailScreen.h",130,0,0,0
	.stabs	"C:\\GameCards Core\\GameCards\\MobidexANC\\/UI/Widgets/MobEditBox.h",130,0,0,0
	.stabs	"c:/Apps/MoSync2.4/include/MAUtil/Moblet.h",130,0,0,0
	.stabn	162,0,0,0
	.stabs	"c:/Apps/MoSync2.4/include/MAUI/EditBox.h",130,0,0,0
	.stabs	"c:/Apps/MoSync2.4/include/MAUtil/CharInput.h",130,0,0,0
	.stabs	"CharInputCallback:t(43,1)=(43,2)=*(12,43)",128,0,64,0
	.stabs	"StartTimerCallback:t(43,3)=(43,4)=*(43,5)=f(0,6)",128,0,70,0
	.stabs	"StopTimerCallback:t(43,6)=(43,2)",128,0,75,0
	.stabs	"CharCallback:t(43,7)=(43,8)=*(43,9)=f(0,6)",128,0,110,0
	.stabs	"CharInput::CharMode:t(43,10)=eLOWERCASE:0,UPPERCASE:1,NUMBERS:2,;",128,0,182,0
	.stabs	"Vector<MAUtil::ListenerSet<MAUtil::CharInputListener>::Combo>:Tt(43,11)=s12mSize:/1(0,3),0,32;mCapacity:/1(0,3),32,32;mData:/1(43,12)=*(43,13)=xsCombo:,64,32;__base_ctor::(43,14)=#(43,11),(0,6),(43,15)=*(43,11),(0,3),(0,6);:_ZN6MAUtil6VectorINS_11ListenerSetINS_17CharInputListenerEE5ComboEEC2Ei;2A.;__comp_ctor::(43,14):_ZN6MAUtil6VectorINS_11ListenerSetINS_17CharInputListenerEE5ComboEEC1Ei;2A.;__base_ctor::(43,16)=#(43,11),(0,6),(43,15),(43,17)=&(43,18)=k(43,11),(0,6);:_ZN6MAUtil6VectorINS_11ListenerSetINS_17CharInputListenerEE5ComboEEC2ERKS5_;2A.;__comp_ctor::(43,16):_ZN6MAUtil6VectorINS_11ListenerSetINS_17CharInputListenerEE5ComboEEC1ERKS5_;2A.;__base_dtor::(43,19)=#(43,11),(0,6),(43,15),(0,6);:_ZN6MAUtil6VectorINS_11ListenerSetINS_17CharInputListenerEE5ComboEED2Ev;2A.;__comp_dtor::(43,19):_ZN6MAUtil6VectorINS_11ListenerSetINS_17CharInputListenerEE5ComboEED1Ev;2A.;operator=::(43,20)=#(43,11),(43,21)=&(43,11),(43,15),(43,17),(0,6);:_ZN6MAUtil6VectorINS_11ListenerSetINS_17CharInputListenerEE5ComboEEaSERKS5_;2A.;add::(43,22)=#(43,11),(0,6),(43,15),(43,23)=&(43,24)=k(43,13),(0,6);:_ZN6MAUtil6VectorINS_11ListenerSetINS_17CharInputListenerEE5ComboEE3addERKS4_;2A.(43,25)=#(43,11),(0,6),(43,15),(43,26)=*(43,24),(0,3),(0,6);:_ZN6MAUtil6VectorINS_11ListenerSetINS_17CharInputListenerEE5ComboEE3addEPKS4_i;2A.;remove::(43,27)=#(43,11),(0,6),(43,15),(43,12),(0,6);:_ZN6MAUtil6VectorINS_11ListenerSetINS_17CharInputListenerEE5ComboEE6removeEPS4_;2A.(43,28)=#(43,11),(0,6),(43,15),(0,3),(0,6);:_ZN6MAUtil6VectorINS_11ListenerSetINS_17CharInputListenerEE5ComboEE6removeEi;2A.(43,29)=#(43,11),(0,6),(43,15),(0,3),(0,3),(0,6);:_ZN6MAUtil6VectorINS_11ListenerSetINS_17CharInputListenerEE5ComboEE6removeEii;2A.;insert::(43,30)=#(43,11),(0,6),(43,15),(0,3),(43,13),(0,6);:_ZN6MAUtil6VectorINS_11ListenerSetINS_17CharInputListenerEE5ComboEE6insertEiS4_;2A.;size::(43,31)=#(43,11),(0,3),(43,32)=*(43,18),(0,6);:_ZNK6MAUtil6VectorINS_11ListenerSetINS_17CharInputListenerEE5ComboEE4sizeEv;2B.;resize::(43,28):_ZN6MAUtil6VectorINS_11ListenerSetINS_17CharInputListenerEE5ComboEE6resizeEi;2A.;reserve::(43,28):_ZN6MAUtil6VectorINS_11ListenerSetINS_17CharInputListenerEE5ComboEE7reserveEi;2A.;clear::(43,19):_ZN6MAUtil6VectorINS_11ListenerSetINS_17CharInputListenerEE5ComboEE5clearEv;2A.;empty::(43,33)=#(43,11),(0,4),(43,32),(0,6);:_ZNK6MAUtil6VectorINS_11ListenerSetINS_17CharInputListenerEE5ComboEE5emptyEv;2B.;capacity::(43,31):_ZNK6MAUtil6VectorINS_11ListenerSetINS_17CharInputListenerEE5ComboEE8capacityEv;2B.;begin::(43,34)=#(43,11),(43,12),(43,15),(0,6);:_ZN6MAUtil6VectorINS_11ListenerSetINS_17CharInputListenerEE5ComboEE5beginEv;2A.;end::(43,34):_ZN6MAUtil6VectorINS_11ListenerSetINS_17CharInputListenerEE5ComboEE3endEv;2A.;begin::(43,35)=#(43,11),(43,26),(43,32),(0,6);:_ZNK6MAUtil6VectorINS_11ListenerSetINS_17CharInputListenerEE5ComboEE5beginEv;2B.;end::(43,35):_ZNK6MAUtil6VectorINS_11ListenerSetINS_17CharInputListenerEE5ComboEE3endEv;2B.;operator[]::(43,36)=#(43,11),(43,37)=&(43,13),(43,15),(0,3),(0,6);:_ZN6MAUtil6VectorINS_11ListenerSetINS_17CharInputListenerEE5ComboEEixEi;2A.(43,38)=#(43,11),(43,23),(43,32),(0,3),(0,6);:_ZNK6MAUtil6VectorINS_11ListenerSetINS_17CharInputListenerEE5ComboEEixEi;2B.;pointer::(43,35):_ZNK6MAUtil6VectorINS_11ListenerSetINS_17CharInputListenerEE5ComboEE7pointerEv;2B.(43,34):_ZN6MAUtil6VectorINS_11ListenerSetINS_17CharInputListenerEE5ComboEE7pointerEv;2A.;;",128,0,94,0
	.stabs	"ListenerSet<MAUtil::CharInputListener>:Tt(43,39)=s16mRunning:/0(0,4),0,8;mUpdateRequired:/0(0,4),8,8;mShouldDelete:/0(0,4),16,8;mVec:/0(43,11),32,96;__base_ctor::(43,40)=#(43,39),(0,6),(43,41)=*(43,39),(0,4),(0,6);:_ZN6MAUtil11ListenerSetINS_17CharInputListenerEEC2Eb;2A.;__comp_ctor::(43,40):_ZN6MAUtil11ListenerSetINS_17CharInputListenerEEC1Eb;2A.;begin::(43,42)=#(43,39),(43,43)=xsiterator:,(43,41),(0,6);:_ZN6MAUtil11ListenerSetINS_17CharInputListenerEE5beginEv;2A.;add::(43,44)=#(43,39),(0,6),(43,41),(43,45)=*(43,46)=xsCharInputListener:,(0,6);:_ZN6MAUtil11ListenerSetINS_17CharInputListenerEE3addEPS1_;2A.;remove::(43,44):_ZN6MAUtil11ListenerSetINS_17CharInputListenerEE6removeEPS1_;2A.;contains::(43,47)=#(43,39),(0,4),(43,41),(43,45),(0,6);:_ZN6MAUtil11ListenerSetINS_17CharInputListenerEE8containsEPS1_;2A.;setRunning::(43,48)=#(43,39),(0,6),(43,41),(0,4),(0,6);:_ZN6MAUtil11ListenerSetINS_17CharInputListenerEE10setRunningEb;2A.;size::(43,49)=#(43,39),(0,3),(43,50)=*(43,51)=k(43,39),(0,6);:_ZNK6MAUtil11ListenerSetINS_17CharInputListenerEE4sizeEv;2B.;operator=::(43,52)=#(43,39),(43,53)=&(43,39),(43,41),(43,54)=&(43,51),(0,6);:_ZN6MAUtil11ListenerSetINS_17CharInputListenerEEaSERKS2_;2A.;__base_ctor::(43,55)=#(43,39),(0,6),(43,41),(43,54),(0,6);:_ZN6MAUtil11ListenerSetINS_17CharInputListenerEEC2ERKS2_;2A.;__comp_ctor::(43,55):_ZN6MAUtil11ListenerSetINS_17CharInputListenerEEC1ERKS2_;2A.;__base_dtor::(43,56)=#(43,39),(0,6),(43,41),(0,6);:_ZN6MAUtil11ListenerSetINS_17CharInputListenerEED2Ev;2A.;__comp_dtor::(43,56):_ZN6MAUtil11ListenerSetINS_17CharInputListenerEED1Ev;2A.;;",128,0,37,0
	.stabn	162,0,0,0
	.stabs	"EditBox::InputMode:t(42,1)=eIM_NUMBERS:0,IM_STANDARD:1,IM_QWERTY:2,;",128,0,69,0
	.stabs	"Vector<MAUI::EditBoxListener*>:Tt(42,2)=s12mSize:/1(0,3),0,32;mCapacity:/1(0,3),32,32;mData:/1(42,3)=*(42,4)=*(42,5)=xsEditBoxListener:,64,32;__base_ctor::(42,6)=#(42,2),(0,6),(42,7)=*(42,2),(0,3),(0,6);:_ZN6MAUtil6VectorIPN4MAUI15EditBoxListenerEEC2Ei;2A.;__comp_ctor::(42,6):_ZN6MAUtil6VectorIPN4MAUI15EditBoxListenerEEC1Ei;2A.;__base_ctor::(42,8)=#(42,2),(0,6),(42,7),(42,9)=&(42,10)=k(42,2),(0,6);:_ZN6MAUtil6VectorIPN4MAUI15EditBoxListenerEEC2ERKS4_;2A.;__comp_ctor::(42,8):_ZN6MAUtil6VectorIPN4MAUI15EditBoxListenerEEC1ERKS4_;2A.;__base_dtor::(42,11)=#(42,2),(0,6),(42,7),(0,6);:_ZN6MAUtil6VectorIPN4MAUI15EditBoxListenerEED2Ev;2A.;__comp_dtor::(42,11):_ZN6MAUtil6VectorIPN4MAUI15EditBoxListenerEED1Ev;2A.;operator=::(42,12)=#(42,2),(42,13)=&(42,2),(42,7),(42,9),(0,6);:_ZN6MAUtil6VectorIPN4MAUI15EditBoxListenerEEaSERKS4_;2A.;add::(42,14)=#(42,2),(0,6),(42,7),(42,15)=&(42,16)=k(42,4),(0,6);:_ZN6MAUtil6VectorIPN4MAUI15EditBoxListenerEE3addERKS3_;2A.(42,17)=#(42,2),(0,6),(42,7),(42,18)=*(42,16),(0,3),(0,6);:_ZN6MAUtil6VectorIPN4MAUI15EditBoxListenerEE3addEPKS3_i;2A.;remove::(42,19)=#(42,2),(0,6),(42,7),(42,3),(0,6);:_ZN6MAUtil6VectorIPN4MAUI15EditBoxListenerEE6removeEPS3_;2A.(42,20)=#(42,2),(0,6),(42,7),(0,3),(0,6);:_ZN6MAUtil6VectorIPN4MAUI15EditBoxListenerEE6removeEi;2A.(42,21)=#(42,2),(0,6),(42,7),(0,3),(0,3),(0,6);:_ZN6MAUtil6VectorIPN4MAUI15EditBoxListenerEE6removeEii;2A.;insert::(42,22)=#(42,2),(0,6),(42,7),(0,3),(42,4),(0,6);:_ZN6MAUtil6VectorIPN4MAUI15EditBoxListenerEE6insertEiS3_;2A.;size::(42,23)=#(42,2),(0,3),(42,24)=*(42,10),(0,6);:_ZNK6MAUtil6VectorIPN4MAUI15EditBoxListenerEE4sizeEv;2B.;resize::(42,20):_ZN6MAUtil6VectorIPN4MAUI15EditBoxListenerEE6resizeEi;2A.;reserve::(42,20):_ZN6MAUtil6VectorIPN4MAUI15EditBoxListenerEE7reserveEi;2A.;clear::(42,11):_ZN6MAUtil6VectorIPN4MAUI15EditBoxListenerEE5clearEv;2A.;empty::(42,25)=#(42,2),(0,4),(42,24),(0,6);:_ZNK6MAUtil6VectorIPN4MAUI15EditBoxListenerEE5emptyEv;2B.;capacity::(42,23):_ZNK6MAUtil6VectorIPN4MAUI15EditBoxListenerEE8capacityEv;2B.;begin::(42,26)=#(42,2),(42,3),(42,7),(0,6);:_ZN6MAUtil6VectorIPN4MAUI15EditBoxListenerEE5beginEv;2A.;end::(42,26):_ZN6MAUtil6VectorIPN4MAUI15EditBoxListenerEE3endEv;2A.;begin::(42,27)=#(42,2),(42,18),(42,24),(0,6);:_ZNK6MAUtil6VectorIPN4MAUI15EditBoxListenerEE5beginEv;2B.;end::(42,27):_ZNK6MAUtil6VectorIPN4MAUI15EditBoxListenerEE3endEv;2B.;operator[]::(42,28)=#(42,2),(42,29)=&(42,4),(42,7),(0,3),(0,6);:_ZN6MAUtil6VectorIPN4MAUI15EditBoxListenerEEixEi;2A.(42,30)=#(42,2),(42,15),(42,24),(0,3),(0,6);:_ZNK6MAUtil6VectorIPN4MAUI15EditBoxListenerEEixEi;2B.;pointer::(42,27):_ZNK6MAUtil6VectorIPN4MAUI15EditBoxListenerEE7pointerEv;2B.(42,26):_ZN6MAUtil6VectorIPN4MAUI15EditBoxListenerEE7pointerEv;2A.;;",128,0,94,0
	.stabn	162,0,0,0
	.stabn	162,0,0,0
	.stabs	"C:\\GameCards Core\\GameCards\\MobidexANC\\/UI/MobKeyboard.h",130,0,0,0
	.stabs	"MobKeyboard::LayoutType:t(44,1)=eLT_LOWERCASE:0,LT_UPPERCASE:1,LT_NUM1:2,LT_NUM2:3,;",128,0,24,0
	.stabs	"MobKeyboardButton:Tt(44,2)=s36m_bounds:/0(19,35),0,160;m_character:/0(10,1),160,32;m_charLocation:/0(11,1),192,64;pressed:/0(0,4),256,8;__base_ctor::(44,3)=#(44,2),(0,6),(44,4)=*(44,2),(19,33),(24,11),(11,7),(0,6);:_ZN17MobKeyboardButtonC2ERKN6MAUtil4RectERKNS0_11BasicStringIcEERKNS0_5PointE;2A.;__comp_ctor::(44,3):_ZN17MobKeyboardButtonC1ERKN6MAUtil4RectERKNS0_11BasicStringIcEERKNS0_5PointE;2A.;__base_dtor::(44,5)=#(44,2),(0,6),(44,4),(0,6);:_ZN17MobKeyboardButtonD2Ev;2A.;__comp_dtor::(44,5):_ZN17MobKeyboardButtonD1Ev;2A.;getBounds::(44,6)=#(44,2),(19,35),(44,7)=*(44,8)=k(44,2),(0,6);:_ZNK17MobKeyboardButton9getBoundsEv;2B.;getCharacter::(44,9)=#(44,2),(10,1),(44,7),(0,6);:_ZNK17MobKeyboardButton12getCharacterEv;2B.;getCharLocation::(44,10)=#(44,2),(11,1),(44,7),(0,6);:_ZNK17MobKeyboardButton15getCharLocationEv;2B.;updatePosition::(44,11)=#(44,2),(0,6),(44,4),(11,7),(11,7),(0,6);:_ZN17MobKeyboardButton14updatePositionERKN6MAUtil5PointES3_;2A.;setPressed::(44,12)=#(44,2),(0,6),(44,4),(0,4),(0,6);:_ZN17MobKeyboardButton10setPressedEb;2A.;isPressed::(44,13)=#(44,2),(0,4),(44,4),(0,6);:_ZN17MobKeyboardButton9isPressedEv;2A.;operator=::(44,14)=#(44,2),(44,15)=&(44,2),(44,4),(44,16)=&(44,8),(0,6);:_ZN17MobKeyboardButtonaSERKS_;2A.;__base_ctor::(44,17)=#(44,2),(0,6),(44,4),(44,16),(0,6);:_ZN17MobKeyboardButtonC2ERKS_;2A.;__comp_ctor::(44,17):_ZN17MobKeyboardButtonC1ERKS_;2A.;;",128,0,80,0
	.stabs	"MobKeyboardLayout:Tt(44,18)=s16m_uniqueIdentifier:/0(10,1),0,32;m_language:/0(10,1),32,32;m_layoutType:/0(44,1),64,32;m_buttons:/0(44,19)=*(44,20)=xsVector<MobKeyboardButton*>:,96,32;__base_ctor::(44,21)=#(44,18),(0,6),(44,22)=*(44,18),(24,11),(24,11),(44,1),(0,6);:_ZN17MobKeyboardLayoutC2ERKN6MAUtil11BasicStringIcEES4_N11MobKeyboard10LayoutTypeE;2A.;__comp_ctor::(44,21):_ZN17MobKeyboardLayoutC1ERKN6MAUtil11BasicStringIcEES4_N11MobKeyboard10LayoutTypeE;2A.;__base_dtor::(44,23)=#(44,18),(0,6),(44,22),(0,6);:_ZN17MobKeyboardLayoutD2Ev;2A.;__comp_dtor::(44,23):_ZN17MobKeyboardLayoutD1Ev;2A.;getUniqueIdentifier::(44,24)=#(44,18),(10,1),(44,25)=*(44,26)=k(44,18),(0,6);:_ZNK17MobKeyboardLayout19getUniqueIdentifierEv;2B.;getLanguage::(44,24):_ZNK17MobKeyboardLayout11getLanguageEv;2B.;getLayoutType::(44,27)=#(44,18),(44,1),(44,25),(0,6);:_ZNK17MobKeyboardLayout13getLayoutTypeEv;2B.;getButtons::(44,28)=#(44,18),(44,19),(44,25),(0,6);:_ZNK17MobKeyboardLayout10getButtonsEv;2B.;operator=::(44,29)=#(44,18),(44,30)=&(44,18),(44,22),(44,31)=&(44,26),(0,6);:_ZN17MobKeyboardLayoutaSERKS_;2A.;__base_ctor::(44,32)=#(44,18),(0,6),(44,22),(44,31),(0,6);:_ZN17MobKeyboardLayoutC2ERKS_;2A.;__comp_ctor::(44,32):_ZN17MobKeyboardLayoutC1ERKS_;2A.;;",128,0,134,0
	.stabs	"Vector<MobKeyboardButton*>:Tt(44,20)=s12mSize:/1(0,3),0,32;mCapacity:/1(0,3),32,32;mData:/1(44,33)=*(44,4),64,32;__base_ctor::(44,34)=#(44,20),(0,6),(44,19),(0,3),(0,6);:_ZN6MAUtil6VectorIP17MobKeyboardButtonEC2Ei;2A.;__comp_ctor::(44,34):_ZN6MAUtil6VectorIP17MobKeyboardButtonEC1Ei;2A.;__base_ctor::(44,35)=#(44,20),(0,6),(44,19),(44,36)=&(44,37)=k(44,20),(0,6);:_ZN6MAUtil6VectorIP17MobKeyboardButtonEC2ERKS3_;2A.;__comp_ctor::(44,35):_ZN6MAUtil6VectorIP17MobKeyboardButtonEC1ERKS3_;2A.;__base_dtor::(44,38)=#(44,20),(0,6),(44,19),(0,6);:_ZN6MAUtil6VectorIP17MobKeyboardButtonED2Ev;2A.;__comp_dtor::(44,38):_ZN6MAUtil6VectorIP17MobKeyboardButtonED1Ev;2A.;operator=::(44,39)=#(44,20),(44,40)=&(44,20),(44,19),(44,36),(0,6);:_ZN6MAUtil6VectorIP17MobKeyboardButtonEaSERKS3_;2A.;add::(44,41)=#(44,20),(0,6),(44,19),(44,42)=&(44,43)=k(44,4),(0,6);:_ZN6MAUtil6VectorIP17MobKeyboardButtonE3addERKS2_;2A.(44,44)=#(44,20),(0,6),(44,19),(44,45)=*(44,43),(0,3),(0,6);:_ZN6MAUtil6VectorIP17MobKeyboardButtonE3addEPKS2_i;2A.;remove::(44,46)=#(44,20),(0,6),(44,19),(44,33),(0,6);:_ZN6MAUtil6VectorIP17MobKeyboardButtonE6removeEPS2_;2A.(44,47)=#(44,20),(0,6),(44,19),(0,3),(0,6);:_ZN6MAUtil6VectorIP17MobKeyboardButtonE6removeEi;2A.(44,48)=#(44,20),(0,6),(44,19),(0,3),(0,3),(0,6);:_ZN6MAUtil6VectorIP17MobKeyboardButtonE6removeEii;2A.;insert::(44,49)=#(44,20),(0,6),(44,19),(0,3),(44,4),(0,6);:_ZN6MAUtil6VectorIP17MobKeyboardButtonE6insertEiS2_;2A.;size::(44,50)=#(44,20),(0,3),(44,51)=*(44,37),(0,6);:_ZNK6MAUtil6VectorIP17MobKeyboardButtonE4sizeEv;2B.;resize::(44,47):_ZN6MAUtil6VectorIP17MobKeyboardButtonE6resizeEi;2A.;reserve::(44,47):_ZN6MAUtil6VectorIP17MobKeyboardButtonE7reserveEi;2A.;clear::(44,38):_ZN6MAUtil6VectorIP17MobKeyboardButtonE5clearEv;2A.;empty::(44,52)=#(44,20),(0,4),(44,51),(0,6);:_ZNK6MAUtil6VectorIP17MobKeyboardButtonE5emptyEv;2B.;capacity::(44,50):_ZNK6MAUtil6VectorIP17MobKeyboardButtonE8capacityEv;2B.;begin::(44,53)=#(44,20),(44,33),(44,19),(0,6);:_ZN6MAUtil6VectorIP17MobKeyboardButtonE5beginEv;2A.;end::(44,53):_ZN6MAUtil6VectorIP17MobKeyboardButtonE3endEv;2A.;begin::(44,54)=#(44,20),(44,45),(44,51),(0,6);:_ZNK6MAUtil6VectorIP17MobKeyboardButtonE5beginEv;2B.;end::(44,54):_ZNK6MAUtil6VectorIP17MobKeyboardButtonE3endEv;2B.;operator[]::(44,55)=#(44,20),(44,56)=&(44,4),(44,19),(0,3),(0,6);:_ZN6MAUtil6VectorIP17MobKeyboardButtonEixEi;2A.(44,57)=#(44,20),(44,42),(44,51),(0,3),(0,6);:_ZNK6MAUtil6VectorIP17MobKeyboardButtonEixEi;2B.;pointer::(44,54):_ZNK6MAUtil6VectorIP17MobKeyboardButtonE7pointerEv;2B.(44,53):_ZN6MAUtil6VectorIP17MobKeyboardButtonE7pointerEv;2A.;;",128,0,94,0
	.stabn	162,0,0,0
	.stabn	162,0,0,0
	.stabs	"Pair<MAUtil::Dictionary<const MAUtil::BasicString<char>, MAUtil::Pair<const MAUtil::BasicString<char>, Card> >::Iterator,bool>:Tt(6,22)=s12first:(6,10),0,64;second:(0,4),64,8;operator=::(0,25)=#(6,22),(0,26)=&(6,22),(0,27)=*(6,22),(0,28)=&(0,29)=k(6,22),(0,6);:_ZN6MAUtil4PairINS_10DictionaryIKNS_11BasicStringIcEENS0_IS4_4CardEEE8IteratorEbEaSERKS9_;2A.;__base_ctor::(0,30)=#(6,22),(0,6),(0,27),(0,28),(0,6);:_ZN6MAUtil4PairINS_10DictionaryIKNS_11BasicStringIcEENS0_IS4_4CardEEE8IteratorEbEC2ERKS9_;2A.;__comp_ctor::(0,30):_ZN6MAUtil4PairINS_10DictionaryIKNS_11BasicStringIcEENS0_IS4_4CardEEE8IteratorEbEC1ERKS9_;2A.;;",128,0,57,0
	.stabs	"Pair<const MAUtil::BasicString<char>,Card>:Tt(6,25)=s40first:(24,12),0,32;second:(28,1),32,288;operator=::(0,31)=#(6,25),(6,40),(6,43),(6,23),(0,6);:_ZN6MAUtil4PairIKNS_11BasicStringIcEE4CardEaSERKS5_;2A.;__base_ctor::(0,32)=#(6,25),(0,6),(6,43),(6,23),(0,6);:_ZN6MAUtil4PairIKNS_11BasicStringIcEE4CardEC2ERKS5_;2A.;__comp_ctor::(0,32):_ZN6MAUtil4PairIKNS_11BasicStringIcEE4CardEC1ERKS5_;2A.;__base_dtor::(0,33)=#(6,25),(0,6),(6,43),(0,6);:_ZN6MAUtil4PairIKNS_11BasicStringIcEE4CardED2Ev;2A.;__comp_dtor::(0,33):_ZN6MAUtil4PairIKNS_11BasicStringIcEE4CardED1Ev;2A.;;",128,0,57,0
	.stabs	"Pair<const MAUtil::BasicString<char>,MAUtil::BasicString<char> >:Tt(24,29)=s8first:(24,12),0,32;second:(10,1),32,32;operator=::(0,34)=#(24,29),(0,35)=&(24,29),(0,36)=*(24,29),(24,27),(0,6);:_ZN6MAUtil4PairIKNS_11BasicStringIcEES2_EaSERKS4_;2A.;__base_ctor::(0,37)=#(24,29),(0,6),(0,36),(24,27),(0,6);:_ZN6MAUtil4PairIKNS_11BasicStringIcEES2_EC2ERKS4_;2A.;__comp_ctor::(0,37):_ZN6MAUtil4PairIKNS_11BasicStringIcEES2_EC1ERKS4_;2A.;__base_dtor::(0,38)=#(24,29),(0,6),(0,36),(0,6);:_ZN6MAUtil4PairIKNS_11BasicStringIcEES2_ED2Ev;2A.;__comp_dtor::(0,38):_ZN6MAUtil4PairIKNS_11BasicStringIcEES2_ED1Ev;2A.;;",128,0,57,0
	.stabs	"Dictionary<const MAUtil::BasicString<char>,MAUtil::Pair<const MAUtil::BasicString<char>, Card> >::DictNode:Tt(6,38)=s64!1,020,(27,3);data:(6,25),192,320;__base_ctor::(0,39)=#(6,38),(0,6),(6,37),(6,25),(0,6);:_ZN6MAUtil10DictionaryIKNS_11BasicStringIcEENS_4PairIS3_4CardEEE8DictNodeC2ES6_;2A.;__comp_ctor::(0,39):_ZN6MAUtil10DictionaryIKNS_11BasicStringIcEENS_4PairIS3_4CardEEE8DictNodeC1ES6_;2A.;operator=::(0,40)=#(6,38),(0,41)=&(6,38),(6,37),(0,42)=&(0,43)=k(6,38),(0,6);:_ZN6MAUtil10DictionaryIKNS_11BasicStringIcEENS_4PairIS3_4CardEEE8DictNodeaSERKS8_;2A.;__base_ctor::(0,44)=#(6,38),(0,6),(6,37),(0,42),(0,6);:_ZN6MAUtil10DictionaryIKNS_11BasicStringIcEENS_4PairIS3_4CardEEE8DictNodeC2ERKS8_;2A.;__comp_ctor::(0,44):_ZN6MAUtil10DictionaryIKNS_11BasicStringIcEENS_4PairIS3_4CardEEE8DictNodeC1ERKS8_;2A.;__base_dtor::(0,45)=#(6,38),(0,6),(6,37),(0,6);:_ZN6MAUtil10DictionaryIKNS_11BasicStringIcEENS_4PairIS3_4CardEEE8DictNodeD2Ev;2A.;__comp_dtor::(0,45):_ZN6MAUtil10DictionaryIKNS_11BasicStringIcEENS_4PairIS3_4CardEEE8DictNodeD1Ev;2A.;;",128,0,60,0
	.stabs	"Dictionary<const MAUtil::BasicString<char>,MAUtil::Pair<const MAUtil::BasicString<char>, Card> >::ConstIterator:Tt(6,12)=s8mNode:/1(0,46)=*(0,43),0,32;mDict:/1(0,47)=*(0,48)=k(27,28),32,32;operator*::(0,49)=#(6,12),(6,23),(0,50)=*(0,51)=k(6,12),(0,6);:_ZNK6MAUtil10DictionaryIKNS_11BasicStringIcEENS_4PairIS3_4CardEEE13ConstIteratordeEv;2B.;operator->::(0,52)=#(6,12),(0,53)=*(6,24),(0,50),(0,6);:_ZNK6MAUtil10DictionaryIKNS_11BasicStringIcEENS_4PairIS3_4CardEEE13ConstIteratorptEv;2B.;operator++::(0,54)=#(6,12),(0,55)=&(6,12),(0,56)=*(6,12),(0,6);:_ZN6MAUtil10DictionaryIKNS_11BasicStringIcEENS_4PairIS3_4CardEEE13ConstIteratorppEv;2A.(0,57)=#(6,12),(6,12),(0,56),(0,3),(0,6);:_ZN6MAUtil10DictionaryIKNS_11BasicStringIcEENS_4PairIS3_4CardEEE13ConstIteratorppEi;2A.;operator--::(0,54):_ZN6MAUtil10DictionaryIKNS_11BasicStringIcEENS_4PairIS3_4CardEEE13ConstIteratormmEv;2A.(0,57):_ZN6MAUtil10DictionaryIKNS_11BasicStringIcEENS_4PairIS3_4CardEEE13ConstIteratormmEi;2A.;operator==::(0,58)=#(6,12),(0,4),(0,50),(0,59)=&(0,51),(0,6);:_ZNK6MAUtil10DictionaryIKNS_11BasicStringIcEENS_4PairIS3_4CardEEE13ConstIteratoreqERKS8_;2B.;operator!=::(0,58):_ZNK6MAUtil10DictionaryIKNS_11BasicStringIcEENS_4PairIS3_4CardEEE13ConstIteratorneERKS8_;2B.;operator=::(0,60)=#(6,12),(0,55),(0,56),(0,59),(0,6);:_ZN6MAUtil10DictionaryIKNS_11BasicStringIcEENS_4PairIS3_4CardEEE13ConstIteratoraSERKS8_;2A.;__base_ctor::(0,61)=#(6,12),(0,6),(0,56),(0,59),(0,6);:_ZN6MAUtil10DictionaryIKNS_11BasicStringIcEENS_4PairIS3_4CardEEE13ConstIteratorC2ERKS8_;2A.;__comp_ctor::(0,61):_ZN6MAUtil10DictionaryIKNS_11BasicStringIcEENS_4PairIS3_4CardEEE13ConstIteratorC1ERKS8_;2A.;__base_ctor::(0,62)=#(6,12),(0,6),(0,56),(6,50),(0,6);:_ZN6MAUtil10DictionaryIKNS_11BasicStringIcEENS_4PairIS3_4CardEEE13ConstIteratorC2ERKNS7_8IteratorE;2A.;__comp_ctor::(0,62):_ZN6MAUtil10DictionaryIKNS_11BasicStringIcEENS_4PairIS3_4CardEEE13ConstIteratorC1ERKNS7_8IteratorE;2A.;__base_ctor::(0,63)=#(6,12),(0,6),(0,56),(0,47),(0,6);:_ZN6MAUtil10DictionaryIKNS_11BasicStringIcEENS_4PairIS3_4CardEEE13ConstIteratorC2EPK6dict_t;1A.;__comp_ctor::(0,63):_ZN6MAUtil10DictionaryIKNS_11BasicStringIcEENS_4PairIS3_4CardEEE13ConstIteratorC1EPK6dict_t;1A.;;",128,0,114,0
	.stabs	"AlbumViewScreen:Tt(0,64)=s2512!5,020,(0,65)=xsScreen:;0096,(8,33);00128,(0,66)=xsXCListener:;00160,(22,48);00192,(0,67)=xsHttpConnectionListener:;next:/0(0,68)=*(0,65),224,32;mImageCache:/0(0,69)=*(0,70)=xsImageCache:,256,32;notice:/0(0,71)=*(0,72)=xsLabel:,288,32;label:/0(0,71),320,32;listBox:/0(0,73)=*(0,74)=xsKineticListBox:,352,32;mainLayout:/0(0,75)=*(0,76)=xsLayout:,384,32;mHttp:/0(0,77)=xsHttpConnection:,416,320;xmlConn:/0(0,78)=xsXmlConnection:,736,17024;parentTag:/0(10,1),17760,32;cardText:/0(10,1),17792,32;id:/0(10,1),17824,32;description:/0(10,1),17856,32;quantity:/0(10,1),17888,32;thumburl:/0(10,1),17920,32;fronturl:/0(10,1),17952,32;backurl:/0(10,1),17984,32;error_msg:/0(10,1),18016,32;rate:/0(10,1),18048,32;value:/0(10,1),18080,32;size:/0(0,3),18112,32;i:/0(0,3),18144,32;moved:/0(0,3),18176,32;list:/0(0,4),18208,8;left:/0(0,4),18216,8;right:/0(0,4),18224,8;emp:/0(0,4),18232,8;feed:/0(23,3),18240,32;album:/0(24,42),18272,480;tmp:/0(6,26),18752,448;cards:/0(6,26),19200,448;cardExists:/0(6,10),19648,64;index:/0(24,44),19712,96;card:/0(28,1),19808,288;__base_ctor::(0,79)=#(0,64),(0,6),(0,80)=*(0,64),(23,3),(0,6);:_ZN15AlbumViewScreenC2EP4Feed;2A.;__comp_ctor::(0,79):_ZN15AlbumViewScreenC1EP4Feed;2A.;__base_dtor::(0,81)=#(0,64),(0,6),(0,80),(0,6);:_ZN15AlbumViewScreenD2Ev;2A.;__comp_dtor::(0,81):_ZN15AlbumViewScreenD1Ev;2A*0;(0,64);;__deleting_dtor::(0,81):_ZN15AlbumViewScreenD0Ev;2A*1;(0,64);;keyPressEvent::(0,82)=#(0,64),(0,6),(0,80),(0,3),(0,6);:_ZN15AlbumViewScreen13keyPressEventEi;2A*5;(0,64);;show::(0,81):_ZN15AlbumViewScreen4showEv;2A*7;(0,64);;hide::(0,81):_ZN15AlbumViewScreen4hideEv;2A*11;(0,64);;getCount::(0,83)=#(0,64),(0,3),(0,80),(0,6);:_ZN15AlbumViewScreen8getCountEv;2A.;Add::(0,84)=#(0,64),(0,6),(0,80),(19,27),(19,27),(0,6);:_ZN15AlbumViewScreen3AddEPKcS1_;2A.;Retrieve::(0,85)=#(0,64),(6,54),(0,80),(0,3),(0,6);:_ZN15AlbumViewScreen8RetrieveEi;2A.;drawList::(0,81):_ZN15AlbumViewScreen8drawListEv;2A.;pointerPressEvent::(0,86)=#(0,64),(0,6),(0,80),(3,23),(0,6);:_ZN15AlbumViewScreen17pointerPressEventE9MAPoint2d;2A*8;(0,64);;pointerMoveEvent::(0,86):_ZN15AlbumViewScreen16pointerMoveEventE9MAPoint2d;2A*10;(0,64);;pointerReleaseEvent::(0,86):_ZN15AlbumViewScreen19pointerReleaseEventE9MAPoint2d;2A*9;(0,64);;locateItem::(0,86):_ZN15AlbumViewScreen10locateItemE9MAPoint2d;2A.;loadFile::(0,81):_ZN15AlbumViewScreen8loadFileEv;2A.;loadImages::(0,87)=#(0,64),(0,6),(0,80),(19,27),(0,6);:_ZN15AlbumViewScreen10loadImagesEPKc;2A.;getAll::(0,88)=#(0,64),(10,1),(0,80),(0,6);:_ZN15AlbumViewScreen6getAllEv;0A.;loadDemo::(0,81):_ZN15AlbumViewScreen8loadDemoEv;0A.;httpFinished::(0,89)=#(0,64),(0,6),(0,80),(0,90)=*(0,77),(0,3),(0,6);:_ZN15AlbumViewScreen12httpFinishedEPN6MAUtil14HttpConnectionEi;0A*12;(0,64);;connReadFinished::(0,91)=#(0,64),(0,6),(0,80),(0,92)=*(0,93)=xsConnection:,(0,3),(0,6);:_ZN15AlbumViewScreen16connReadFinishedEPN6MAUtil10ConnectionEi;0A*13;(0,64);;xcConnError::(0,82):_ZN15AlbumViewScreen11xcConnErrorEi;0A*14;(0,64);;mtxEncoding::(0,87):_ZN15AlbumViewScreen11mtxEncodingEPKc;0A*15;(0,64);;mtxTagStart::(0,94)=#(0,64),(0,6),(0,80),(19,27),(0,3),(0,6);:_ZN15AlbumViewScreen11mtxTagStartEPKci;0A*16;(0,64);;mtxTagAttr::(0,84):_ZN15AlbumViewScreen10mtxTagAttrEPKcS1_;0A*17;(0,64);;mtxTagData::(0,94):_ZN15AlbumViewScreen10mtxTagDataEPKci;0A*18;(0,64);;mtxTagEnd::(0,94):_ZN15AlbumViewScreen9mtxTagEndEPKci;0A*19;(0,64);;mtxParseError::(0,81):_ZN15AlbumViewScreen13mtxParseErrorEv;0A*20;(0,64);;mtxEmptyTagEnd::(0,81):_ZN15AlbumViewScreen14mtxEmptyTagEndEv;0A*21;(0,64);;mtxTagStartEnd::(0,81):_ZN15AlbumViewScreen14mtxTagStartEndEv;0A*22;(0,64);;operator=::(0,95)=#(0,64),(0,96)=&(0,64),(0,80),(0,97)=&(0,98)=k(0,64),(0,6);:_ZN15AlbumViewScreenaSERKS_;2A.;__base_ctor::(0,99)=#(0,64),(0,6),(0,80),(0,97),(0,6);:_ZN15AlbumViewScreenC2ERKS_;2A.;__comp_ctor::(0,99):_ZN15AlbumViewScreenC1ERKS_;2A.;;~%(17,46);",128,0,17,0
	.stabs	"KineticListBoxListener:Tt(33,6)=s4_vptr$KineticListBoxListener:(0,100)=*(0,1),0,32;__base_ctor::(0,101)=#(33,6),(0,6),(33,5),(0,6);:_ZN4MAUI22KineticListBoxListenerC2Ev;2A.;__comp_ctor::(0,101):_ZN4MAUI22KineticListBoxListenerC1Ev;2A.;itemSelected::(0,102)=#(33,6),(0,6),(33,5),(0,73),(8,3),(8,3),(0,6);:_ZN4MAUI22KineticListBoxListener12itemSelectedEPNS_14KineticListBoxEPNS_6WidgetES4_;2A*0;(33,6);;blocked::(0,103)=#(33,6),(0,6),(33,5),(0,73),(0,3),(0,6);:_ZN4MAUI22KineticListBoxListener7blockedEPNS_14KineticListBoxEi;2A*1;(33,6);;operator=::(0,104)=#(33,6),(0,105)=&(33,6),(33,5),(0,106)=&(0,107)=k(33,6),(0,6);:_ZN4MAUI22KineticListBoxListeneraSERKS0_;2A.;__base_ctor::(0,108)=#(33,6),(0,6),(33,5),(0,106),(0,6);:_ZN4MAUI22KineticListBoxListenerC2ERKS0_;2A.;__comp_ctor::(0,108):_ZN4MAUI22KineticListBoxListenerC1ERKS0_;2A.;;~%(33,6);",128,0,31,0
	.stabs	"XCListener:Tt(0,66)=s4_vptr$XCListener:(0,100),0,32;xcConnError::(0,109)=#(0,66),(0,6),(0,110)=*(0,66),(0,3),(0,6);:_ZN10XCListener11xcConnErrorEi;2A*0;(0,66);;operator=::(0,111)=#(0,66),(0,112)=&(0,66),(0,110),(0,113)=&(0,114)=k(0,66),(0,6);:_ZN10XCListeneraSERKS_;2A.;__base_ctor::(0,115)=#(0,66),(0,6),(0,110),(0,113),(0,6);:_ZN10XCListenerC2ERKS_;2A.;__comp_ctor::(0,115):_ZN10XCListenerC1ERKS_;2A.;__base_ctor::(0,116)=#(0,66),(0,6),(0,110),(0,6);:_ZN10XCListenerC2Ev;2A.;__comp_ctor::(0,116):_ZN10XCListenerC1Ev;2A.;;~%(0,66);",128,0,7,0
	.stabs	"MtxListener:Tt(22,24)=s4_vptr$MtxListener:(0,100),0,32;mtxDataRemains::(0,117)=#(22,24),(0,6),(22,23),(19,27),(0,3),(0,6);:_ZN3Mtx11MtxListener14mtxDataRemainsEPKci;2A*0;(22,24);;operator=::(0,118)=#(22,24),(0,119)=&(22,24),(22,23),(0,120)=&(0,121)=k(22,24),(0,6);:_ZN3Mtx11MtxListeneraSERKS0_;2A.;__base_ctor::(0,122)=#(22,24),(0,6),(22,23),(0,120),(0,6);:_ZN3Mtx11MtxListenerC2ERKS0_;2A.;__comp_ctor::(0,122):_ZN3Mtx11MtxListenerC1ERKS0_;2A.;__base_ctor::(0,123)=#(22,24),(0,6),(22,23),(0,6);:_ZN3Mtx11MtxListenerC2Ev;2A.;__comp_ctor::(0,123):_ZN3Mtx11MtxListenerC1Ev;2A.;;~%(22,24);",128,0,353,0
	.stabs	"XmlListenerT<char>:Tt(0,124)=s4_vptr$XmlListenerT:(0,100),0,32;mtxEncoding::(0,125)=#(0,124),(0,6),(0,126)=*(0,124),(19,27),(0,6);:_ZN3Mtx12XmlListenerTIcE11mtxEncodingEPKc;2A*0;(0,124);;mtxTagStart::(0,127)=#(0,124),(0,6),(0,126),(19,27),(0,3),(0,6);:_ZN3Mtx12XmlListenerTIcE11mtxTagStartEPKci;2A*1;(0,124);;mtxTagAttr::(0,128)=#(0,124),(0,6),(0,126),(19,27),(19,27),(0,6);:_ZN3Mtx12XmlListenerTIcE10mtxTagAttrEPKcS3_;2A*2;(0,124);;mtxTagStartEnd::(0,129)=#(0,124),(0,6),(0,126),(0,6);:_ZN3Mtx12XmlListenerTIcE14mtxTagStartEndEv;2A*3;(0,124);;mtxTagData::(0,127):_ZN3Mtx12XmlListenerTIcE10mtxTagDataEPKci;2A*4;(0,124);;mtxTagEnd::(0,127):_ZN3Mtx12XmlListenerTIcE9mtxTagEndEPKci;2A*5;(0,124);;mtxParseError::(0,129):_ZN3Mtx12XmlListenerTIcE13mtxParseErrorEv;2A*6;(0,124);;mtxEmptyTagEnd::(0,129):_ZN3Mtx12XmlListenerTIcE14mtxEmptyTagEndEv;2A*7;(0,124);;operator=::(0,130)=#(0,124),(0,131)=&(0,124),(0,126),(0,132)=&(0,133)=k(0,124),(0,6);:_ZN3Mtx12XmlListenerTIcEaSERKS1_;2A.;__base_ctor::(0,134)=#(0,124),(0,6),(0,126),(0,132),(0,6);:_ZN3Mtx12XmlListenerTIcEC2ERKS1_;2A.;__comp_ctor::(0,134):_ZN3Mtx12XmlListenerTIcEC1ERKS1_;2A.;__base_ctor::(0,135)=#(0,124),(0,6),(0,126),(0,6);:_ZN3Mtx12XmlListenerTIcEC2Ev;2A.;__comp_ctor::(0,135):_ZN3Mtx12XmlListenerTIcEC1Ev;2A.;;~%(0,124);",128,0,299,0
	.stabs	"HttpConnectionListener:Tt(0,67)=s4!1,020,(0,136)=xsConnectionListener:;httpFinished::(0,137)=#(0,67),(0,6),(0,138)=*(0,67),(0,90),(0,3),(0,6);:_ZN6MAUtil22HttpConnectionListener12httpFinishedEPNS_14HttpConnectionEi;2A*4;(0,67);;operator=::(0,139)=#(0,67),(0,140)=&(0,67),(0,138),(0,141)=&(0,142)=k(0,67),(0,6);:_ZN6MAUtil22HttpConnectionListeneraSERKS0_;2A.;__base_ctor::(0,143)=#(0,67),(0,6),(0,138),(0,141),(0,6);:_ZN6MAUtil22HttpConnectionListenerC2ERKS0_;2A.;__comp_ctor::(0,143):_ZN6MAUtil22HttpConnectionListenerC1ERKS0_;2A.;__base_ctor::(0,144)=#(0,67),(0,6),(0,138),(0,6);:_ZN6MAUtil22HttpConnectionListenerC2Ev;2A.;__comp_ctor::(0,144):_ZN6MAUtil22HttpConnectionListenerC1Ev;2A.;;~%(0,136);",128,0,203,0
	.stabs	"ConnListener:Tt(17,167)=s8_vptr$ConnListener:(0,100),0,32;_mConn:/0(3,10),32,32;connEvent::(0,145)=#(17,167),(0,6),(17,166),(0,146)=&(0,147)=k(3,89),(0,6);:_ZN6MAUtil12ConnListener9connEventERK15MAConnEventData;2A*0;(17,167);;operator=::(0,148)=#(17,167),(0,149)=&(17,167),(17,166),(0,150)=&(0,151)=k(17,167),(0,6);:_ZN6MAUtil12ConnListeneraSERKS0_;2A.;__base_ctor::(0,152)=#(17,167),(0,6),(17,166),(0,150),(0,6);:_ZN6MAUtil12ConnListenerC2ERKS0_;2A.;__comp_ctor::(0,152):_ZN6MAUtil12ConnListenerC1ERKS0_;2A.;__base_ctor::(0,153)=#(17,167),(0,6),(17,166),(0,6);:_ZN6MAUtil12ConnListenerC2Ev;2A.;__comp_ctor::(0,153):_ZN6MAUtil12ConnListenerC1Ev;2A.;;~%(17,167);",128,0,86,0
	.stabs	"WidgetListener:Tt(8,33)=s4_vptr$WidgetListener:(0,100),0,32;triggered::(0,154)=#(8,33),(0,6),(8,32),(8,3),(0,6);:_ZN4MAUI14WidgetListener9triggeredEPNS_6WidgetE;2A*0;(8,33);;selectionChanged::(0,155)=#(8,33),(0,6),(8,32),(8,3),(0,4),(0,6);:_ZN4MAUI14WidgetListener16selectionChangedEPNS_6WidgetEb;2A*1;(8,33);;enableStateChanged::(0,155):_ZN4MAUI14WidgetListener18enableStateChangedEPNS_6WidgetEb;2A*2;(8,33);;boundsChanged::(0,156)=#(8,33),(0,6),(8,32),(8,3),(19,33),(0,6);:_ZN4MAUI14WidgetListener13boundsChangedEPNS_6WidgetERKN6MAUtil4RectE;2A*3;(8,33);;operator=::(0,157)=#(8,33),(0,158)=&(8,33),(8,32),(0,159)=&(0,160)=k(8,33),(0,6);:_ZN4MAUI14WidgetListeneraSERKS0_;2A.;__base_ctor::(0,161)=#(8,33),(0,6),(8,32),(0,159),(0,6);:_ZN4MAUI14WidgetListenerC2ERKS0_;2A.;__comp_ctor::(0,161):_ZN4MAUI14WidgetListenerC1ERKS0_;2A.;__base_ctor::(0,162)=#(8,33),(0,6),(8,32),(0,6);:_ZN4MAUI14WidgetListenerC2Ev;2A.;__comp_ctor::(0,162):_ZN4MAUI14WidgetListenerC1Ev;2A.;;~%(8,33);",128,0,55,0
	.stabs	"RefCounted:Tt(0,163)=s8_vptr$RefCounted:(0,100),0,32;mRefCount:/0(0,3),32,32;__base_ctor::(0,164)=#(0,163),(0,6),(0,165)=*(0,163),(0,3),(0,6);:_ZN6MAUtil10RefCountedC2Ei;2A.;__comp_ctor::(0,164):_ZN6MAUtil10RefCountedC1Ei;2A.;addRef::(0,166)=#(0,163),(0,6),(0,165),(0,6);:_ZN6MAUtil10RefCounted6addRefEv;2A.;release::(0,166):_ZN6MAUtil10RefCounted7releaseEv;2A.;getRefCount::(0,167)=#(0,163),(0,3),(0,165),(0,6);:_ZN6MAUtil10RefCounted11getRefCountEv;2A.;__base_dtor::(0,166):_ZN6MAUtil10RefCountedD2Ev;2A.;__comp_dtor::(0,166):_ZN6MAUtil10RefCountedD1Ev;2A*0;(0,163);;__deleting_dtor::(0,166):_ZN6MAUtil10RefCountedD0Ev;2A*1;(0,163);;operator=::(0,168)=#(0,163),(0,169)=&(0,163),(0,165),(0,170)=&(0,171)=k(0,163),(0,6);:_ZN6MAUtil10RefCountedaSERKS0_;2A.;__base_ctor::(0,172)=#(0,163),(0,6),(0,165),(0,170),(0,6);:_ZN6MAUtil10RefCountedC2ERKS0_;2A.;__comp_ctor::(0,172):_ZN6MAUtil10RefCountedC1ERKS0_;2A.;;~%(0,163);",128,0,28,0
	.ctor __GLOBAL__I__ZN15AlbumViewScreenC2EP4Feed
	.dtor __GLOBAL__D__ZN15AlbumViewScreenC2EP4Feed
	.global	__ZTV15AlbumViewScreen
.data
	.align 4
__ZTV15AlbumViewScreen:
	.long	0
	.long	0
	.long	__ZN15AlbumViewScreenD1Ev
	.long	__ZN15AlbumViewScreenD0Ev
	.long	__ZN4MAUI6Screen13keyPressEventEii
	.long	__ZN4MAUI6Screen15keyReleaseEventEii
	.long	__ZN6MAUtil11KeyListener9charEventEj
	.long	__ZN15AlbumViewScreen13keyPressEventEi
	.long	__ZN6MAUtil11KeyListener15keyReleaseEventEi
	.long	__ZN15AlbumViewScreen4showEv
	.long	__ZN15AlbumViewScreen17pointerPressEventE9MAPoint2d
	.long	__ZN15AlbumViewScreen19pointerReleaseEventE9MAPoint2d
	.long	__ZN15AlbumViewScreen16pointerMoveEventE9MAPoint2d
	.long	__ZN15AlbumViewScreen4hideEv
	.long	__ZN15AlbumViewScreen12httpFinishedEPN6MAUtil14HttpConnectionEi
	.long	__ZN15AlbumViewScreen16connReadFinishedEPN6MAUtil10ConnectionEi
	.long	__ZN15AlbumViewScreen11xcConnErrorEi
	.long	__ZN15AlbumViewScreen11mtxEncodingEPKc
	.long	__ZN15AlbumViewScreen11mtxTagStartEPKci
	.long	__ZN15AlbumViewScreen10mtxTagAttrEPKcS1_
	.long	__ZN15AlbumViewScreen10mtxTagDataEPKci
	.long	__ZN15AlbumViewScreen9mtxTagEndEPKci
	.long	__ZN15AlbumViewScreen13mtxParseErrorEv
	.long	__ZN15AlbumViewScreen14mtxEmptyTagEndEv
	.long	__ZN15AlbumViewScreen14mtxTagStartEndEv
	.long	-4
	.long	0
	.long	__ZThn4_N15AlbumViewScreenD1Ev
	.long	__ZThn4_N15AlbumViewScreenD0Ev
	.long	__ZThn4_N15AlbumViewScreen17pointerPressEventE9MAPoint2d
	.long	__ZThn4_N15AlbumViewScreen16pointerMoveEventE9MAPoint2d
	.long	__ZThn4_N15AlbumViewScreen19pointerReleaseEventE9MAPoint2d
	.long	-12
	.long	0
	.long	__ZN4MAUI14WidgetListener9triggeredEPNS_6WidgetE
	.long	__ZN4MAUI14WidgetListener16selectionChangedEPNS_6WidgetEb
	.long	__ZN4MAUI14WidgetListener18enableStateChangedEPNS_6WidgetEb
	.long	__ZN4MAUI14WidgetListener13boundsChangedEPNS_6WidgetERKN6MAUtil4RectE
	.long	-16
	.long	0
	.long	__ZThn16_N15AlbumViewScreen11xcConnErrorEi
	.long	-20
	.long	0
	.long	__ZThn20_N15AlbumViewScreen11mtxEncodingEPKc
	.long	__ZThn20_N15AlbumViewScreen11mtxTagStartEPKci
	.long	__ZThn20_N15AlbumViewScreen10mtxTagAttrEPKcS1_
	.long	__ZThn20_N15AlbumViewScreen14mtxTagStartEndEv
	.long	__ZThn20_N15AlbumViewScreen10mtxTagDataEPKci
	.long	__ZThn20_N15AlbumViewScreen9mtxTagEndEPKci
	.long	__ZThn20_N15AlbumViewScreen13mtxParseErrorEv
	.long	__ZThn20_N15AlbumViewScreen14mtxEmptyTagEndEv
	.long	__ZN3Mtx11XmlListener19mtxUnicodeCharacterEi
	.long	-24
	.long	0
	.long	__ZN6MAUtil18ConnectionListener15connectFinishedEPNS_10ConnectionEi
	.long	__ZN6MAUtil18ConnectionListener16connRecvFinishedEPNS_10ConnectionEi
	.long	__ZN6MAUtil18ConnectionListener17connWriteFinishedEPNS_10ConnectionEi
	.long	__ZThn24_N15AlbumViewScreen16connReadFinishedEPN6MAUtil10ConnectionEi
	.long	__ZThn24_N15AlbumViewScreen12httpFinishedEPN6MAUtil14HttpConnectionEi
	.lcomm	_TRADE, 4 ; size=4
	.lcomm	_CARDS, 4 ; size=4
	.lcomm	_ALBUMS, 4 ; size=4
	.lcomm	_USER, 4 ; size=4
	.lcomm	_URL, 4 ; size=4
	.lcomm	_base64_chars, 4 ; size=4
LC0:
	.ascii "cards\0"
	.align 4
_xml_carddone:
	.long	LC0
LC1:
	.ascii "error\0"
	.align 4
_xml_error:
	.long	LC1
LC2:
	.ascii ",\0"
	.align 4
_delim:
	.long	LC2
LC3:
	.ascii "backurl\0"
	.align 4
_xml_backurl:
	.long	LC3
LC4:
	.ascii "value\0"
	.align 4
_xml_value:
	.long	LC4
LC5:
	.ascii "rate\0"
	.align 4
_xml_rate:
	.long	LC5
LC6:
	.ascii "fronturl\0"
	.align 4
_xml_fronturl:
	.long	LC6
LC7:
	.ascii "thumburl\0"
	.align 4
_xml_thumburl:
	.long	LC7
LC8:
	.ascii "description\0"
	.align 4
_xml_carddescription:
	.long	LC8
LC9:
	.ascii "cardid\0"
	.align 4
_xml_cardid:
	.long	LC9
LC10:
	.ascii "Empty\0"
	.align 4
_empty:
	.long	LC10
LC11:
	.ascii "fd.sav\0"
	.align 4
_FEED:
	.long	LC11
LC12:
	.ascii "true\0"
	.align 4
_truesz:
	.long	LC12
LC13:
	.ascii "#\0"
	.align 4
_newline:
	.long	LC13
LC14:
	.ascii "AUTH_PW\0"
	.align 4
_auth_pw:
	.long	LC14
LC15:
	.ascii "AUTH_USER\0"
	.align 4
_auth_user:
	.long	LC15
LC16:
	.ascii "Checking for new cards...\0"
	.align 4
_checking_cards:
	.long	LC16
LC17:
	.ascii "Select\0"
	.align 4
_select:
	.long	LC17
LC18:
	.ascii "Send Album\0"
	.align 4
_tradelbl:
	.long	LC18
LC19:
	.ascii "Exit\0"
	.align 4
_exit:
	.long	LC19
	.align 4
__ZTVN4MAUI14WidgetListenerE:
	.long	0
	.long	0
	.long	__ZN4MAUI14WidgetListener9triggeredEPNS_6WidgetE
	.long	__ZN4MAUI14WidgetListener16selectionChangedEPNS_6WidgetEb
	.long	__ZN4MAUI14WidgetListener18enableStateChangedEPNS_6WidgetEb
	.long	__ZN4MAUI14WidgetListener13boundsChangedEPNS_6WidgetERKN6MAUtil4RectE
	.align 4
__ZTV10XCListener:
	.long	0
	.long	0
	.long	___cxa_pure_virtual
	.align 4
__ZTVN3Mtx12XmlListenerTIcEE:
	.long	0
	.long	0
	.long	___cxa_pure_virtual
	.long	___cxa_pure_virtual
	.long	___cxa_pure_virtual
	.long	___cxa_pure_virtual
	.long	___cxa_pure_virtual
	.long	___cxa_pure_virtual
	.long	___cxa_pure_virtual
	.long	___cxa_pure_virtual
	.align 4
__ZTVN6MAUtil22HttpConnectionListenerE:
	.long	0
	.long	0
	.long	__ZN6MAUtil18ConnectionListener15connectFinishedEPNS_10ConnectionEi
	.long	__ZN6MAUtil18ConnectionListener16connRecvFinishedEPNS_10ConnectionEi
	.long	__ZN6MAUtil18ConnectionListener17connWriteFinishedEPNS_10ConnectionEi
	.long	__ZN6MAUtil18ConnectionListener16connReadFinishedEPNS_10ConnectionEi
	.long	___cxa_pure_virtual
.code
	.stabs	"_ZN4MAUI14WidgetListener9triggeredEPNS_6WidgetE:f(0,6)",36,0,60,__ZN4MAUI14WidgetListener9triggeredEPNS_6WidgetE
	.stabs	"this:P(8,44)",64,0,60,12
	.stabs	"widget:P(8,3)",64,0,60,13

.func __ZN4MAUI14WidgetListener9triggeredEPNS_6WidgetE, 2, void
	.stabs	"c:/Apps/MoSync2.4/include/MAUI/Widget.h",132,0,0,Ltext1
Ltext1:
	.line 60
	push fr,fr
	ld   fr,sp
	add  fr,#0x4
	.line 60
	pop  fr,fr
	ret
Lscope0:
	.stabs	"_ZN4MAUI14WidgetListener16selectionChangedEPNS_6WidgetEb:f(0,6)",36,0,63,__ZN4MAUI14WidgetListener16selectionChangedEPNS_6WidgetEb
	.stabs	"this:P(8,44)",64,0,63,12
	.stabs	"widget:P(8,3)",64,0,63,13
	.stabs	"selected:P(0,4)",64,0,63,14

.func __ZN4MAUI14WidgetListener16selectionChangedEPNS_6WidgetEb, 3, void
	.line 63
	push fr,fr
	ld   fr,sp
	add  fr,#0x4
	.line 63
	pop  fr,fr
	ret
Lscope1:
	.stabs	"_ZN4MAUI14WidgetListener18enableStateChangedEPNS_6WidgetEb:f(0,6)",36,0,64,__ZN4MAUI14WidgetListener18enableStateChangedEPNS_6WidgetEb
	.stabs	"this:P(8,44)",64,0,64,12
	.stabs	"widget:P(8,3)",64,0,64,13
	.stabs	"enabled:P(0,4)",64,0,64,14

.func __ZN4MAUI14WidgetListener18enableStateChangedEPNS_6WidgetEb, 3, void
	.line 64
	push fr,fr
	ld   fr,sp
	add  fr,#0x4
	.line 64
	pop  fr,fr
	ret
Lscope2:
	.stabs	"_ZN4MAUI14WidgetListener13boundsChangedEPNS_6WidgetERKN6MAUtil4RectE:f(0,6)",36,0,67,__ZN4MAUI14WidgetListener13boundsChangedEPNS_6WidgetERKN6MAUtil4RectE
	.stabs	"this:P(8,44)",64,0,67,12
	.stabs	"widget:P(8,3)",64,0,67,13
	.stabs	"bounds:P(19,33)",64,0,67,14

.func __ZN4MAUI14WidgetListener13boundsChangedEPNS_6WidgetERKN6MAUtil4RectE, 3, void
	.line 67
	push fr,fr
	ld   fr,sp
	add  fr,#0x4
	.line 67
	pop  fr,fr
	ret
Lscope3:
	.stabs	"_ZN6MAUtil11KeyListener15keyReleaseEventEi:f(0,6)",36,0,58,__ZN6MAUtil11KeyListener15keyReleaseEventEi
	.stabs	"this:P(0,173)=k(17,45)",64,0,58,12
	.stabs	"keyCode:P(0,3)",64,0,58,13

.func __ZN6MAUtil11KeyListener15keyReleaseEventEi, 2, void
	.stabs	"c:/Apps/MoSync2.4/include/MAUtil/Environment.h",132,0,0,Ltext2
Ltext2:
	.line 58
	push fr,fr
	ld   fr,sp
	add  fr,#0x4
	.line 58
	pop  fr,fr
	ret
Lscope4:
	.stabs	"_ZN4MAUI6Screen13keyPressEventEii:f(0,6)",36,0,60,__ZN4MAUI6Screen13keyPressEventEii
	.stabs	"this:P(0,174)=k(0,68)",64,0,60,12
	.stabs	"keyCode:P(0,3)",64,0,60,13
	.stabs	"nativeCode:P(0,3)",64,0,60,14

.func __ZN4MAUI6Screen13keyPressEventEii, 3, void
	.stabs	"c:/Apps/MoSync2.4/include/MAUI/Screen.h",132,0,0,Ltext3
Ltext3:
	.line 60
	push fr,fr
	ld   fr,sp
	add  fr,#0x4
	.line 60
	pop  fr,fr
	ret
Lscope5:
	.stabs	"_ZN4MAUI6Screen15keyReleaseEventEii:f(0,6)",36,0,64,__ZN4MAUI6Screen15keyReleaseEventEii
	.stabs	"this:P(0,174)",64,0,64,12
	.stabs	"keyCode:P(0,3)",64,0,64,13
	.stabs	"nativeCode:P(0,3)",64,0,64,14

.func __ZN4MAUI6Screen15keyReleaseEventEii, 3, void
	.line 64
	push fr,fr
	ld   fr,sp
	add  fr,#0x4
	.line 64
	pop  fr,fr
	ret
Lscope6:
	.set	%0=__ZN15AlbumViewScreen19pointerReleaseEventE9MAPoint2d
	.stabs	"this:P(0,175)=k(0,80)",64,0,78,12
	.stabs	"point:P(3,23)",64,0,78,30
	.global	__ZThn4_N15AlbumViewScreen19pointerReleaseEventE9MAPoint2d

.func __ZThn4_N15AlbumViewScreen19pointerReleaseEventE9MAPoint2d, 3, void
	.stabs	"C:\\GameCards Core\\GameCards\\MobidexANC\\/AlbumViewScreen.h",132,0,0,Ltext4
Ltext4:
	.line 17
	push rt,fr
	ld   fr,sp
	add  fr,#0x8
	.line 17
	add  i0,#0xfffffffc
	call &%0 ; call non-native
	pop  rt,fr
	ret
Lscope7:
	.stabs	"_ZN15AlbumViewScreen19pointerReleaseEventE9MAPoint2d:F(0,6)",36,0,78,__ZN15AlbumViewScreen19pointerReleaseEventE9MAPoint2d
	.stabs	"this:P(0,175)",64,0,78,5
	.stabs	"point:P(3,23)",64,0,78,13
	.global	__ZN15AlbumViewScreen19pointerReleaseEventE9MAPoint2d

.func __ZN15AlbumViewScreen19pointerReleaseEventE9MAPoint2d, 3, void
	.stabs	"C:\\GameCards Core\\GameCards\\MobidexANC\\AlbumViewScreen.cpp",132,0,0,Ltext5
Ltext5:
	.line 78
	push rt,d1
	ld   fr,sp
	add  fr,#0x10
	ld   d1,i0
	.dlab LBB2
	.line 79
	ld   r14,[i0,2272]
	ld   r0,#0x8
	jc   gt,r14,r0,#L10
	.line 80
	ld.b r14,[i0,2278]
	and  r14,#0xff  ; zero extend
	ld   r0,#0x0
	jc   ne,r14,r0,#L18
	.line 82
	ld.b r0,[i0,2277]
	and  r0,#0xff  ; zero extend
	jc   eq,r0,r14,#L13
	.line 83
	ld   r14,[i0]
	ld   d0,[r14,20]
	ld   i1,#0x11d
	.line 85
	call d0 ; call non-native
L10:
	.line 88
	ld   r14,#0x0
	ld   [d1,2272],r14
	.dlab LBE2
	pop  rt,d1
	ret
L13:
	.dlab LBB3
	.line 84
	ld.b r14,[i0,2276]
	and  r14,#0xff  ; zero extend
	jc   eq,r14,r0,#L10
	.line 85
	ld   r14,[i0]
	ld   d0,[r14,20]
	ld   i1,#0x11c
	call d0 ; call non-native
	jp   #L10
L18:
	.line 81
	ld   r14,[i0]
	ld   d0,[r14,20]
	ld   i1,#0x11e
	.line 85
	call d0 ; call non-native
	jp   #L10
	.dlab LBE3
Lscope8:
	.stabs	"_ZN15AlbumViewScreen10locateItemE9MAPoint2d:F(0,6)",36,0,92,__ZN15AlbumViewScreen10locateItemE9MAPoint2d
	.stabs	"this:P(0,175)",64,0,92,6
	.stabs	"point:P(3,23)",64,0,92,7
	.global	__ZN15AlbumViewScreen10locateItemE9MAPoint2d

.func __ZN15AlbumViewScreen10locateItemE9MAPoint2d, 3, void
	.line 92
	push rt,d4
	sub  sp,#0xc
	ld   fr,sp
	add  fr,#0x28
	ld   d2,i0
	ld   d3,i1
	ld   d4,i2
	.dlab LBB4
	.dlab LBB5
	.line 93
	ld   i0,[i0,2280]
	ld   i1,[&_truesz]
	call &__ZN4Feed8setTouchEPKc ; call non-native
	and  r14,#0xff  ; zero extend
	ld   r0,#0x0
	jc   ne,r14,r0,#L47
L20:
	.line 96
	ld   r14,#0x0
	ld.b [d2,2276],r14
	.line 97
	ld.b [d2,2277],r14
	.line 98
	ld.b [d2,2278],r14
	.dlab LBB6
	.dlab LBB7
	.stabs	"c:/Apps/MoSync2.4/include/MAUtil/Geometry.h",132,0,0,Ltext6
Ltext6:
	.line 41
	ld   [fr,-40],d3
	ld   [fr,-36],d4
	.dlab LBE7
	.dlab LBE6
	.dlab LBB8
	.stabs	"C:\\GameCards Core\\GameCards\\MobidexANC\\AlbumViewScreen.cpp",132,0,0,Ltext7
Ltext7:
	.line 102
	ld   d1,#0x0
	.dlab LBB9
	.dlab LBB10
	.dlab LBB11
	.stabs	"c:/Apps/MoSync2.4/include/MAUtil/Vector.h",132,0,0,Ltext8
Ltext8:
	.line 355
	ld   i0,d2
	call &__ZN4MAUI6Screen7getMainEv ; call non-native
	ld   i0,r14
	call &__ZN4MAUI6Widget11getChildrenEv ; call non-native
	.dlab LBB12
	ld   r14,[r14,8]
	.dlab LBE12
	.dlab LBE11
	ld   i0,[r14]
	call &__ZN4MAUI6Widget11getChildrenEv ; call non-native
	.dlab LBB13
	ld   r14,[r14,8]
	add  r14,#0x8
	.dlab LBE13
	.dlab LBE10
	ld   i0,[r14]
	call &__ZN4MAUI6Widget11getChildrenEv ; call non-native
	.dlab LBB14
	.line 258
	ld   r14,[r14]
	.dlab LBE14
	.dlab LBE9
	.line 359
	jc   le,r14,d1,#L48
L34:
	.dlab LBB15
	.dlab LBB16
	.dlab LBB17
	.line 355
	ld   i0,d2
	call &__ZN4MAUI6Screen7getMainEv ; call non-native
	ld   i0,r14
	call &__ZN4MAUI6Widget11getChildrenEv ; call non-native
	.dlab LBB18
	ld   r14,[r14,8]
	.dlab LBE18
	.dlab LBE17
	ld   i0,[r14]
	call &__ZN4MAUI6Widget11getChildrenEv ; call non-native
	.dlab LBB19
	ld   r14,[r14,8]
	add  r14,#0x8
	.dlab LBE19
	.dlab LBE16
	ld   i0,[r14]
	call &__ZN4MAUI6Widget11getChildrenEv ; call non-native
	.dlab LBB20
	ld   r0,d1
	sll  r0,#0x2
	ld   r14,[r14,8]
	add  r0,r14
	.dlab LBE20
	.dlab LBE15
	ld   i0,[r0]
	ld   r14,[i0]
	ld   d0,[r14,40]
	ld   i1,fr
	add  i1,#0xffffffd8
	call d0 ; call non-native
	and  r14,#0xff  ; zero extend
	ld   r0,#0x0
	jc   eq,r14,r0,#L26
	.stabs	"C:\\GameCards Core\\GameCards\\MobidexANC\\AlbumViewScreen.cpp",132,0,0,Ltext9
Ltext9:
	.line 107
	ld   r14,#0x1
	ld.b [d2,2276],r14
L26:
	.line 102
	add  d1,#0x1
	.dlab LBB21
	.dlab LBB22
	.dlab LBB23
	.stabs	"c:/Apps/MoSync2.4/include/MAUtil/Vector.h",132,0,0,Ltext10
Ltext10:
	.line 355
	ld   i0,d2
	call &__ZN4MAUI6Screen7getMainEv ; call non-native
	ld   i0,r14
	call &__ZN4MAUI6Widget11getChildrenEv ; call non-native
	.dlab LBB24
	ld   r14,[r14,8]
	.dlab LBE24
	.dlab LBE23
	ld   i0,[r14]
	call &__ZN4MAUI6Widget11getChildrenEv ; call non-native
	.dlab LBB25
	ld   r14,[r14,8]
	add  r14,#0x8
	.dlab LBE25
	.dlab LBE22
	ld   i0,[r14]
	call &__ZN4MAUI6Widget11getChildrenEv ; call non-native
	.dlab LBB26
	.line 258
	ld   r14,[r14]
	.dlab LBE26
	.dlab LBE21
	.line 359
	jc   gt,r14,d1,#L34
L48:
	.dlab LBE8
	.dlab LBB27
	.stabs	"C:\\GameCards Core\\GameCards\\MobidexANC\\AlbumViewScreen.cpp",132,0,0,Ltext11
Ltext11:
	.line 110
	ld   d1,#0x0
	jp   #L35
L46:
	.dlab LBB28
	.dlab LBB29
	.stabs	"c:/Apps/MoSync2.4/include/MAUtil/Vector.h",132,0,0,Ltext12
Ltext12:
	.line 355
	ld   i0,d2
	call &__ZN4MAUI6Screen7getMainEv ; call non-native
	ld   i0,r14
	call &__ZN4MAUI6Widget11getChildrenEv ; call non-native
	.dlab LBB30
	ld   r14,[r14,8]
	add  r14,#0x4
	.dlab LBE30
	.dlab LBE29
	ld   i0,[r14]
	call &__ZN4MAUI6Widget11getChildrenEv ; call non-native
	.dlab LBB31
	ld   r0,d1
	sll  r0,#0x2
	ld   r14,[r14,8]
	add  r0,r14
	.dlab LBE31
	.dlab LBE28
	ld   i0,[r0]
	ld   r14,[i0]
	ld   d0,[r14,40]
	ld   i1,fr
	add  i1,#0xffffffd8
	call d0 ; call non-native
	and  r14,#0xff  ; zero extend
	ld   r0,#0x0
	jc   ne,r14,r0,#L49
	.stabs	"C:\\GameCards Core\\GameCards\\MobidexANC\\AlbumViewScreen.cpp",132,0,0,Ltext13
Ltext13:
	.line 110
	add  d1,#0x1
L35:
	.dlab LBB32
	.dlab LBB33
	.stabs	"c:/Apps/MoSync2.4/include/MAUtil/Vector.h",132,0,0,Ltext14
Ltext14:
	.line 355
	ld   i0,d2
	call &__ZN4MAUI6Screen7getMainEv ; call non-native
	ld   i0,r14
	call &__ZN4MAUI6Widget11getChildrenEv ; call non-native
	.dlab LBB34
	ld   r14,[r14,8]
	add  r14,#0x4
	.dlab LBE34
	.dlab LBE33
	ld   i0,[r14]
	call &__ZN4MAUI6Widget11getChildrenEv ; call non-native
	.dlab LBB35
	.line 258
	ld   r14,[r14]
	.dlab LBE35
	.dlab LBE32
	.line 359
	jc   gt,r14,d1,#L46
L19:
	.dlab LBE27
	.dlab LBE5
	.dlab LBE4
	.stabs	"C:\\GameCards Core\\GameCards\\MobidexANC\\AlbumViewScreen.cpp",132,0,0,Ltext15
Ltext15:
	.line 124
	add  sp,#0xc
	pop  rt,d4
	ret
L47:
	.dlab LBB36
	.dlab LBB37
	.line 94
	ld   d0,fr
	add  d0,#0xffffffe0
	ld   i0,d0
	ld   i1,[d2,2280]
	call &__ZN4Feed6getAllEv ; call non-native
	ld   i0,d0
	call &__ZNK6MAUtil11BasicStringIcE5c_strEv ; call non-native
	ld   i0,[&_FEED]
	ld   i1,r14
	call &__Z8saveDataPKcS0_ ; call non-native
	ld   i0,d0
	call &__ZN6MAUtil11BasicStringIcED1Ev ; call non-native
	jp   #L20
L49:
	.dlab LBB38
	.line 114
	jc   ne,d1,r0,#L43
	.line 115
	ld   r14,#0x1
	ld.b [d2,2277],r14
	.line 116
	ld   [d2,2272],d1
	.dlab LBE38
	.dlab LBE37
	.dlab LBE36
	.line 124
	add  sp,#0xc
	pop  rt,d4
	ret
L43:
	.dlab LBB39
	.dlab LBB40
	.dlab LBB41
	.line 117
	ld   r0,#0x2
	jc   ne,d1,r0,#L19
	.line 118
	ld   r14,#0x1
	ld.b [d2,2278],r14
	.line 119
	ld   r0,#0x0
	ld   [d2,2272],r0
	jp   #L19
	.dlab LBE41
	.dlab LBE40
	.dlab LBE39
	.stabs	"p:(11,1)",128,0,100,-40
	.stabn	192,0,0,LBB5-__ZN15AlbumViewScreen10locateItemE9MAPoint2d
	.stabs	"i:r(0,3)",64,0,102,5
	.stabn	192,0,0,LBB8-__ZN15AlbumViewScreen10locateItemE9MAPoint2d
	.stabn	224,0,0,LBE8-__ZN15AlbumViewScreen10locateItemE9MAPoint2d
	.stabs	"i:r(0,3)",64,0,110,5
	.stabn	192,0,0,LBB27-__ZN15AlbumViewScreen10locateItemE9MAPoint2d
	.stabn	224,0,0,LBE27-__ZN15AlbumViewScreen10locateItemE9MAPoint2d
	.stabn	224,0,0,LBE5-__ZN15AlbumViewScreen10locateItemE9MAPoint2d
	.stabs	"p:(11,1)",128,0,100,-40
	.stabn	192,0,0,LBB37-__ZN15AlbumViewScreen10locateItemE9MAPoint2d
	.stabs	"i:r(0,3)",64,0,110,5
	.stabn	192,0,0,LBB38-__ZN15AlbumViewScreen10locateItemE9MAPoint2d
	.stabn	224,0,0,LBE38-__ZN15AlbumViewScreen10locateItemE9MAPoint2d
	.stabn	224,0,0,LBE37-__ZN15AlbumViewScreen10locateItemE9MAPoint2d
	.stabs	"p:(11,1)",128,0,100,-40
	.stabn	192,0,0,LBB40-__ZN15AlbumViewScreen10locateItemE9MAPoint2d
	.stabs	"i:r(0,3)",64,0,110,5
	.stabn	192,0,0,LBB41-__ZN15AlbumViewScreen10locateItemE9MAPoint2d
	.stabn	224,0,0,LBE41-__ZN15AlbumViewScreen10locateItemE9MAPoint2d
	.stabn	224,0,0,LBE40-__ZN15AlbumViewScreen10locateItemE9MAPoint2d
Lscope9:
	.set	%1=__ZN15AlbumViewScreen16pointerMoveEventE9MAPoint2d
	.stabs	"this:P(0,175)",64,0,72,12
	.stabs	"point:p(3,23)",160,0,72,-16
	.global	__ZThn4_N15AlbumViewScreen16pointerMoveEventE9MAPoint2d

.func __ZThn4_N15AlbumViewScreen16pointerMoveEventE9MAPoint2d, 3, void
	.stabs	"C:\\GameCards Core\\GameCards\\MobidexANC\\/AlbumViewScreen.h",132,0,0,Ltext16
Ltext16:
	.line 17
	push rt,fr
	sub  sp,#0x8
	ld   fr,sp
	add  fr,#0x10
	ld   [fr,-16],i1
	ld   [fr,-12],i2
	.line 17
	add  i0,#0xfffffffc
	call &%1 ; call non-native
	add  sp,#0x8
	pop  rt,fr
	ret
Lscope10:
	.stabs	"_ZN15AlbumViewScreen16pointerMoveEventE9MAPoint2d:F(0,6)",36,0,72,__ZN15AlbumViewScreen16pointerMoveEventE9MAPoint2d
	.stabs	"this:P(0,175)",64,0,72,4
	.stabs	"point:p(3,23)",160,0,72,-20
	.global	__ZN15AlbumViewScreen16pointerMoveEventE9MAPoint2d

.func __ZN15AlbumViewScreen16pointerMoveEventE9MAPoint2d, 3, void
	.stabs	"C:\\GameCards Core\\GameCards\\MobidexANC\\AlbumViewScreen.cpp",132,0,0,Ltext17
Ltext17:
	.line 72
	push rt,d0
	sub  sp,#0x8
	ld   fr,sp
	add  fr,#0x14
	ld   d0,i0
	ld   [fr,-20],i1
	ld   [fr,-16],i2
	.dlab LBB42
	.line 73
	call &__ZN15AlbumViewScreen10locateItemE9MAPoint2d ; call non-native
	.line 74
	ld   r14,[d0,2272]
	add  r14,#0x1
	ld   [d0,2272],r14
	.dlab LBE42
	add  sp,#0x8
	pop  rt,d0
	ret
Lscope11:
	.set	%2=__ZN15AlbumViewScreen17pointerPressEventE9MAPoint2d
	.stabs	"this:P(0,175)",64,0,49,12
	.stabs	"point:p(3,23)",160,0,49,-16
	.global	__ZThn4_N15AlbumViewScreen17pointerPressEventE9MAPoint2d

.func __ZThn4_N15AlbumViewScreen17pointerPressEventE9MAPoint2d, 3, void
	.stabs	"C:\\GameCards Core\\GameCards\\MobidexANC\\/AlbumViewScreen.h",132,0,0,Ltext18
Ltext18:
	.line 17
	push rt,fr
	sub  sp,#0x8
	ld   fr,sp
	add  fr,#0x10
	ld   [fr,-16],i1
	ld   [fr,-12],i2
	.line 17
	add  i0,#0xfffffffc
	call &%2 ; call non-native
	add  sp,#0x8
	pop  rt,fr
	ret
Lscope12:
	.stabs	"_ZN15AlbumViewScreen17pointerPressEventE9MAPoint2d:F(0,6)",36,0,49,__ZN15AlbumViewScreen17pointerPressEventE9MAPoint2d
	.stabs	"this:P(0,175)",64,0,49,12
	.stabs	"point:p(3,23)",160,0,49,-16
	.global	__ZN15AlbumViewScreen17pointerPressEventE9MAPoint2d

.func __ZN15AlbumViewScreen17pointerPressEventE9MAPoint2d, 3, void
	.stabs	"C:\\GameCards Core\\GameCards\\MobidexANC\\AlbumViewScreen.cpp",132,0,0,Ltext19
Ltext19:
	.line 49
	push rt,fr
	sub  sp,#0x8
	ld   fr,sp
	add  fr,#0x10
	ld   [fr,-16],i1
	ld   [fr,-12],i2
	.dlab LBB43
	.line 50
	call &__ZN15AlbumViewScreen10locateItemE9MAPoint2d ; call non-native
	.dlab LBE43
	add  sp,#0x8
	pop  rt,fr
	ret
Lscope13:
	.stabs	"_ZNK6MAUtil10DictionaryIKNS_11BasicStringIcEENS_4PairIS3_4CardEEE8IteratorneERKS8_:f(0,4)",36,0,243,__ZNK6MAUtil10DictionaryIKNS_11BasicStringIcEENS_4PairIS3_4CardEEE8IteratorneERKS8_
	.stabs	"this:P(0,176)=k(6,48)",64,0,243,12
	.stabs	"o:P(6,50)",64,0,243,13

.func __ZNK6MAUtil10DictionaryIKNS_11BasicStringIcEENS_4PairIS3_4CardEEE8IteratorneERKS8_, 2, int
	.stabs	"c:/Apps/MoSync2.4/include/MAUtil/Dictionary_impl.h",132,0,0,Ltext20
Ltext20:
	.line 243
	push fr,fr
	ld   fr,sp
	add  fr,#0x4
	.dlab LBB44
	.line 244
	ld   r15,#0x0
	ld   r14,[i0]
	ld   i1,[i1]
	jc   eq,r14,i1,#L55
	ld   r15,#0x1
L55:
	.dlab LBE44
	ld   r14,r15
	pop  fr,fr
	ret
Lscope14:
	.stabs	"_ZNK6MAUtil10DictionaryIKNS_11BasicStringIcEENS_4PairIS3_4CardEEE4sizeEv:f(2,1)",36,0,135,__ZNK6MAUtil10DictionaryIKNS_11BasicStringIcEENS_4PairIS3_4CardEEE4sizeEv
	.stabs	"this:P(0,177)=k(6,13)",64,0,135,12

.func __ZNK6MAUtil10DictionaryIKNS_11BasicStringIcEENS_4PairIS3_4CardEEE4sizeEv, 1, int
	.line 135
	push fr,fr
	ld   fr,sp
	add  fr,#0x4
	.line 136
	ld   r14,[i0,24]
	pop  fr,fr
	ret
Lscope15:
	.stabs	"_ZN15AlbumViewScreen4showEv:F(0,6)",36,0,183,__ZN15AlbumViewScreen4showEv
	.stabs	"this:P(0,175)",64,0,183,5
	.global	__ZN15AlbumViewScreen4showEv

.func __ZN15AlbumViewScreen4showEv, 1, void
	.stabs	"C:\\GameCards Core\\GameCards\\MobidexANC\\AlbumViewScreen.cpp",132,0,0,Ltext21
Ltext21:
	.line 183
	push rt,d1
	ld   fr,sp
	add  fr,#0x10
	ld   d1,i0
	.dlab LBB45
	.dlab LBB46
	.stabs	"c:/Apps/MoSync2.4/include/MAUtil/Vector.h",132,0,0,Ltext22
Ltext22:
	.line 355
	ld   i0,[i0,44]
	call &__ZN4MAUI6Widget11getChildrenEv ; call non-native
	ld   d0,r14
	ld   i0,[d1,44]
	call &__ZNK4MAUI14KineticListBox16getSelectedIndexEv ; call non-native
	.dlab LBB47
	sll  r14,#0x2
	ld   d0,[d0,8]
	add  r14,d0
	.dlab LBE47
	.dlab LBE46
	ld   i0,[r14]
	ld   r14,[i0]
	ld   d0,[r14,48]
	ld   i1,#0x1
	call d0 ; call non-native
	.stabs	"C:\\GameCards Core\\GameCards\\MobidexANC\\AlbumViewScreen.cpp",132,0,0,Ltext23
Ltext23:
	.line 185
	ld   i0,d1
	call &__ZN4MAUI6Screen4showEv ; call non-native
	.dlab LBE45
	pop  rt,d1
	ret
Lscope16:
	.stabs	"_ZN15AlbumViewScreen4hideEv:F(0,6)",36,0,188,__ZN15AlbumViewScreen4hideEv
	.stabs	"this:P(0,175)",64,0,188,5
	.global	__ZN15AlbumViewScreen4hideEv

.func __ZN15AlbumViewScreen4hideEv, 1, void
	.line 188
	push rt,d1
	ld   fr,sp
	add  fr,#0x10
	ld   d1,i0
	.dlab LBB48
	.dlab LBB49
	.stabs	"c:/Apps/MoSync2.4/include/MAUtil/Vector.h",132,0,0,Ltext24
Ltext24:
	.line 355
	ld   i0,[i0,44]
	call &__ZN4MAUI6Widget11getChildrenEv ; call non-native
	ld   d0,r14
	ld   i0,[d1,44]
	call &__ZNK4MAUI14KineticListBox16getSelectedIndexEv ; call non-native
	.dlab LBB50
	sll  r14,#0x2
	ld   d0,[d0,8]
	add  r14,d0
	.dlab LBE50
	.dlab LBE49
	ld   i0,[r14]
	ld   r14,[i0]
	ld   d0,[r14,48]
	ld   i1,#0x0
	call d0 ; call non-native
	.stabs	"C:\\GameCards Core\\GameCards\\MobidexANC\\AlbumViewScreen.cpp",132,0,0,Ltext25
Ltext25:
	.line 190
	ld   i0,d1
	call &__ZN4MAUI6Screen4hideEv ; call non-native
	.dlab LBE48
	pop  rt,d1
	ret
Lscope17:
	.set	%3=__ZN15AlbumViewScreen12httpFinishedEPN6MAUtil14HttpConnectionEi
	.stabs	"this:P(0,175)",64,0,225,12
	.stabs	"http:P(0,90)",64,0,225,13
	.stabs	"result:P(0,3)",64,0,225,14
	.global	__ZThn24_N15AlbumViewScreen12httpFinishedEPN6MAUtil14HttpConnectionEi

.func __ZThn24_N15AlbumViewScreen12httpFinishedEPN6MAUtil14HttpConnectionEi, 3, void
	.stabs	"C:\\GameCards Core\\GameCards\\MobidexANC\\/AlbumViewScreen.h",132,0,0,Ltext26
Ltext26:
	.line 17
	push rt,fr
	ld   fr,sp
	add  fr,#0x8
	.line 17
	add  i0,#0xffffffe8
	call &%3 ; call non-native
	pop  rt,fr
	ret
Lscope18:
.data
LC20:
	.ascii "\0"
.code
	.stabs	"_ZN15AlbumViewScreen12httpFinishedEPN6MAUtil14HttpConnectionEi:F(0,6)",36,0,225,__ZN15AlbumViewScreen12httpFinishedEPN6MAUtil14HttpConnectionEi
	.stabs	"this:P(0,175)",64,0,225,6
	.stabs	"http:P(0,90)",64,0,225,7
	.stabs	"result:P(0,3)",64,0,225,4
	.global	__ZN15AlbumViewScreen12httpFinishedEPN6MAUtil14HttpConnectionEi

.func __ZN15AlbumViewScreen12httpFinishedEPN6MAUtil14HttpConnectionEi, 3, void
	.stabs	"C:\\GameCards Core\\GameCards\\MobidexANC\\AlbumViewScreen.cpp",132,0,0,Ltext27
Ltext27:
	.line 225
	push rt,d3
	sub  sp,#0x854
	ld   fr,sp
	add  fr,#0x86c
	ld   d2,i0
	ld   d3,i1
	ld   d0,i2
	.dlab LBB51
	.line 226
	ld   d1,fr
	add  d1,#0xffffffe4
	ld   i0,d1
	ld   i1,#LC20
	call &__ZN6MAUtil11BasicStringIcEC1EPKc ; call non-native
	ld   i0,d2
	add  i0,#0x8cc
	ld   i1,d1
	call &__ZN6MAUtil11BasicStringIcEaSERKS1_ ; call non-native
	ld   i0,d1
	call &__ZN6MAUtil11BasicStringIcED1Ev ; call non-native
	.line 227
	ld   r14,#0xc8
	jc   eq,d0,r14,#L68
	.line 231
	ld   i0,d2
	add  i0,#0x34
	call &__ZN6MAUtil10Connection5closeEv ; call non-native
	.line 232
	ld   i0,d1
	ld   i1,#LC20
	call &__ZN6MAUtil11BasicStringIcEC1EPKc ; call non-native
	ld   i0,[d2,36]
	ld   r14,[i0]
	ld   d0,[r14,92]
	ld   i1,d1
	call d0 ; call non-native
	ld   i0,d1
	call &__ZN6MAUtil11BasicStringIcED1Ev ; call non-native
	.dlab LBE51
	.line 234
	add  sp,#0x854
	pop  rt,d3
	ret
L68:
	.dlab LBB52
	.dlab LBB53
	.line 228
	ld   d0,d2
	add  d0,#0x5c
	add  d1,#0xfffff7b0
	ld   i0,d1
	call &__ZN13XmlConnectionC1Ev ; call non-native
	.dlab LBB54
	ld   i0,d2
	add  i0,#0x64
	ld   i1,fr
	add  i1,#0xfffff79c
	ld   i2,#0x3c
	call &_memcpy ; call non-native
	ld   r14,[fr,-2088]
	ld   [d0,68],r14
	ld   r14,[fr,-2084]
	ld   [d0,72],r14
	ld   i0,d2
	add  i0,#0xa8
	ld   i1,fr
	add  i1,#0xfffff7e0
	ld   i2,#0x800
	call &_memcpy ; call non-native
	ld   r14,[fr,-32]
	ld   [d0,2124],r14
	.dlab LBE54
	.dlab LBE53
	ld   i0,d1
	call &__ZN13XmlConnectionD1Ev ; call non-native
	.line 229
	ld   i0,d0
	ld   i1,d3
	ld   i2,d2
	add  i2,#0x10
	ld   i3,d2
	add  i3,#0x14
	call &__ZN13XmlConnection5parseEPN6MAUtil10ConnectionEP10XCListenerPN3Mtx11XmlListenerE ; call non-native
	.dlab LBE52
	.line 234
	add  sp,#0x854
	pop  rt,d3
	ret
	.stabs	"this:r(0,178)=k(0,179)=*(0,78)",64,0,228,4
	.stabn	192,0,0,LBB53-__ZN15AlbumViewScreen12httpFinishedEPN6MAUtil14HttpConnectionEi
	.stabn	224,0,0,LBE53-__ZN15AlbumViewScreen12httpFinishedEPN6MAUtil14HttpConnectionEi
Lscope19:
	.set	%4=__ZN15AlbumViewScreen16connReadFinishedEPN6MAUtil10ConnectionEi
	.stabs	"this:P(0,175)",64,0,236,12
	.stabs	"conn:P(0,92)",64,0,236,13
	.stabs	"result:P(0,3)",64,0,236,14
	.global	__ZThn24_N15AlbumViewScreen16connReadFinishedEPN6MAUtil10ConnectionEi

.func __ZThn24_N15AlbumViewScreen16connReadFinishedEPN6MAUtil10ConnectionEi, 3, void
	.stabs	"C:\\GameCards Core\\GameCards\\MobidexANC\\/AlbumViewScreen.h",132,0,0,Ltext28
Ltext28:
	.line 17
	push rt,fr
	ld   fr,sp
	add  fr,#0x8
	.line 17
	add  i0,#0xffffffe8
	call &%4 ; call non-native
	pop  rt,fr
	ret
Lscope20:
	.stabs	"_ZN15AlbumViewScreen16connReadFinishedEPN6MAUtil10ConnectionEi:F(0,6)",36,0,236,__ZN15AlbumViewScreen16connReadFinishedEPN6MAUtil10ConnectionEi
	.stabs	"this:P(0,175)",64,0,236,12
	.stabs	"conn:P(0,92)",64,0,236,13
	.stabs	"result:P(0,3)",64,0,236,14
	.global	__ZN15AlbumViewScreen16connReadFinishedEPN6MAUtil10ConnectionEi

.func __ZN15AlbumViewScreen16connReadFinishedEPN6MAUtil10ConnectionEi, 3, void
	.stabs	"C:\\GameCards Core\\GameCards\\MobidexANC\\AlbumViewScreen.cpp",132,0,0,Ltext29
Ltext29:
	.line 236
	push fr,fr
	ld   fr,sp
	add  fr,#0x4
	.line 236
	pop  fr,fr
	ret
Lscope21:
	.set	%5=__ZN15AlbumViewScreen11xcConnErrorEi
	.stabs	"this:P(0,175)",64,0,238,12
	.stabs	"code:P(0,3)",64,0,238,13
	.global	__ZThn16_N15AlbumViewScreen11xcConnErrorEi

.func __ZThn16_N15AlbumViewScreen11xcConnErrorEi, 2, void
	.stabs	"C:\\GameCards Core\\GameCards\\MobidexANC\\/AlbumViewScreen.h",132,0,0,Ltext30
Ltext30:
	.line 17
	push rt,fr
	ld   fr,sp
	add  fr,#0x8
	.line 17
	add  i0,#0xfffffff0
	call &%5 ; call non-native
	pop  rt,fr
	ret
Lscope22:
	.stabs	"_ZN15AlbumViewScreen11xcConnErrorEi:F(0,6)",36,0,238,__ZN15AlbumViewScreen11xcConnErrorEi
	.stabs	"this:P(0,175)",64,0,238,12
	.stabs	"code:P(0,3)",64,0,238,13
	.global	__ZN15AlbumViewScreen11xcConnErrorEi

.func __ZN15AlbumViewScreen11xcConnErrorEi, 2, void
	.stabs	"C:\\GameCards Core\\GameCards\\MobidexANC\\AlbumViewScreen.cpp",132,0,0,Ltext31
Ltext31:
	.line 238
	push fr,fr
	ld   fr,sp
	add  fr,#0x4
	.line 238
	pop  fr,fr
	ret
Lscope23:
	.set	%6=__ZN15AlbumViewScreen11mtxEncodingEPKc
	.stabs	"this:P(0,175)",64,0,242,12
	.global	__ZThn20_N15AlbumViewScreen11mtxEncodingEPKc

.func __ZThn20_N15AlbumViewScreen11mtxEncodingEPKc, 2, void
	.stabs	"C:\\GameCards Core\\GameCards\\MobidexANC\\/AlbumViewScreen.h",132,0,0,Ltext32
Ltext32:
	.line 17
	push rt,fr
	ld   fr,sp
	add  fr,#0x8
	.line 17
	add  i0,#0xffffffec
	call &%6 ; call non-native
	pop  rt,fr
	ret
Lscope24:
	.stabs	"_ZN15AlbumViewScreen11mtxEncodingEPKc:F(0,6)",36,0,242,__ZN15AlbumViewScreen11mtxEncodingEPKc
	.stabs	"this:P(0,175)",64,0,242,12
	.global	__ZN15AlbumViewScreen11mtxEncodingEPKc

.func __ZN15AlbumViewScreen11mtxEncodingEPKc, 2, void
	.stabs	"C:\\GameCards Core\\GameCards\\MobidexANC\\AlbumViewScreen.cpp",132,0,0,Ltext33
Ltext33:
	.line 242
	push fr,fr
	ld   fr,sp
	add  fr,#0x4
	.line 242
	pop  fr,fr
	ret
Lscope25:
	.set	%7=__ZN15AlbumViewScreen11mtxTagStartEPKci
	.stabs	"this:P(0,175)",64,0,245,12
	.stabs	"name:P(19,27)",64,0,245,13
	.stabs	"len:P(0,3)",64,0,245,14
	.global	__ZThn20_N15AlbumViewScreen11mtxTagStartEPKci

.func __ZThn20_N15AlbumViewScreen11mtxTagStartEPKci, 3, void
	.stabs	"C:\\GameCards Core\\GameCards\\MobidexANC\\/AlbumViewScreen.h",132,0,0,Ltext34
Ltext34:
	.line 17
	push rt,fr
	ld   fr,sp
	add  fr,#0x8
	.line 17
	add  i0,#0xffffffec
	call &%7 ; call non-native
	pop  rt,fr
	ret
Lscope26:
	.stabs	"_ZN15AlbumViewScreen11mtxTagStartEPKci:F(0,6)",36,0,245,__ZN15AlbumViewScreen11mtxTagStartEPKci
	.stabs	"this:P(0,175)",64,0,245,5
	.stabs	"name:P(19,27)",64,0,245,13
	.stabs	"len:P(0,3)",64,0,245,14
	.global	__ZN15AlbumViewScreen11mtxTagStartEPKci

.func __ZN15AlbumViewScreen11mtxTagStartEPKci, 3, void
	.stabs	"C:\\GameCards Core\\GameCards\\MobidexANC\\AlbumViewScreen.cpp",132,0,0,Ltext35
Ltext35:
	.line 245
	push rt,d1
	sub  sp,#0x4
	ld   fr,sp
	add  fr,#0x14
	ld   d1,i0
	.dlab LBB55
	.line 246
	ld   d0,fr
	add  d0,#0xffffffec
	ld   i0,d0
	call &__ZN6MAUtil11BasicStringIcEC1EPKc ; call non-native
	ld   i0,d1
	add  i0,#0x8ac
	ld   i1,d0
	call &__ZN6MAUtil11BasicStringIcEaSERKS1_ ; call non-native
	ld   i0,d0
	call &__ZN6MAUtil11BasicStringIcED1Ev ; call non-native
	.dlab LBE55
	add  sp,#0x4
	pop  rt,d1
	ret
Lscope27:
	.set	%8=__ZN15AlbumViewScreen10mtxTagAttrEPKcS1_
	.stabs	"this:P(0,175)",64,0,249,12
	.stabs	"attrName:P(19,27)",64,0,249,13
	.stabs	"attrValue:P(19,27)",64,0,249,14
	.global	__ZThn20_N15AlbumViewScreen10mtxTagAttrEPKcS1_

.func __ZThn20_N15AlbumViewScreen10mtxTagAttrEPKcS1_, 3, void
	.stabs	"C:\\GameCards Core\\GameCards\\MobidexANC\\/AlbumViewScreen.h",132,0,0,Ltext36
Ltext36:
	.line 17
	push rt,fr
	ld   fr,sp
	add  fr,#0x8
	.line 17
	add  i0,#0xffffffec
	call &%8 ; call non-native
	pop  rt,fr
	ret
Lscope28:
	.stabs	"_ZN15AlbumViewScreen10mtxTagAttrEPKcS1_:F(0,6)",36,0,249,__ZN15AlbumViewScreen10mtxTagAttrEPKcS1_
	.stabs	"this:P(0,175)",64,0,249,12
	.stabs	"attrName:P(19,27)",64,0,249,13
	.stabs	"attrValue:P(19,27)",64,0,249,14
	.global	__ZN15AlbumViewScreen10mtxTagAttrEPKcS1_

.func __ZN15AlbumViewScreen10mtxTagAttrEPKcS1_, 3, void
	.stabs	"C:\\GameCards Core\\GameCards\\MobidexANC\\AlbumViewScreen.cpp",132,0,0,Ltext37
Ltext37:
	.line 249
	push fr,fr
	ld   fr,sp
	add  fr,#0x4
	.line 249
	pop  fr,fr
	ret
Lscope29:
	.set	%9=__ZN15AlbumViewScreen10mtxTagDataEPKci
	.stabs	"this:P(0,175)",64,0,253,12
	.stabs	"data:P(19,27)",64,0,253,13
	.stabs	"len:P(0,3)",64,0,253,14
	.global	__ZThn20_N15AlbumViewScreen10mtxTagDataEPKci

.func __ZThn20_N15AlbumViewScreen10mtxTagDataEPKci, 3, void
	.stabs	"C:\\GameCards Core\\GameCards\\MobidexANC\\/AlbumViewScreen.h",132,0,0,Ltext38
Ltext38:
	.line 17
	push rt,fr
	ld   fr,sp
	add  fr,#0x8
	.line 17
	add  i0,#0xffffffec
	call &%9 ; call non-native
	pop  rt,fr
	ret
Lscope30:
	.stabs	"_ZN15AlbumViewScreen10mtxTagDataEPKci:F(0,6)",36,0,253,__ZN15AlbumViewScreen10mtxTagDataEPKci
	.stabs	"this:P(0,175)",64,0,253,5
	.stabs	"data:P(19,27)",64,0,253,6
	.stabs	"len:P(0,3)",64,0,253,14
	.global	__ZN15AlbumViewScreen10mtxTagDataEPKci

.func __ZN15AlbumViewScreen10mtxTagDataEPKci, 3, void
	.stabs	"C:\\GameCards Core\\GameCards\\MobidexANC\\AlbumViewScreen.cpp",132,0,0,Ltext39
Ltext39:
	.line 253
	push rt,d2
	sub  sp,#0x4
	ld   fr,sp
	add  fr,#0x18
	ld   d1,i0
	ld   d2,i1
	.dlab LBB56
	.line 254
	ld   d0,i0
	add  d0,#0x8ac
	ld   i0,d0
	call &__ZNK6MAUtil11BasicStringIcE5c_strEv ; call non-native
	ld   i0,r14
	ld   i1,[&_xml_cardid]
	call &_strcmp ; call non-native
	ld   r0,#0x0
	jc   ne,r14,r0,#L81
	.line 255
	ld   d0,fr
	add  d0,#0xffffffe8
	ld   i0,d0
	ld   i1,d2
	call &__ZN6MAUtil11BasicStringIcEC1EPKc ; call non-native
	ld   i0,d1
	add  i0,#0x8b4
L96:
	.line 269
	ld   i1,d0
	call &__ZN6MAUtil11BasicStringIcEpLERKS1_ ; call non-native
	ld   i0,d0
	call &__ZN6MAUtil11BasicStringIcED1Ev ; call non-native
L80:
	.dlab LBE56
	.line 271
	add  sp,#0x4
	pop  rt,d2
	ret
L81:
	.dlab LBB57
	.line 256
	ld   i0,d0
	call &__ZNK6MAUtil11BasicStringIcE5c_strEv ; call non-native
	ld   i0,r14
	ld   i1,[&_xml_carddescription]
	call &_strcmp ; call non-native
	ld   r0,#0x0
	jc   ne,r14,r0,#L83
	.line 257
	ld   d0,fr
	add  d0,#0xffffffe8
	ld   i0,d0
	ld   i1,d2
	call &__ZN6MAUtil11BasicStringIcEC1EPKc ; call non-native
	ld   i0,d1
	add  i0,#0x8b8
	jp   #L96
L83:
	.line 258
	ld   i0,d0
	call &__ZNK6MAUtil11BasicStringIcE5c_strEv ; call non-native
	ld   i0,r14
	ld   i1,[&_xml_thumburl]
	call &_strcmp ; call non-native
	ld   r0,#0x0
	jc   eq,r14,r0,#L97
	.line 260
	ld   i0,d0
	call &__ZNK6MAUtil11BasicStringIcE5c_strEv ; call non-native
	ld   i0,r14
	ld   i1,[&_xml_fronturl]
	call &_strcmp ; call non-native
	ld   r0,#0x0
	jc   ne,r14,r0,#L87
	.line 261
	ld   d0,fr
	add  d0,#0xffffffe8
	ld   i0,d0
	ld   i1,d2
	call &__ZN6MAUtil11BasicStringIcEC1EPKc ; call non-native
	ld   i0,d1
	add  i0,#0x8c4
	jp   #L96
L97:
	.line 259
	ld   d0,fr
	add  d0,#0xffffffe8
	ld   i0,d0
	ld   i1,d2
	call &__ZN6MAUtil11BasicStringIcEC1EPKc ; call non-native
	ld   i0,d1
	add  i0,#0x8c0
	jp   #L96
L87:
	.line 262
	ld   i0,d0
	call &__ZNK6MAUtil11BasicStringIcE5c_strEv ; call non-native
	ld   i0,r14
	ld   i1,[&_xml_backurl]
	call &_strcmp ; call non-native
	ld   r0,#0x0
	jc   eq,r14,r0,#L98
	.line 264
	ld   i0,d0
	call &__ZNK6MAUtil11BasicStringIcE5c_strEv ; call non-native
	ld   i0,r14
	ld   i1,[&_xml_rate]
	call &_strcmp ; call non-native
	ld   r0,#0x0
	jc   ne,r14,r0,#L91
	.line 265
	ld   d0,fr
	add  d0,#0xffffffe8
	ld   i0,d0
	ld   i1,d2
	call &__ZN6MAUtil11BasicStringIcEC1EPKc ; call non-native
	ld   i0,d1
	add  i0,#0x8d0
	jp   #L96
L98:
	.line 263
	ld   d0,fr
	add  d0,#0xffffffe8
	ld   i0,d0
	ld   i1,d2
	call &__ZN6MAUtil11BasicStringIcEC1EPKc ; call non-native
	ld   i0,d1
	add  i0,#0x8c8
	jp   #L96
L91:
	.line 266
	ld   i0,d0
	call &__ZNK6MAUtil11BasicStringIcE5c_strEv ; call non-native
	ld   i0,r14
	ld   i1,[&_xml_value]
	call &_strcmp ; call non-native
	ld   r0,#0x0
	jc   ne,r14,r0,#L93
	.line 267
	ld   d0,fr
	add  d0,#0xffffffe8
	ld   i0,d0
	ld   i1,d2
	call &__ZN6MAUtil11BasicStringIcEC1EPKc ; call non-native
	ld   i0,d1
	add  i0,#0x8d4
	jp   #L96
L93:
	.line 268
	ld   i0,d0
	call &__ZNK6MAUtil11BasicStringIcE5c_strEv ; call non-native
	ld   i0,r14
	ld   i1,[&_xml_error]
	call &_strcmp ; call non-native
	ld   r0,#0x0
	jc   ne,r14,r0,#L80
	.line 269
	ld   d0,fr
	add  d0,#0xffffffe8
	ld   i0,d0
	ld   i1,d2
	call &__ZN6MAUtil11BasicStringIcEC1EPKc ; call non-native
	ld   i0,d1
	add  i0,#0x8cc
	jp   #L96
	.dlab LBE57
Lscope31:
	.stabs	"_ZN6MAUtil10DictionaryIKNS_11BasicStringIcEENS_4PairIS3_4CardEEE8IteratoraSERKS8_:f(6,45)",36,0,183,__ZN6MAUtil10DictionaryIKNS_11BasicStringIcEENS_4PairIS3_4CardEEE8IteratoraSERKS8_
	.stabs	"this:P(0,180)=k(6,41)",64,0,183,30
	.stabs	"o:P(6,50)",64,0,183,13

.func __ZN6MAUtil10DictionaryIKNS_11BasicStringIcEENS_4PairIS3_4CardEEE8IteratoraSERKS8_, 2, int
	.stabs	"c:/Apps/MoSync2.4/include/MAUtil/Dictionary_impl.h",132,0,0,Ltext40
Ltext40:
	.line 183
	push fr,fr
	ld   fr,sp
	add  fr,#0x4
	ld   r14,i0
	.dlab LBB58
	.line 184
	ld   r0,[i1]
	ld   [i0],r0
	.line 185
	ld   i1,[i1,4]
	ld   [i0,4],i1
	.dlab LBE58
	.line 186
	pop  fr,fr
	ret
Lscope32:
	.set	%10=__ZN15AlbumViewScreen13mtxParseErrorEv
	.stabs	"this:P(0,175)",64,0,311,12
	.global	__ZThn20_N15AlbumViewScreen13mtxParseErrorEv

.func __ZThn20_N15AlbumViewScreen13mtxParseErrorEv, 1, void
	.stabs	"C:\\GameCards Core\\GameCards\\MobidexANC\\/AlbumViewScreen.h",132,0,0,Ltext41
Ltext41:
	.line 17
	push rt,fr
	ld   fr,sp
	add  fr,#0x8
	.line 17
	add  i0,#0xffffffec
	call &%10 ; call non-native
	pop  rt,fr
	ret
Lscope33:
	.stabs	"_ZN15AlbumViewScreen13mtxParseErrorEv:F(0,6)",36,0,311,__ZN15AlbumViewScreen13mtxParseErrorEv
	.stabs	"this:P(0,175)",64,0,311,12
	.global	__ZN15AlbumViewScreen13mtxParseErrorEv

.func __ZN15AlbumViewScreen13mtxParseErrorEv, 1, void
	.stabs	"C:\\GameCards Core\\GameCards\\MobidexANC\\AlbumViewScreen.cpp",132,0,0,Ltext42
Ltext42:
	.line 311
	push fr,fr
	ld   fr,sp
	add  fr,#0x4
	.line 311
	pop  fr,fr
	ret
Lscope34:
	.set	%11=__ZN15AlbumViewScreen14mtxEmptyTagEndEv
	.stabs	"this:P(0,175)",64,0,314,12
	.global	__ZThn20_N15AlbumViewScreen14mtxEmptyTagEndEv

.func __ZThn20_N15AlbumViewScreen14mtxEmptyTagEndEv, 1, void
	.stabs	"C:\\GameCards Core\\GameCards\\MobidexANC\\/AlbumViewScreen.h",132,0,0,Ltext43
Ltext43:
	.line 17
	push rt,fr
	ld   fr,sp
	add  fr,#0x8
	.line 17
	add  i0,#0xffffffec
	call &%11 ; call non-native
	pop  rt,fr
	ret
Lscope35:
	.stabs	"_ZN15AlbumViewScreen14mtxEmptyTagEndEv:F(0,6)",36,0,314,__ZN15AlbumViewScreen14mtxEmptyTagEndEv
	.stabs	"this:P(0,175)",64,0,314,12
	.global	__ZN15AlbumViewScreen14mtxEmptyTagEndEv

.func __ZN15AlbumViewScreen14mtxEmptyTagEndEv, 1, void
	.stabs	"C:\\GameCards Core\\GameCards\\MobidexANC\\AlbumViewScreen.cpp",132,0,0,Ltext44
Ltext44:
	.line 314
	push fr,fr
	ld   fr,sp
	add  fr,#0x4
	.line 314
	pop  fr,fr
	ret
Lscope36:
	.set	%12=__ZN15AlbumViewScreen14mtxTagStartEndEv
	.stabs	"this:P(0,175)",64,0,317,12
	.global	__ZThn20_N15AlbumViewScreen14mtxTagStartEndEv

.func __ZThn20_N15AlbumViewScreen14mtxTagStartEndEv, 1, void
	.stabs	"C:\\GameCards Core\\GameCards\\MobidexANC\\/AlbumViewScreen.h",132,0,0,Ltext45
Ltext45:
	.line 17
	push rt,fr
	ld   fr,sp
	add  fr,#0x8
	.line 17
	add  i0,#0xffffffec
	call &%12 ; call non-native
	pop  rt,fr
	ret
Lscope37:
	.stabs	"_ZN15AlbumViewScreen14mtxTagStartEndEv:F(0,6)",36,0,317,__ZN15AlbumViewScreen14mtxTagStartEndEv
	.stabs	"this:P(0,175)",64,0,317,12
	.global	__ZN15AlbumViewScreen14mtxTagStartEndEv

.func __ZN15AlbumViewScreen14mtxTagStartEndEv, 1, void
	.stabs	"C:\\GameCards Core\\GameCards\\MobidexANC\\AlbumViewScreen.cpp",132,0,0,Ltext46
Ltext46:
	.line 317
	push fr,fr
	ld   fr,sp
	add  fr,#0x4
	.line 317
	pop  fr,fr
	ret
Lscope38:
	.stabs	"_ZN15AlbumViewScreen8getCountEv:F(0,3)",36,0,319,__ZN15AlbumViewScreen8getCountEv
	.stabs	"this:P(0,175)",64,0,319,12
	.global	__ZN15AlbumViewScreen8getCountEv

.func __ZN15AlbumViewScreen8getCountEv, 1, int
	.line 319
	push fr,fr
	ld   fr,sp
	add  fr,#0x4
	.line 321
	ld   r14,[i0,2264]
	pop  fr,fr
	ret
Lscope39:
	.stabs	"_ZN6MAUtil10DictionaryIKNS_11BasicStringIcEENS_4PairIS3_4CardEEE8IteratorC1EP6dict_t:f(0,6)",36,0,174,__ZN6MAUtil10DictionaryIKNS_11BasicStringIcEENS_4PairIS3_4CardEEE8IteratorC1EP6dict_t
	.stabs	"this:P(0,180)",64,0,174,12
	.stabs	"dict:P(27,33)",64,0,174,13

.func __ZN6MAUtil10DictionaryIKNS_11BasicStringIcEENS_4PairIS3_4CardEEE8IteratorC1EP6dict_t, 2, void
	.stabs	"c:/Apps/MoSync2.4/include/MAUtil/Dictionary_impl.h",132,0,0,Ltext47
Ltext47:
	.line 174
	push fr,fr
	ld   fr,sp
	add  fr,#0x4
	.dlab LBB59
	.line 175
	ld   r14,#0x0
	ld   [i0],r14
	ld   [i0,4],i1
	.dlab LBE59
	pop  fr,fr
	ret
Lscope40:
	.stabs	"_ZN6MAUtil10DictionaryIKNS_11BasicStringIcEENS_4PairIS3_4CardEEE3endEv:f(6,10)",36,0,120,__ZN6MAUtil10DictionaryIKNS_11BasicStringIcEENS_4PairIS3_4CardEEE3endEv
	.stabs	"this:P(0,181)=k(6,3)",64,0,120,13

.func __ZN6MAUtil10DictionaryIKNS_11BasicStringIcEENS_4PairIS3_4CardEEE3endEv, 2, int
	.line 120
	push rt,d0
	ld   fr,sp
	add  fr,#0xc
	ld   d0,i0
	.dlab LBB60
	.dlab LBB61
	.line 121
	call &__ZN6MAUtil10DictionaryIKNS_11BasicStringIcEENS_4PairIS3_4CardEEE8IteratorC1EP6dict_t ; call non-native
	.line 122
	ld   r14,#0x0
	ld   [d0],r14
	.dlab LBE61
	.dlab LBE60
	.line 123
	ld   r14,d0
	pop  rt,d0
	ret
	.stabs	"itr:r(0,182)=*(6,10)",64,0,121,4
	.stabn	192,0,0,LBB61-__ZN6MAUtil10DictionaryIKNS_11BasicStringIcEENS_4PairIS3_4CardEEE3endEv
	.stabn	224,0,0,LBE61-__ZN6MAUtil10DictionaryIKNS_11BasicStringIcEENS_4PairIS3_4CardEEE3endEv
Lscope41:
	.stabs	"_ZN6MAUtil10DictionaryIKNS_11BasicStringIcEENS_4PairIS3_4CardEEE8IteratorC1ERKS8_:f(0,6)",36,0,178,__ZN6MAUtil10DictionaryIKNS_11BasicStringIcEENS_4PairIS3_4CardEEE8IteratorC1ERKS8_
	.stabs	"this:P(0,180)",64,0,178,12
	.stabs	"o:P(6,50)",64,0,178,13

.func __ZN6MAUtil10DictionaryIKNS_11BasicStringIcEENS_4PairIS3_4CardEEE8IteratorC1ERKS8_, 2, void
	.line 178
	push fr,fr
	ld   fr,sp
	add  fr,#0x4
	.dlab LBB62
	.line 179
	ld   r14,[i1]
	ld   [i0],r14
	ld   i1,[i1,4]
	ld   [i0,4],i1
	.dlab LBE62
	pop  fr,fr
	ret
Lscope42:
	.stabs	"_ZN6MAUtil7CompareIKNS_11BasicStringIcEEEEiRKT_S6_:f(0,3)",36,0,43,__ZN6MAUtil7CompareIKNS_11BasicStringIcEEEEiRKT_S6_
	.stabs	"a:P(24,11)",64,0,43,5
	.stabs	"b:P(24,11)",64,0,43,6

.func __ZN6MAUtil7CompareIKNS_11BasicStringIcEEEEiRKT_S6_, 2, int
	.stabs	"c:/Apps/MoSync2.4/include/MAUtil/collection_common.h",132,0,0,Ltext48
Ltext48:
	.line 43
	push rt,d2
	ld   fr,sp
	add  fr,#0x14
	ld   d1,i0
	ld   d2,i1
	.dlab LBB63
	.line 44
	call &__ZNK6MAUtil11BasicStringIcEltERKS1_ ; call non-native
	ld   d0,r14
	and  d0,#0xff  ; zero extend
	.line 45
	ld   r0,#0xffffffff
	.line 44
	ld   r14,#0x0
	jc   ne,d0,r14,#L110
	.line 46
	ld   i0,d1
	ld   i1,d2
	call &__ZNK6MAUtil11BasicStringIcEeqERKS1_ ; call non-native
	and  r14,#0xff  ; zero extend
	.line 47
	ld   r0,#0x0
	.line 46
	jc   eq,r14,d0,#L115
L110:
	.dlab LBE63
	.line 49
	ld   r14,r0
	pop  rt,d2
	ret
L115:
	.dlab LBB64
	ld   r0,#0x1
	.dlab LBE64
	ld   r14,r0
	pop  rt,d2
	ret
Lscope43:
	.stabs	"_ZN6MAUtil10DictionaryIKNS_11BasicStringIcEENS_4PairIS3_4CardEEE5beginEv:f(6,10)",36,0,104,__ZN6MAUtil10DictionaryIKNS_11BasicStringIcEENS_4PairIS3_4CardEEE5beginEv
	.stabs	"this:P(0,181)",64,0,104,4

.func __ZN6MAUtil10DictionaryIKNS_11BasicStringIcEENS_4PairIS3_4CardEEE5beginEv, 2, int
	.stabs	"c:/Apps/MoSync2.4/include/MAUtil/Dictionary_impl.h",132,0,0,Ltext49
Ltext49:
	.line 104
	push rt,d1
	ld   fr,sp
	add  fr,#0x10
	ld   d1,i0
	ld   d0,i1
	.dlab LBB65
	.dlab LBB66
	.line 105
	call &__ZN6MAUtil10DictionaryIKNS_11BasicStringIcEENS_4PairIS3_4CardEEE8IteratorC1EP6dict_t ; call non-native
	.line 106
	ld   i0,d0
	call &_dict_first ; call non-native
	ld   [d1],r14
	.dlab LBE66
	.dlab LBE65
	.line 107
	ld   r14,d1
	pop  rt,d1
	ret
	.stabs	"itr:r(0,183)=*(6,10)",64,0,105,5
	.stabn	192,0,0,LBB66-__ZN6MAUtil10DictionaryIKNS_11BasicStringIcEENS_4PairIS3_4CardEEE5beginEv
	.stabn	224,0,0,LBE66-__ZN6MAUtil10DictionaryIKNS_11BasicStringIcEENS_4PairIS3_4CardEEE5beginEv
Lscope44:
.data
LC21:
	.ascii "c:/Apps/MoSync2.4/include/MAUtil/Dictionary_impl.h\0"
.code
	.stabs	"_ZN6MAUtil10DictionaryIKNS_11BasicStringIcEENS_4PairIS3_4CardEEE8IteratorptEv:f(6,43)",36,0,196,__ZN6MAUtil10DictionaryIKNS_11BasicStringIcEENS_4PairIS3_4CardEEE8IteratorptEv
	.stabs	"this:P(0,180)",64,0,196,12

.func __ZN6MAUtil10DictionaryIKNS_11BasicStringIcEENS_4PairIS3_4CardEEE8IteratorptEv, 1, int
	.line 196
	push rt,fr
	ld   fr,sp
	add  fr,#0x8
	.dlab LBB67
	.line 197
	ld   i0,[i0]
	ld   r14,#0x0
	jc   eq,i0,r14,#L120
	.dlab LBE67
	.line 198
	ld   r14,i0
	add  r14,#0x18
	pop  rt,fr
	ret
L120:
	.dlab LBB68
	.line 197
	ld   i0,#LC21
	call &_FileNameFromPath ; call non-native
	ld   i0,#0x6
	ld   i1,r14
	ld   i2,#0xc5
	call &_bfeHandler ; call non-native
	.dlab LBE68
Lscope45:
	.stabs	"_ZN6MAUtil10DictionaryIKNS_11BasicStringIcEENS_4PairIS3_4CardEEE4findERS3_:f(6,10)",36,0,155,__ZN6MAUtil10DictionaryIKNS_11BasicStringIcEENS_4PairIS3_4CardEEE4findERS3_
	.stabs	"this:P(0,181)",64,0,155,5
	.stabs	"key:P(24,11)",64,0,155,6

.func __ZN6MAUtil10DictionaryIKNS_11BasicStringIcEENS_4PairIS3_4CardEEE4findERS3_, 3, int
	.line 155
	push rt,d2
	ld   fr,sp
	add  fr,#0x14
	ld   d0,i0
	ld   d1,i1
	ld   d2,i2
	.dlab LBB69
	.dlab LBB70
	.line 156
	call &__ZN6MAUtil10DictionaryIKNS_11BasicStringIcEENS_4PairIS3_4CardEEE8IteratorC1EP6dict_t ; call non-native
	.line 157
	ld   i0,d1
	ld   i1,d2
	call &_dict_lookup ; call non-native
	ld   [d0],r14
	.dlab LBE70
	.dlab LBE69
	.line 158
	ld   r14,d0
	pop  rt,d2
	ret
	.stabs	"itr:r(0,184)=*(6,10)",64,0,156,4
	.stabn	192,0,0,LBB70-__ZN6MAUtil10DictionaryIKNS_11BasicStringIcEENS_4PairIS3_4CardEEE4findERS3_
	.stabn	224,0,0,LBE70-__ZN6MAUtil10DictionaryIKNS_11BasicStringIcEENS_4PairIS3_4CardEEE4findERS3_
Lscope46:
	.stabs	"_ZN6MAUtil10DictionaryIKNS_11BasicStringIcEENS_4PairIS3_4CardEEE5clearEv:f(0,6)",36,0,78,__ZN6MAUtil10DictionaryIKNS_11BasicStringIcEENS_4PairIS3_4CardEEE5clearEv
	.stabs	"this:P(0,181)",64,0,78,12

.func __ZN6MAUtil10DictionaryIKNS_11BasicStringIcEENS_4PairIS3_4CardEEE5clearEv, 1, void
	.line 78
	push rt,fr
	ld   fr,sp
	add  fr,#0x8
	.dlab LBB71
	.line 79
	call &_dict_free_nodes ; call non-native
	.dlab LBE71
	pop  rt,fr
	ret
Lscope47:
	.stabs	"_ZN6MAUtil10DictionaryIKNS_11BasicStringIcEENS_4PairIS3_4CardEEED2Ev:f(0,6)",36,0,73,__ZN6MAUtil10DictionaryIKNS_11BasicStringIcEENS_4PairIS3_4CardEEED2Ev
	.stabs	"this:P(0,181)",64,0,73,12

.func __ZN6MAUtil10DictionaryIKNS_11BasicStringIcEENS_4PairIS3_4CardEEED2Ev, 1, void
	.line 73
	push rt,fr
	ld   fr,sp
	add  fr,#0x8
	.dlab LBB72
	.line 74
	call &__ZN6MAUtil10DictionaryIKNS_11BasicStringIcEENS_4PairIS3_4CardEEE5clearEv ; call non-native
	.dlab LBE72
	pop  rt,fr
	ret
Lscope48:
	.stabs	"_ZN6MAUtil10DictionaryIKNS_11BasicStringIcEENS_4PairIS3_S2_EEE5clearEv:f(0,6)",36,0,78,__ZN6MAUtil10DictionaryIKNS_11BasicStringIcEENS_4PairIS3_S2_EEE5clearEv
	.stabs	"this:P(0,185)=k(24,3)",64,0,78,12

.func __ZN6MAUtil10DictionaryIKNS_11BasicStringIcEENS_4PairIS3_S2_EEE5clearEv, 1, void
	.line 78
	push rt,fr
	ld   fr,sp
	add  fr,#0x8
	.dlab LBB73
	.line 79
	call &_dict_free_nodes ; call non-native
	.dlab LBE73
	pop  rt,fr
	ret
Lscope49:
	.stabs	"_ZN6MAUtil10DictionaryIKNS_11BasicStringIcEENS_4PairIS3_S2_EEED2Ev:f(0,6)",36,0,73,__ZN6MAUtil10DictionaryIKNS_11BasicStringIcEENS_4PairIS3_S2_EEED2Ev
	.stabs	"this:P(0,185)",64,0,73,12

.func __ZN6MAUtil10DictionaryIKNS_11BasicStringIcEENS_4PairIS3_S2_EEED2Ev, 1, void
	.line 73
	push rt,fr
	ld   fr,sp
	add  fr,#0x8
	.dlab LBB74
	.line 74
	call &__ZN6MAUtil10DictionaryIKNS_11BasicStringIcEENS_4PairIS3_S2_EEE5clearEv ; call non-native
	.dlab LBE74
	pop  rt,fr
	ret
Lscope50:
	.stabs	"_ZNK6MAUtil10DictionaryIKNS_11BasicStringIcEENS_4PairIS3_4CardEEE13ConstIteratorneERKS8_:f(0,4)",36,0,325,__ZNK6MAUtil10DictionaryIKNS_11BasicStringIcEENS_4PairIS3_4CardEEE13ConstIteratorneERKS8_
	.stabs	"this:P(0,186)=k(0,50)",64,0,325,12
	.stabs	"o:P(0,59)",64,0,325,13

.func __ZNK6MAUtil10DictionaryIKNS_11BasicStringIcEENS_4PairIS3_4CardEEE13ConstIteratorneERKS8_, 2, int
	.line 325
	push fr,fr
	ld   fr,sp
	add  fr,#0x4
	.dlab LBB75
	.line 326
	ld   r15,#0x0
	ld   r14,[i0]
	ld   i1,[i1]
	jc   eq,r14,i1,#L131
	ld   r15,#0x1
L131:
	.dlab LBE75
	ld   r14,r15
	pop  fr,fr
	ret
Lscope51:
	.stabs	"_ZNK6MAUtil10DictionaryIKNS_11BasicStringIcEENS_4PairIS3_4CardEEE13ConstIteratordeEv:f(6,23)",36,0,272,__ZNK6MAUtil10DictionaryIKNS_11BasicStringIcEENS_4PairIS3_4CardEEE13ConstIteratordeEv
	.stabs	"this:P(0,186)",64,0,272,12

.func __ZNK6MAUtil10DictionaryIKNS_11BasicStringIcEENS_4PairIS3_4CardEEE13ConstIteratordeEv, 1, int
	.line 272
	push rt,fr
	ld   fr,sp
	add  fr,#0x8
	.dlab LBB76
	.line 273
	ld   i0,[i0]
	ld   r14,#0x0
	jc   eq,i0,r14,#L135
	.dlab LBE76
	.line 274
	ld   r14,i0
	add  r14,#0x18
	pop  rt,fr
	ret
L135:
	.dlab LBB77
	.line 273
	ld   i0,#LC21
	call &_FileNameFromPath ; call non-native
	ld   i0,#0x6
	ld   i1,r14
	ld   i2,#0x111
	call &_bfeHandler ; call non-native
	.dlab LBE77
Lscope52:
	.stabs	"_ZN6MAUtil10DictionaryIKNS_11BasicStringIcEENS_4PairIS3_4CardEEE8IteratorppEv:f(6,45)",36,0,203,__ZN6MAUtil10DictionaryIKNS_11BasicStringIcEENS_4PairIS3_4CardEEE8IteratorppEv
	.stabs	"this:P(0,180)",64,0,203,4

.func __ZN6MAUtil10DictionaryIKNS_11BasicStringIcEENS_4PairIS3_4CardEEE8IteratorppEv, 1, int
	.line 203
	push rt,d0
	ld   fr,sp
	add  fr,#0xc
	ld   d0,i0
	.dlab LBB78
	.line 204
	ld   i1,[i0]
	ld   r14,#0x0
	jc   eq,i1,r14,#L139
	.line 205
	ld   i0,[i0,4]
	call &_dict_next ; call non-native
	ld   [d0],r14
	.dlab LBE78
	.line 206
	ld   r14,d0
	pop  rt,d0
	ret
L139:
	.dlab LBB79
	.line 204
	ld   i0,#LC21
	call &_FileNameFromPath ; call non-native
	ld   i0,#0x6
	ld   i1,r14
	ld   i2,#0xcc
	call &_bfeHandler ; call non-native
	.dlab LBE79
Lscope53:
	.stabs	"_ZN6MAUtil10DictionaryIKNS_11BasicStringIcEENS_4PairIS3_4CardEEE8IteratorppEi:f(6,10)",36,0,211,__ZN6MAUtil10DictionaryIKNS_11BasicStringIcEENS_4PairIS3_4CardEEE8IteratorppEi
	.stabs	"this:P(0,180)",64,0,211,4

.func __ZN6MAUtil10DictionaryIKNS_11BasicStringIcEENS_4PairIS3_4CardEEE8IteratorppEi, 3, int
	.line 211
	push rt,d1
	ld   fr,sp
	add  fr,#0x10
	ld   d1,i0
	ld   d0,i1
	.dlab LBB80
	.dlab LBB81
	.line 212
	call &__ZN6MAUtil10DictionaryIKNS_11BasicStringIcEENS_4PairIS3_4CardEEE8IteratorC1ERKS8_ ; call non-native
	.line 213
	ld   i0,d0
	call &__ZN6MAUtil10DictionaryIKNS_11BasicStringIcEENS_4PairIS3_4CardEEE8IteratorppEv ; call non-native
	.dlab LBE81
	.dlab LBE80
	.line 214
	ld   r14,d1
	pop  rt,d1
	ret
	.stabs	"old:r(0,187)=*(6,10)",64,0,212,5
	.stabn	192,0,0,LBB81-__ZN6MAUtil10DictionaryIKNS_11BasicStringIcEENS_4PairIS3_4CardEEE8IteratorppEi
	.stabn	224,0,0,LBE81-__ZN6MAUtil10DictionaryIKNS_11BasicStringIcEENS_4PairIS3_4CardEEE8IteratorppEi
Lscope54:
	.stabs	"_ZN15AlbumViewScreen6getAllEv:F(10,1)",36,0,303,__ZN15AlbumViewScreen6getAllEv
	.stabs	"this:P(0,175)",64,0,303,13
	.global	__ZN15AlbumViewScreen6getAllEv

.func __ZN15AlbumViewScreen6getAllEv, 2, int
	.stabs	"C:\\GameCards Core\\GameCards\\MobidexANC\\AlbumViewScreen.cpp",132,0,0,Ltext50
Ltext50:
	.line 303
	push rt,d6
	sub  sp,#0x24
	ld   fr,sp
	add  fr,#0x48
	ld   d6,i0
	ld   d4,i1
	.dlab LBB82
	.dlab LBB83
	.line 304
	call &__ZN6MAUtil11BasicStringIcEC1Ev ; call non-native
	.dlab LBB84
	.line 305
	ld   d3,fr
	add  d3,#0xffffffd4
	add  d4,#0x960
	ld   i0,d3
	ld   i1,d4
	call &__ZN6MAUtil10DictionaryIKNS_11BasicStringIcEENS_4PairIS3_4CardEEE5beginEv ; call non-native
	ld   d5,fr
	add  d5,#0xffffffcc
	jp   #L142
L145:
	.line 306
	ld   d0,fr
	add  d0,#0xffffffc8
	ld   d2,fr
	add  d2,#0xffffffc4
	ld   i0,d3
	call &__ZN6MAUtil10DictionaryIKNS_11BasicStringIcEENS_4PairIS3_4CardEEE8IteratorptEv ; call non-native
	ld   i0,d2
	ld   i1,r14
	add  i1,#0x4
	call &__ZN4Card6getAllEv ; call non-native
	ld   d1,fr
	add  d1,#0xffffffc0
	ld   i0,d1
	ld   i1,#LC13
	call &__ZN6MAUtil11BasicStringIcEC1EPKc ; call non-native
	ld   i0,d0
	ld   i1,d2
	ld   i2,d1
	call &__ZNK6MAUtil11BasicStringIcEplERKS1_ ; call non-native
	ld   i0,d6
	ld   i1,d0
	call &__ZN6MAUtil11BasicStringIcEpLERKS1_ ; call non-native
	ld   i0,d0
	call &__ZN6MAUtil11BasicStringIcED1Ev ; call non-native
	ld   i0,d1
	call &__ZN6MAUtil11BasicStringIcED1Ev ; call non-native
	ld   i0,d2
	call &__ZN6MAUtil11BasicStringIcED1Ev ; call non-native
	.line 305
	ld   i0,fr
	add  i0,#0xffffffb8
	ld   i1,d3
	ld   i2,#0x0
	call &__ZN6MAUtil10DictionaryIKNS_11BasicStringIcEENS_4PairIS3_4CardEEE8IteratorppEi ; call non-native
L142:
	ld   i0,d5
	ld   i1,d4
	call &__ZN6MAUtil10DictionaryIKNS_11BasicStringIcEENS_4PairIS3_4CardEEE3endEv ; call non-native
	ld   i0,d3
	ld   i1,d5
	call &__ZNK6MAUtil10DictionaryIKNS_11BasicStringIcEENS_4PairIS3_4CardEEE8IteratorneERKS8_ ; call non-native
	and  r14,#0xff  ; zero extend
	ld   r0,#0x0
	jc   ne,r14,r0,#L145
	.dlab LBE84
	.dlab LBE83
	.dlab LBE82
	.line 309
	ld   r14,d6
	add  sp,#0x24
	pop  rt,d6
	ret
	.stabs	"all:r(0,188)=*(10,1)",64,0,304,10
	.stabn	192,0,0,LBB83-__ZN15AlbumViewScreen6getAllEv
	.stabs	"itr:(6,10)",128,0,305,-44
	.stabn	192,0,0,LBB84-__ZN15AlbumViewScreen6getAllEv
	.stabn	224,0,0,LBE84-__ZN15AlbumViewScreen6getAllEv
	.stabn	224,0,0,LBE83-__ZN15AlbumViewScreen6getAllEv
Lscope55:
.data
LC22:
	.ascii "1\0"
.code
	.stabs	"_ZN15AlbumViewScreen13keyPressEventEi:F(0,6)",36,0,193,__ZN15AlbumViewScreen13keyPressEventEi
	.stabs	"this:P(0,175)",64,0,193,6
	.stabs	"keyCode:P(0,3)",64,0,193,4
	.global	__ZN15AlbumViewScreen13keyPressEventEi

.func __ZN15AlbumViewScreen13keyPressEventEi, 2, void
	.line 193
	push rt,d3
	sub  sp,#0x14
	ld   fr,sp
	add  fr,#0x2c
	ld   d2,i0
	ld   d0,i1
	.dlab LBB85
	.dlab LBB86
	.line 194
	ld   i0,[i0,44]
	call &__ZNK4MAUI14KineticListBox16getSelectedIndexEv ; call non-native
	ld   d1,r14
	.line 195
	case d0,#0x111,#0xd,#L162,#L146
.data
	.align 4
L162:
	.word L148
	.word L149
	.word L146
	.word L146
	.word L146
	.word L146
	.word L146
	.word L146
	.word L146
	.word L146
	.word L146
	.word L151
	.word L150
	.word L158
.code
L158:
	.line 216
	ld   i0,[d2,28]
	ld   r14,#0x0
	jc   ne,i0,r14,#L163
L159:
	.line 219
	ld   i0,#0x8d8
	call &__Znwm ; call non-native
	ld   d0,r14
	ld   i0,r14
	ld   i1,d2
	ld   i2,[d2,2280]
	call &__ZN23TradeFriendDetailScreenC1EPN4MAUI6ScreenEP4Feed ; call non-native
	ld   [d2,28],d0
	.line 220
	ld   r14,[d0]
	ld   d1,[r14,28]
	ld   i0,d0
	call d1 ; call non-native
L146:
	.dlab LBE86
	.dlab LBE85
	.line 223
	add  sp,#0x14
	pop  rt,d3
	ret
L149:
	.dlab LBB87
	.dlab LBB88
	.line 200
	ld   i0,[d2,44]
	ld   i1,#0x1
	call &__ZN4MAUI14KineticListBox14selectNextItemEb ; call non-native
	.dlab LBE88
	.dlab LBE87
	.line 223
	add  sp,#0x14
	pop  rt,d3
	ret
L151:
	.dlab LBB89
	.dlab LBB90
	.line 207
	ld.b r14,[d2,2279]
	and  r14,#0xff  ; zero extend
	ld   r0,#0x0
	jc   ne,r14,r0,#L146
	.dlab LBB91
	.stabs	"c:/Apps/MoSync2.4/include/MAUtil/Vector.h",132,0,0,Ltext51
Ltext51:
	.line 258
	ld   d3,d2
	add  d3,#0x9a0
	.dlab LBB92
	ld   r14,[d3]
	.dlab LBE92
	.dlab LBE91
	ld   r0,#0xffffffff
	jc   le,r14,r0,#L146
	.stabs	"C:\\GameCards Core\\GameCards\\MobidexANC\\AlbumViewScreen.cpp",132,0,0,Ltext52
Ltext52:
	.line 208
	ld   i0,[d2,28]
	ld   r14,#0x0
	jc   ne,i0,r14,#L164
L154:
	.line 211
	ld   d0,fr
	add  d0,#0xffffffdc
	.dlab LBB93
	.dlab LBB94
	.stabs	"c:/Apps/MoSync2.4/include/MAUtil/Vector.h",132,0,0,Ltext53
Ltext53:
	.line 355
	sll  d1,#0x2
	.dlab LBE94
	.dlab LBE93
	ld   i0,d0
	ld   i1,d2
	add  i1,#0x960
	ld   i2,[d3,8]
	add  i2,d1
	call &__ZN6MAUtil10DictionaryIKNS_11BasicStringIcEENS_4PairIS3_4CardEEE4findERS3_ ; call non-native
	ld   i0,d0
	call &__ZN6MAUtil10DictionaryIKNS_11BasicStringIcEENS_4PairIS3_4CardEEE8IteratorptEv ; call non-native
	ld   d0,r14
	add  d0,#0x4
	ld   i0,#0x34
	call &__Znwm ; call non-native
	ld   d1,r14
	ld   i3,[d2,2280]
	ld   r0,#0x0
	ld.b [sp],r0
	ld   [sp,4],d0
	ld   i0,r14
	ld   i1,d2
	ld   i2,#0x15
	call &__ZN11ImageScreenC1EPN4MAUI6ScreenEiP4FeedbP4Card ; call non-native
	ld   [d2,28],d1
	.stabs	"C:\\GameCards Core\\GameCards\\MobidexANC\\AlbumViewScreen.cpp",132,0,0,Ltext54
Ltext54:
	.line 212
	ld   r14,[d1]
	ld   d0,[r14,28]
	ld   i0,d1
	call d0 ; call non-native
	jp   #L146
L150:
	.line 203
	ld   d0,fr
	add  d0,#0xffffffe4
	ld   i0,d0
	ld   i1,d2
	call &__ZN15AlbumViewScreen6getAllEv ; call non-native
	ld   i0,d0
	call &__ZNK6MAUtil11BasicStringIcE5c_strEv ; call non-native
	ld   i0,#LC22
	ld   i1,r14
	call &__Z8saveDataPKcS0_ ; call non-native
	ld   i0,d0
	call &__ZN6MAUtil11BasicStringIcED1Ev ; call non-native
	.line 204
	ld   i0,#0x0
	call &_maExit ; call non-native
L148:
	.line 197
	ld   i0,[d2,44]
	ld   i1,#0x1
	call &__ZN4MAUI14KineticListBox18selectPreviousItemEb ; call non-native
	.dlab LBE90
	.dlab LBE89
	.line 223
	add  sp,#0x14
	pop  rt,d3
	ret
L163:
	.dlab LBB95
	.dlab LBB96
	.line 217
	ld   r14,[i0]
	ld   d0,[r14,4]
	call d0 ; call non-native
	jp   #L159
L164:
	.line 209
	ld   r14,[i0]
	ld   d0,[r14,4]
	call d0 ; call non-native
	jp   #L154
	.dlab LBE96
	.dlab LBE95
	.stabs	"selected:r(0,3)",64,0,194,5
	.stabn	192,0,0,LBB86-__ZN15AlbumViewScreen13keyPressEventEi
	.stabn	224,0,0,LBE86-__ZN15AlbumViewScreen13keyPressEventEi
	.stabs	"selected:r(0,3)",64,0,194,5
	.stabn	192,0,0,LBB88-__ZN15AlbumViewScreen13keyPressEventEi
	.stabn	224,0,0,LBE88-__ZN15AlbumViewScreen13keyPressEventEi
	.stabs	"selected:r(0,3)",64,0,194,5
	.stabn	192,0,0,LBB90-__ZN15AlbumViewScreen13keyPressEventEi
	.stabs	"this:r(0,189)=k(6,71)",64,0,258,7
	.stabn	192,0,0,LBB91-__ZN15AlbumViewScreen13keyPressEventEi
	.stabn	224,0,0,LBE91-__ZN15AlbumViewScreen13keyPressEventEi
	.stabn	224,0,0,LBE90-__ZN15AlbumViewScreen13keyPressEventEi
	.stabs	"selected:r(0,3)",64,0,194,5
	.stabn	192,0,0,LBB96-__ZN15AlbumViewScreen13keyPressEventEi
	.stabn	224,0,0,LBE96-__ZN15AlbumViewScreen13keyPressEventEi
Lscope56:
	.set	%13=__ZN15AlbumViewScreenD0Ev
	.stabs	"this:P(0,175)",64,0,163,12
	.global	__ZThn4_N15AlbumViewScreenD0Ev

.func __ZThn4_N15AlbumViewScreenD0Ev, 1, void
	.stabs	"C:\\GameCards Core\\GameCards\\MobidexANC\\/AlbumViewScreen.h",132,0,0,Ltext55
Ltext55:
	.line 17
	push rt,fr
	ld   fr,sp
	add  fr,#0x8
	.line 17
	add  i0,#0xfffffffc
	call &%13 ; call non-native
	pop  rt,fr
	ret
Lscope57:
	.stabs	"_ZN15AlbumViewScreenD0Ev:F(0,6)",36,0,163,__ZN15AlbumViewScreenD0Ev
	.stabs	"this:P(0,175)",64,0,163,5
	.global	__ZN15AlbumViewScreenD0Ev

.func __ZN15AlbumViewScreenD0Ev, 1, void
	.stabs	"C:\\GameCards Core\\GameCards\\MobidexANC\\AlbumViewScreen.cpp",132,0,0,Ltext56
Ltext56:
	.line 163
	push rt,d7
	sub  sp,#0x1c
	ld   fr,sp
	add  fr,#0x44
	ld   d1,i0
	.dlab LBB97
	.line 163
	ld   r14,#__ZTV15AlbumViewScreen+8
	ld   [i0],r14
	ld   r14,#__ZTV15AlbumViewScreen+108
	ld   [i0,4],r14
	ld   r14,#__ZTV15AlbumViewScreen+136
	ld   [i0,12],r14
	ld   r14,#__ZTV15AlbumViewScreen+160
	ld   [i0,16],r14
	ld   r14,#__ZTV15AlbumViewScreen+172
	ld   [i0,20],r14
	ld   r14,#__ZTV15AlbumViewScreen+216
	ld   [i0,24],r14
	.line 164
	ld   i0,[i0,48]
	ld   r14,#0x0
	jc   ne,i0,r14,#L202
L169:
	.line 165
	ld   i0,[d1,28]
	ld   r14,#0x0
	jc   ne,i0,r14,#L203
L171:
	.line 166
	ld   d0,[d1,32]
	ld   r14,#0x0
	jc   ne,d0,r14,#L204
L173:
	.line 168
	ld   d0,fr
	add  d0,#0xffffffd4
	ld   i0,d0
	ld   i1,d1
	call &__ZN15AlbumViewScreen6getAllEv ; call non-native
	ld   i0,d0
	call &__ZNK6MAUtil11BasicStringIcE5c_strEv ; call non-native
	ld   i0,#LC22
	ld   i1,r14
	call &__Z8saveDataPKcS0_ ; call non-native
	ld   i0,d0
	call &__ZN6MAUtil11BasicStringIcED1Ev ; call non-native
	.line 170
	ld   i0,d0
	ld   i1,#LC20
	call &__ZN6MAUtil11BasicStringIcEC1EPKc ; call non-native
	ld   r14,d1
	add  r14,#0x8ac
	ld   [fr,-68],r14
	ld   i0,r14
	ld   i1,d0
	call &__ZN6MAUtil11BasicStringIcEaSERKS1_ ; call non-native
	ld   i0,d0
	call &__ZN6MAUtil11BasicStringIcED1Ev ; call non-native
	.line 171
	ld   i0,d0
	ld   i1,#LC20
	call &__ZN6MAUtil11BasicStringIcEC1EPKc ; call non-native
	ld   r14,d1
	add  r14,#0x8b0
	ld   [fr,-48],r14
	ld   i0,r14
	ld   i1,d0
	call &__ZN6MAUtil11BasicStringIcEaSERKS1_ ; call non-native
	ld   i0,d0
	call &__ZN6MAUtil11BasicStringIcED1Ev ; call non-native
	.line 172
	ld   i0,d0
	ld   i1,#LC20
	call &__ZN6MAUtil11BasicStringIcEC1EPKc ; call non-native
	ld   r14,d1
	add  r14,#0x8b4
	ld   [fr,-52],r14
	ld   i0,r14
	ld   i1,d0
	call &__ZN6MAUtil11BasicStringIcEaSERKS1_ ; call non-native
	ld   i0,d0
	call &__ZN6MAUtil11BasicStringIcED1Ev ; call non-native
	.line 173
	ld   i0,d0
	ld   i1,#LC20
	call &__ZN6MAUtil11BasicStringIcEC1EPKc ; call non-native
	ld   r14,d1
	add  r14,#0x8b8
	ld   [fr,-56],r14
	ld   i0,r14
	ld   i1,d0
	call &__ZN6MAUtil11BasicStringIcEaSERKS1_ ; call non-native
	ld   i0,d0
	call &__ZN6MAUtil11BasicStringIcED1Ev ; call non-native
	.line 174
	ld   i0,d0
	ld   i1,#LC20
	call &__ZN6MAUtil11BasicStringIcEC1EPKc ; call non-native
	ld   r14,d1
	add  r14,#0x8bc
	ld   [fr,-60],r14
	ld   i0,r14
	ld   i1,d0
	call &__ZN6MAUtil11BasicStringIcEaSERKS1_ ; call non-native
	ld   i0,d0
	call &__ZN6MAUtil11BasicStringIcED1Ev ; call non-native
	.line 175
	ld   i0,d0
	ld   i1,#LC20
	call &__ZN6MAUtil11BasicStringIcEC1EPKc ; call non-native
	ld   r14,d1
	add  r14,#0x8c0
	ld   [fr,-64],r14
	ld   i0,r14
	ld   i1,d0
	call &__ZN6MAUtil11BasicStringIcEaSERKS1_ ; call non-native
	ld   i0,d0
	call &__ZN6MAUtil11BasicStringIcED1Ev ; call non-native
	.line 176
	ld   i0,d0
	ld   i1,#LC20
	call &__ZN6MAUtil11BasicStringIcEC1EPKc ; call non-native
	ld   d7,d1
	add  d7,#0x8c4
	ld   i0,d7
	ld   i1,d0
	call &__ZN6MAUtil11BasicStringIcEaSERKS1_ ; call non-native
	ld   i0,d0
	call &__ZN6MAUtil11BasicStringIcED1Ev ; call non-native
	.line 177
	ld   i0,d0
	ld   i1,#LC20
	call &__ZN6MAUtil11BasicStringIcEC1EPKc ; call non-native
	ld   d6,d1
	add  d6,#0x8c8
	ld   i0,d6
	ld   i1,d0
	call &__ZN6MAUtil11BasicStringIcEaSERKS1_ ; call non-native
	ld   i0,d0
	call &__ZN6MAUtil11BasicStringIcED1Ev ; call non-native
	.line 178
	ld   i0,d0
	ld   i1,#LC20
	call &__ZN6MAUtil11BasicStringIcEC1EPKc ; call non-native
	ld   d5,d1
	add  d5,#0x8cc
	ld   i0,d5
	ld   i1,d0
	call &__ZN6MAUtil11BasicStringIcEaSERKS1_ ; call non-native
	ld   i0,d0
	call &__ZN6MAUtil11BasicStringIcED1Ev ; call non-native
	.line 179
	ld   i0,d0
	ld   i1,#LC20
	call &__ZN6MAUtil11BasicStringIcEC1EPKc ; call non-native
	ld   d4,d1
	add  d4,#0x8d0
	ld   i0,d4
	ld   i1,d0
	call &__ZN6MAUtil11BasicStringIcEaSERKS1_ ; call non-native
	ld   i0,d0
	call &__ZN6MAUtil11BasicStringIcED1Ev ; call non-native
	.line 180
	ld   i0,d0
	ld   i1,#LC20
	call &__ZN6MAUtil11BasicStringIcEC1EPKc ; call non-native
	ld   d3,d1
	add  d3,#0x8d4
	ld   i0,d3
	ld   i1,d0
	call &__ZN6MAUtil11BasicStringIcEaSERKS1_ ; call non-native
	ld   i0,d0
	call &__ZN6MAUtil11BasicStringIcED1Ev ; call non-native
	.dlab LBB98
	.line 11
	ld   d0,d1
	add  d0,#0x9ac
	.dlab LBB99
	ld   i0,d1
	add  i0,#0x9c8
	call &__ZN6MAUtil11BasicStringIcED1Ev ; call non-native
	ld   i0,d1
	add  i0,#0x9c4
	call &__ZN6MAUtil11BasicStringIcED1Ev ; call non-native
	ld   i0,d1
	add  i0,#0x9c0
	call &__ZN6MAUtil11BasicStringIcED1Ev ; call non-native
	ld   i0,d1
	add  i0,#0x9bc
	call &__ZN6MAUtil11BasicStringIcED1Ev ; call non-native
	ld   i0,d1
	add  i0,#0x9b8
	call &__ZN6MAUtil11BasicStringIcED1Ev ; call non-native
	ld   i0,d1
	add  i0,#0x9b4
	call &__ZN6MAUtil11BasicStringIcED1Ev ; call non-native
	ld   i0,d1
	add  i0,#0x9b0
	call &__ZN6MAUtil11BasicStringIcED1Ev ; call non-native
	ld   i0,d0
	call &__ZN6MAUtil11BasicStringIcED1Ev ; call non-native
	.dlab LBE99
	.dlab LBE98
	.dlab LBB100
	.stabs	"c:/Apps/MoSync2.4/include/MAUtil/Vector.h",132,0,0,Ltext57
Ltext57:
	.line 135
	ld   d2,d1
	add  d2,#0x9a0
	.dlab LBB101
	.line 136
	ld   i0,[d2,8]
	ld   r14,#0x0
	jc   eq,i0,r14,#L183
	ld   d0,[i0,-4]
	sll  d0,#0x2
	add  d0,i0
	jc   eq,i0,d0,#L181
L205:
	add  d0,#0xfffffffc
	ld   i0,d0
	call &__ZN6MAUtil11BasicStringIcED1Ev ; call non-native
	ld   i0,[d2,8]
	jc   ne,i0,d0,#L205
L181:
	add  i0,#0xfffffffc
	call &__ZdaPv ; call non-native
L183:
	.dlab LBE101
	.dlab LBE100
	.dlab LBB102
	.dlab LBB103
	.stabs	"C:\\GameCards Core\\GameCards\\MobidexANC\\AlbumViewScreen.cpp",132,0,0,Ltext58
Ltext58:
	.line 11
	ld   i0,d1
	add  i0,#0x960
	call &__ZN6MAUtil10DictionaryIKNS_11BasicStringIcEENS_4PairIS3_4CardEEED2Ev ; call non-native
	.dlab LBE103
	.dlab LBE102
	.dlab LBB104
	.dlab LBB105
	ld   i0,d1
	add  i0,#0x928
	call &__ZN6MAUtil10DictionaryIKNS_11BasicStringIcEENS_4PairIS3_4CardEEED2Ev ; call non-native
	.dlab LBE105
	.dlab LBE104
	.dlab LBB106
	.dlab LBB107
	.dlab LBB108
	.dlab LBB109
	ld   i0,d1
	add  i0,#0x8ec
	call &__ZN6MAUtil10DictionaryIKNS_11BasicStringIcEENS_4PairIS3_S2_EEED2Ev ; call non-native
	.dlab LBE109
	.dlab LBE108
	.dlab LBE107
	.dlab LBE106
	ld   i0,d3
	call &__ZN6MAUtil11BasicStringIcED1Ev ; call non-native
	ld   i0,d4
	call &__ZN6MAUtil11BasicStringIcED1Ev ; call non-native
	ld   i0,d5
	call &__ZN6MAUtil11BasicStringIcED1Ev ; call non-native
	ld   i0,d6
	call &__ZN6MAUtil11BasicStringIcED1Ev ; call non-native
	ld   i0,d7
	call &__ZN6MAUtil11BasicStringIcED1Ev ; call non-native
	ld   i0,[fr,-64]
	call &__ZN6MAUtil11BasicStringIcED1Ev ; call non-native
	ld   i0,[fr,-60]
	call &__ZN6MAUtil11BasicStringIcED1Ev ; call non-native
	ld   i0,[fr,-56]
	call &__ZN6MAUtil11BasicStringIcED1Ev ; call non-native
	ld   i0,[fr,-52]
	call &__ZN6MAUtil11BasicStringIcED1Ev ; call non-native
	ld   i0,[fr,-48]
	call &__ZN6MAUtil11BasicStringIcED1Ev ; call non-native
	ld   i0,[fr,-68]
	call &__ZN6MAUtil11BasicStringIcED1Ev ; call non-native
	ld   i0,d1
	add  i0,#0x5c
	call &__ZN13XmlConnectionD1Ev ; call non-native
	.dlab LBB110
	ld   i0,d1
	add  i0,#0x34
	.dlab LBB111
	ld   r14,#__ZTVN6MAUtil14HttpConnectionE+8
	ld   [i0],r14
	call &__ZN6MAUtil10ConnectionD2Ev ; call non-native
	.dlab LBE111
	.dlab LBE110
	ld   i0,d1
	call &__ZN4MAUI6ScreenD2Ev ; call non-native
	.dlab LBE97
	.line 181
	ld   i0,d1
	call &__ZdlPv ; call non-native
	add  sp,#0x1c
	pop  rt,d7
	ret
L204:
	.dlab LBB112
	.line 166
	ld   i0,d0
	call &__ZN10ImageCacheD1Ev ; call non-native
	ld   i0,d0
	call &__ZdlPv ; call non-native
	jp   #L173
L203:
	.line 165
	ld   r14,[i0]
	ld   d0,[r14,4]
	call d0 ; call non-native
	jp   #L171
L202:
	.line 164
	ld   r14,[i0]
	ld   d0,[r14,84]
	call d0 ; call non-native
	jp   #L169
	.dlab LBE112
	.stabs	"this:r(0,190)=k(28,3)",64,0,11,4
	.stabn	192,0,0,LBB98-__ZN15AlbumViewScreenD0Ev
	.stabn	224,0,0,LBE98-__ZN15AlbumViewScreenD0Ev
	.stabs	"this:r(0,191)=k(6,56)",64,0,135,6
	.stabn	192,0,0,LBB100-__ZN15AlbumViewScreenD0Ev
	.stabn	224,0,0,LBE100-__ZN15AlbumViewScreenD0Ev
	.stabs	"this:r(0,192)=k(0,90)",64,0,11,12
	.stabn	192,0,0,LBB110-__ZN15AlbumViewScreenD0Ev
	.stabn	224,0,0,LBE110-__ZN15AlbumViewScreenD0Ev
Lscope58:
	.set	%14=__ZN15AlbumViewScreenD1Ev
	.stabs	"this:P(0,175)",64,0,163,12
	.global	__ZThn4_N15AlbumViewScreenD1Ev

.func __ZThn4_N15AlbumViewScreenD1Ev, 1, void
	.stabs	"C:\\GameCards Core\\GameCards\\MobidexANC\\/AlbumViewScreen.h",132,0,0,Ltext59
Ltext59:
	.line 17
	push rt,fr
	ld   fr,sp
	add  fr,#0x8
	.line 17
	add  i0,#0xfffffffc
	call &%14 ; call non-native
	pop  rt,fr
	ret
Lscope59:
	.stabs	"_ZN15AlbumViewScreenD1Ev:F(0,6)",36,0,163,__ZN15AlbumViewScreenD1Ev
	.stabs	"this:P(0,175)",64,0,163,5
	.global	__ZN15AlbumViewScreenD1Ev

.func __ZN15AlbumViewScreenD1Ev, 1, void
	.stabs	"C:\\GameCards Core\\GameCards\\MobidexANC\\AlbumViewScreen.cpp",132,0,0,Ltext60
Ltext60:
	.line 163
	push rt,d7
	sub  sp,#0x1c
	ld   fr,sp
	add  fr,#0x44
	ld   d1,i0
	.dlab LBB113
	.line 163
	ld   r14,#__ZTV15AlbumViewScreen+8
	ld   [i0],r14
	ld   r14,#__ZTV15AlbumViewScreen+108
	ld   [i0,4],r14
	ld   r14,#__ZTV15AlbumViewScreen+136
	ld   [i0,12],r14
	ld   r14,#__ZTV15AlbumViewScreen+160
	ld   [i0,16],r14
	ld   r14,#__ZTV15AlbumViewScreen+172
	ld   [i0,20],r14
	ld   r14,#__ZTV15AlbumViewScreen+216
	ld   [i0,24],r14
	.line 164
	ld   i0,[i0,48]
	ld   r14,#0x0
	jc   ne,i0,r14,#L243
L210:
	.line 165
	ld   i0,[d1,28]
	ld   r14,#0x0
	jc   ne,i0,r14,#L244
L212:
	.line 166
	ld   d0,[d1,32]
	ld   r14,#0x0
	jc   ne,d0,r14,#L245
L214:
	.line 168
	ld   d0,fr
	add  d0,#0xffffffd4
	ld   i0,d0
	ld   i1,d1
	call &__ZN15AlbumViewScreen6getAllEv ; call non-native
	ld   i0,d0
	call &__ZNK6MAUtil11BasicStringIcE5c_strEv ; call non-native
	ld   i0,#LC22
	ld   i1,r14
	call &__Z8saveDataPKcS0_ ; call non-native
	ld   i0,d0
	call &__ZN6MAUtil11BasicStringIcED1Ev ; call non-native
	.line 170
	ld   i0,d0
	ld   i1,#LC20
	call &__ZN6MAUtil11BasicStringIcEC1EPKc ; call non-native
	ld   r14,d1
	add  r14,#0x8ac
	ld   [fr,-68],r14
	ld   i0,r14
	ld   i1,d0
	call &__ZN6MAUtil11BasicStringIcEaSERKS1_ ; call non-native
	ld   i0,d0
	call &__ZN6MAUtil11BasicStringIcED1Ev ; call non-native
	.line 171
	ld   i0,d0
	ld   i1,#LC20
	call &__ZN6MAUtil11BasicStringIcEC1EPKc ; call non-native
	ld   r14,d1
	add  r14,#0x8b0
	ld   [fr,-48],r14
	ld   i0,r14
	ld   i1,d0
	call &__ZN6MAUtil11BasicStringIcEaSERKS1_ ; call non-native
	ld   i0,d0
	call &__ZN6MAUtil11BasicStringIcED1Ev ; call non-native
	.line 172
	ld   i0,d0
	ld   i1,#LC20
	call &__ZN6MAUtil11BasicStringIcEC1EPKc ; call non-native
	ld   r14,d1
	add  r14,#0x8b4
	ld   [fr,-52],r14
	ld   i0,r14
	ld   i1,d0
	call &__ZN6MAUtil11BasicStringIcEaSERKS1_ ; call non-native
	ld   i0,d0
	call &__ZN6MAUtil11BasicStringIcED1Ev ; call non-native
	.line 173
	ld   i0,d0
	ld   i1,#LC20
	call &__ZN6MAUtil11BasicStringIcEC1EPKc ; call non-native
	ld   r14,d1
	add  r14,#0x8b8
	ld   [fr,-56],r14
	ld   i0,r14
	ld   i1,d0
	call &__ZN6MAUtil11BasicStringIcEaSERKS1_ ; call non-native
	ld   i0,d0
	call &__ZN6MAUtil11BasicStringIcED1Ev ; call non-native
	.line 174
	ld   i0,d0
	ld   i1,#LC20
	call &__ZN6MAUtil11BasicStringIcEC1EPKc ; call non-native
	ld   r14,d1
	add  r14,#0x8bc
	ld   [fr,-60],r14
	ld   i0,r14
	ld   i1,d0
	call &__ZN6MAUtil11BasicStringIcEaSERKS1_ ; call non-native
	ld   i0,d0
	call &__ZN6MAUtil11BasicStringIcED1Ev ; call non-native
	.line 175
	ld   i0,d0
	ld   i1,#LC20
	call &__ZN6MAUtil11BasicStringIcEC1EPKc ; call non-native
	ld   r14,d1
	add  r14,#0x8c0
	ld   [fr,-64],r14
	ld   i0,r14
	ld   i1,d0
	call &__ZN6MAUtil11BasicStringIcEaSERKS1_ ; call non-native
	ld   i0,d0
	call &__ZN6MAUtil11BasicStringIcED1Ev ; call non-native
	.line 176
	ld   i0,d0
	ld   i1,#LC20
	call &__ZN6MAUtil11BasicStringIcEC1EPKc ; call non-native
	ld   d7,d1
	add  d7,#0x8c4
	ld   i0,d7
	ld   i1,d0
	call &__ZN6MAUtil11BasicStringIcEaSERKS1_ ; call non-native
	ld   i0,d0
	call &__ZN6MAUtil11BasicStringIcED1Ev ; call non-native
	.line 177
	ld   i0,d0
	ld   i1,#LC20
	call &__ZN6MAUtil11BasicStringIcEC1EPKc ; call non-native
	ld   d6,d1
	add  d6,#0x8c8
	ld   i0,d6
	ld   i1,d0
	call &__ZN6MAUtil11BasicStringIcEaSERKS1_ ; call non-native
	ld   i0,d0
	call &__ZN6MAUtil11BasicStringIcED1Ev ; call non-native
	.line 178
	ld   i0,d0
	ld   i1,#LC20
	call &__ZN6MAUtil11BasicStringIcEC1EPKc ; call non-native
	ld   d5,d1
	add  d5,#0x8cc
	ld   i0,d5
	ld   i1,d0
	call &__ZN6MAUtil11BasicStringIcEaSERKS1_ ; call non-native
	ld   i0,d0
	call &__ZN6MAUtil11BasicStringIcED1Ev ; call non-native
	.line 179
	ld   i0,d0
	ld   i1,#LC20
	call &__ZN6MAUtil11BasicStringIcEC1EPKc ; call non-native
	ld   d4,d1
	add  d4,#0x8d0
	ld   i0,d4
	ld   i1,d0
	call &__ZN6MAUtil11BasicStringIcEaSERKS1_ ; call non-native
	ld   i0,d0
	call &__ZN6MAUtil11BasicStringIcED1Ev ; call non-native
	.line 180
	ld   i0,d0
	ld   i1,#LC20
	call &__ZN6MAUtil11BasicStringIcEC1EPKc ; call non-native
	ld   d3,d1
	add  d3,#0x8d4
	ld   i0,d3
	ld   i1,d0
	call &__ZN6MAUtil11BasicStringIcEaSERKS1_ ; call non-native
	ld   i0,d0
	call &__ZN6MAUtil11BasicStringIcED1Ev ; call non-native
	.dlab LBB114
	.line 11
	ld   d0,d1
	add  d0,#0x9ac
	.dlab LBB115
	ld   i0,d1
	add  i0,#0x9c8
	call &__ZN6MAUtil11BasicStringIcED1Ev ; call non-native
	ld   i0,d1
	add  i0,#0x9c4
	call &__ZN6MAUtil11BasicStringIcED1Ev ; call non-native
	ld   i0,d1
	add  i0,#0x9c0
	call &__ZN6MAUtil11BasicStringIcED1Ev ; call non-native
	ld   i0,d1
	add  i0,#0x9bc
	call &__ZN6MAUtil11BasicStringIcED1Ev ; call non-native
	ld   i0,d1
	add  i0,#0x9b8
	call &__ZN6MAUtil11BasicStringIcED1Ev ; call non-native
	ld   i0,d1
	add  i0,#0x9b4
	call &__ZN6MAUtil11BasicStringIcED1Ev ; call non-native
	ld   i0,d1
	add  i0,#0x9b0
	call &__ZN6MAUtil11BasicStringIcED1Ev ; call non-native
	ld   i0,d0
	call &__ZN6MAUtil11BasicStringIcED1Ev ; call non-native
	.dlab LBE115
	.dlab LBE114
	.dlab LBB116
	.stabs	"c:/Apps/MoSync2.4/include/MAUtil/Vector.h",132,0,0,Ltext61
Ltext61:
	.line 135
	ld   d2,d1
	add  d2,#0x9a0
	.dlab LBB117
	.line 136
	ld   i0,[d2,8]
	ld   r14,#0x0
	jc   eq,i0,r14,#L224
	ld   d0,[i0,-4]
	sll  d0,#0x2
	add  d0,i0
	jc   eq,i0,d0,#L222
L246:
	add  d0,#0xfffffffc
	ld   i0,d0
	call &__ZN6MAUtil11BasicStringIcED1Ev ; call non-native
	ld   i0,[d2,8]
	jc   ne,i0,d0,#L246
L222:
	add  i0,#0xfffffffc
	call &__ZdaPv ; call non-native
L224:
	.dlab LBE117
	.dlab LBE116
	.dlab LBB118
	.dlab LBB119
	.stabs	"C:\\GameCards Core\\GameCards\\MobidexANC\\AlbumViewScreen.cpp",132,0,0,Ltext62
Ltext62:
	.line 11
	ld   i0,d1
	add  i0,#0x960
	call &__ZN6MAUtil10DictionaryIKNS_11BasicStringIcEENS_4PairIS3_4CardEEED2Ev ; call non-native
	.dlab LBE119
	.dlab LBE118
	.dlab LBB120
	.dlab LBB121
	ld   i0,d1
	add  i0,#0x928
	call &__ZN6MAUtil10DictionaryIKNS_11BasicStringIcEENS_4PairIS3_4CardEEED2Ev ; call non-native
	.dlab LBE121
	.dlab LBE120
	.dlab LBB122
	.dlab LBB123
	.dlab LBB124
	.dlab LBB125
	ld   i0,d1
	add  i0,#0x8ec
	call &__ZN6MAUtil10DictionaryIKNS_11BasicStringIcEENS_4PairIS3_S2_EEED2Ev ; call non-native
	.dlab LBE125
	.dlab LBE124
	.dlab LBE123
	.dlab LBE122
	ld   i0,d3
	call &__ZN6MAUtil11BasicStringIcED1Ev ; call non-native
	ld   i0,d4
	call &__ZN6MAUtil11BasicStringIcED1Ev ; call non-native
	ld   i0,d5
	call &__ZN6MAUtil11BasicStringIcED1Ev ; call non-native
	ld   i0,d6
	call &__ZN6MAUtil11BasicStringIcED1Ev ; call non-native
	ld   i0,d7
	call &__ZN6MAUtil11BasicStringIcED1Ev ; call non-native
	ld   i0,[fr,-64]
	call &__ZN6MAUtil11BasicStringIcED1Ev ; call non-native
	ld   i0,[fr,-60]
	call &__ZN6MAUtil11BasicStringIcED1Ev ; call non-native
	ld   i0,[fr,-56]
	call &__ZN6MAUtil11BasicStringIcED1Ev ; call non-native
	ld   i0,[fr,-52]
	call &__ZN6MAUtil11BasicStringIcED1Ev ; call non-native
	ld   i0,[fr,-48]
	call &__ZN6MAUtil11BasicStringIcED1Ev ; call non-native
	ld   i0,[fr,-68]
	call &__ZN6MAUtil11BasicStringIcED1Ev ; call non-native
	ld   i0,d1
	add  i0,#0x5c
	call &__ZN13XmlConnectionD1Ev ; call non-native
	.dlab LBB126
	ld   i0,d1
	add  i0,#0x34
	.dlab LBB127
	ld   r14,#__ZTVN6MAUtil14HttpConnectionE+8
	ld   [i0],r14
	call &__ZN6MAUtil10ConnectionD2Ev ; call non-native
	.dlab LBE127
	.dlab LBE126
	ld   i0,d1
	call &__ZN4MAUI6ScreenD2Ev ; call non-native
	.dlab LBE113
	.line 181
	add  sp,#0x1c
	pop  rt,d7
	ret
L245:
	.dlab LBB128
	.line 166
	ld   i0,d0
	call &__ZN10ImageCacheD1Ev ; call non-native
	ld   i0,d0
	call &__ZdlPv ; call non-native
	jp   #L214
L244:
	.line 165
	ld   r14,[i0]
	ld   d0,[r14,4]
	call d0 ; call non-native
	jp   #L212
L243:
	.line 164
	ld   r14,[i0]
	ld   d0,[r14,84]
	call d0 ; call non-native
	jp   #L210
	.dlab LBE128
	.stabs	"this:r(0,190)",64,0,11,4
	.stabn	192,0,0,LBB114-__ZN15AlbumViewScreenD1Ev
	.stabn	224,0,0,LBE114-__ZN15AlbumViewScreenD1Ev
	.stabs	"this:r(0,191)",64,0,135,6
	.stabn	192,0,0,LBB116-__ZN15AlbumViewScreenD1Ev
	.stabn	224,0,0,LBE116-__ZN15AlbumViewScreenD1Ev
	.stabs	"this:r(0,192)",64,0,11,12
	.stabn	192,0,0,LBB126-__ZN15AlbumViewScreenD1Ev
	.stabn	224,0,0,LBE126-__ZN15AlbumViewScreenD1Ev
Lscope60:
	.stabs	"_ZN15AlbumViewScreenD2Ev:F(0,6)",36,0,163,__ZN15AlbumViewScreenD2Ev
	.stabs	"this:P(0,175)",64,0,163,5
	.global	__ZN15AlbumViewScreenD2Ev

.func __ZN15AlbumViewScreenD2Ev, 1, void
	.line 163
	push rt,d7
	sub  sp,#0x1c
	ld   fr,sp
	add  fr,#0x44
	ld   d1,i0
	.dlab LBB129
	.line 163
	ld   r14,#__ZTV15AlbumViewScreen+8
	ld   [i0],r14
	ld   r14,#__ZTV15AlbumViewScreen+108
	ld   [i0,4],r14
	ld   r14,#__ZTV15AlbumViewScreen+136
	ld   [i0,12],r14
	ld   r14,#__ZTV15AlbumViewScreen+160
	ld   [i0,16],r14
	ld   r14,#__ZTV15AlbumViewScreen+172
	ld   [i0,20],r14
	ld   r14,#__ZTV15AlbumViewScreen+216
	ld   [i0,24],r14
	.line 164
	ld   i0,[i0,48]
	ld   r14,#0x0
	jc   ne,i0,r14,#L283
L250:
	.line 165
	ld   i0,[d1,28]
	ld   r14,#0x0
	jc   ne,i0,r14,#L284
L252:
	.line 166
	ld   d0,[d1,32]
	ld   r14,#0x0
	jc   ne,d0,r14,#L285
L254:
	.line 168
	ld   d0,fr
	add  d0,#0xffffffd4
	ld   i0,d0
	ld   i1,d1
	call &__ZN15AlbumViewScreen6getAllEv ; call non-native
	ld   i0,d0
	call &__ZNK6MAUtil11BasicStringIcE5c_strEv ; call non-native
	ld   i0,#LC22
	ld   i1,r14
	call &__Z8saveDataPKcS0_ ; call non-native
	ld   i0,d0
	call &__ZN6MAUtil11BasicStringIcED1Ev ; call non-native
	.line 170
	ld   i0,d0
	ld   i1,#LC20
	call &__ZN6MAUtil11BasicStringIcEC1EPKc ; call non-native
	ld   r14,d1
	add  r14,#0x8ac
	ld   [fr,-68],r14
	ld   i0,r14
	ld   i1,d0
	call &__ZN6MAUtil11BasicStringIcEaSERKS1_ ; call non-native
	ld   i0,d0
	call &__ZN6MAUtil11BasicStringIcED1Ev ; call non-native
	.line 171
	ld   i0,d0
	ld   i1,#LC20
	call &__ZN6MAUtil11BasicStringIcEC1EPKc ; call non-native
	ld   r14,d1
	add  r14,#0x8b0
	ld   [fr,-48],r14
	ld   i0,r14
	ld   i1,d0
	call &__ZN6MAUtil11BasicStringIcEaSERKS1_ ; call non-native
	ld   i0,d0
	call &__ZN6MAUtil11BasicStringIcED1Ev ; call non-native
	.line 172
	ld   i0,d0
	ld   i1,#LC20
	call &__ZN6MAUtil11BasicStringIcEC1EPKc ; call non-native
	ld   r14,d1
	add  r14,#0x8b4
	ld   [fr,-52],r14
	ld   i0,r14
	ld   i1,d0
	call &__ZN6MAUtil11BasicStringIcEaSERKS1_ ; call non-native
	ld   i0,d0
	call &__ZN6MAUtil11BasicStringIcED1Ev ; call non-native
	.line 173
	ld   i0,d0
	ld   i1,#LC20
	call &__ZN6MAUtil11BasicStringIcEC1EPKc ; call non-native
	ld   r14,d1
	add  r14,#0x8b8
	ld   [fr,-56],r14
	ld   i0,r14
	ld   i1,d0
	call &__ZN6MAUtil11BasicStringIcEaSERKS1_ ; call non-native
	ld   i0,d0
	call &__ZN6MAUtil11BasicStringIcED1Ev ; call non-native
	.line 174
	ld   i0,d0
	ld   i1,#LC20
	call &__ZN6MAUtil11BasicStringIcEC1EPKc ; call non-native
	ld   r14,d1
	add  r14,#0x8bc
	ld   [fr,-60],r14
	ld   i0,r14
	ld   i1,d0
	call &__ZN6MAUtil11BasicStringIcEaSERKS1_ ; call non-native
	ld   i0,d0
	call &__ZN6MAUtil11BasicStringIcED1Ev ; call non-native
	.line 175
	ld   i0,d0
	ld   i1,#LC20
	call &__ZN6MAUtil11BasicStringIcEC1EPKc ; call non-native
	ld   r14,d1
	add  r14,#0x8c0
	ld   [fr,-64],r14
	ld   i0,r14
	ld   i1,d0
	call &__ZN6MAUtil11BasicStringIcEaSERKS1_ ; call non-native
	ld   i0,d0
	call &__ZN6MAUtil11BasicStringIcED1Ev ; call non-native
	.line 176
	ld   i0,d0
	ld   i1,#LC20
	call &__ZN6MAUtil11BasicStringIcEC1EPKc ; call non-native
	ld   d7,d1
	add  d7,#0x8c4
	ld   i0,d7
	ld   i1,d0
	call &__ZN6MAUtil11BasicStringIcEaSERKS1_ ; call non-native
	ld   i0,d0
	call &__ZN6MAUtil11BasicStringIcED1Ev ; call non-native
	.line 177
	ld   i0,d0
	ld   i1,#LC20
	call &__ZN6MAUtil11BasicStringIcEC1EPKc ; call non-native
	ld   d6,d1
	add  d6,#0x8c8
	ld   i0,d6
	ld   i1,d0
	call &__ZN6MAUtil11BasicStringIcEaSERKS1_ ; call non-native
	ld   i0,d0
	call &__ZN6MAUtil11BasicStringIcED1Ev ; call non-native
	.line 178
	ld   i0,d0
	ld   i1,#LC20
	call &__ZN6MAUtil11BasicStringIcEC1EPKc ; call non-native
	ld   d5,d1
	add  d5,#0x8cc
	ld   i0,d5
	ld   i1,d0
	call &__ZN6MAUtil11BasicStringIcEaSERKS1_ ; call non-native
	ld   i0,d0
	call &__ZN6MAUtil11BasicStringIcED1Ev ; call non-native
	.line 179
	ld   i0,d0
	ld   i1,#LC20
	call &__ZN6MAUtil11BasicStringIcEC1EPKc ; call non-native
	ld   d4,d1
	add  d4,#0x8d0
	ld   i0,d4
	ld   i1,d0
	call &__ZN6MAUtil11BasicStringIcEaSERKS1_ ; call non-native
	ld   i0,d0
	call &__ZN6MAUtil11BasicStringIcED1Ev ; call non-native
	.line 180
	ld   i0,d0
	ld   i1,#LC20
	call &__ZN6MAUtil11BasicStringIcEC1EPKc ; call non-native
	ld   d3,d1
	add  d3,#0x8d4
	ld   i0,d3
	ld   i1,d0
	call &__ZN6MAUtil11BasicStringIcEaSERKS1_ ; call non-native
	ld   i0,d0
	call &__ZN6MAUtil11BasicStringIcED1Ev ; call non-native
	.dlab LBB130
	.line 11
	ld   d0,d1
	add  d0,#0x9ac
	.dlab LBB131
	ld   i0,d1
	add  i0,#0x9c8
	call &__ZN6MAUtil11BasicStringIcED1Ev ; call non-native
	ld   i0,d1
	add  i0,#0x9c4
	call &__ZN6MAUtil11BasicStringIcED1Ev ; call non-native
	ld   i0,d1
	add  i0,#0x9c0
	call &__ZN6MAUtil11BasicStringIcED1Ev ; call non-native
	ld   i0,d1
	add  i0,#0x9bc
	call &__ZN6MAUtil11BasicStringIcED1Ev ; call non-native
	ld   i0,d1
	add  i0,#0x9b8
	call &__ZN6MAUtil11BasicStringIcED1Ev ; call non-native
	ld   i0,d1
	add  i0,#0x9b4
	call &__ZN6MAUtil11BasicStringIcED1Ev ; call non-native
	ld   i0,d1
	add  i0,#0x9b0
	call &__ZN6MAUtil11BasicStringIcED1Ev ; call non-native
	ld   i0,d0
	call &__ZN6MAUtil11BasicStringIcED1Ev ; call non-native
	.dlab LBE131
	.dlab LBE130
	.dlab LBB132
	.stabs	"c:/Apps/MoSync2.4/include/MAUtil/Vector.h",132,0,0,Ltext63
Ltext63:
	.line 135
	ld   d2,d1
	add  d2,#0x9a0
	.dlab LBB133
	.line 136
	ld   i0,[d2,8]
	ld   r14,#0x0
	jc   eq,i0,r14,#L264
	ld   d0,[i0,-4]
	sll  d0,#0x2
	add  d0,i0
	jc   eq,i0,d0,#L262
L286:
	add  d0,#0xfffffffc
	ld   i0,d0
	call &__ZN6MAUtil11BasicStringIcED1Ev ; call non-native
	ld   i0,[d2,8]
	jc   ne,i0,d0,#L286
L262:
	add  i0,#0xfffffffc
	call &__ZdaPv ; call non-native
L264:
	.dlab LBE133
	.dlab LBE132
	.dlab LBB134
	.dlab LBB135
	.stabs	"C:\\GameCards Core\\GameCards\\MobidexANC\\AlbumViewScreen.cpp",132,0,0,Ltext64
Ltext64:
	.line 11
	ld   i0,d1
	add  i0,#0x960
	call &__ZN6MAUtil10DictionaryIKNS_11BasicStringIcEENS_4PairIS3_4CardEEED2Ev ; call non-native
	.dlab LBE135
	.dlab LBE134
	.dlab LBB136
	.dlab LBB137
	ld   i0,d1
	add  i0,#0x928
	call &__ZN6MAUtil10DictionaryIKNS_11BasicStringIcEENS_4PairIS3_4CardEEED2Ev ; call non-native
	.dlab LBE137
	.dlab LBE136
	.dlab LBB138
	.dlab LBB139
	.dlab LBB140
	.dlab LBB141
	ld   i0,d1
	add  i0,#0x8ec
	call &__ZN6MAUtil10DictionaryIKNS_11BasicStringIcEENS_4PairIS3_S2_EEED2Ev ; call non-native
	.dlab LBE141
	.dlab LBE140
	.dlab LBE139
	.dlab LBE138
	ld   i0,d3
	call &__ZN6MAUtil11BasicStringIcED1Ev ; call non-native
	ld   i0,d4
	call &__ZN6MAUtil11BasicStringIcED1Ev ; call non-native
	ld   i0,d5
	call &__ZN6MAUtil11BasicStringIcED1Ev ; call non-native
	ld   i0,d6
	call &__ZN6MAUtil11BasicStringIcED1Ev ; call non-native
	ld   i0,d7
	call &__ZN6MAUtil11BasicStringIcED1Ev ; call non-native
	ld   i0,[fr,-64]
	call &__ZN6MAUtil11BasicStringIcED1Ev ; call non-native
	ld   i0,[fr,-60]
	call &__ZN6MAUtil11BasicStringIcED1Ev ; call non-native
	ld   i0,[fr,-56]
	call &__ZN6MAUtil11BasicStringIcED1Ev ; call non-native
	ld   i0,[fr,-52]
	call &__ZN6MAUtil11BasicStringIcED1Ev ; call non-native
	ld   i0,[fr,-48]
	call &__ZN6MAUtil11BasicStringIcED1Ev ; call non-native
	ld   i0,[fr,-68]
	call &__ZN6MAUtil11BasicStringIcED1Ev ; call non-native
	ld   i0,d1
	add  i0,#0x5c
	call &__ZN13XmlConnectionD1Ev ; call non-native
	.dlab LBB142
	ld   i0,d1
	add  i0,#0x34
	.dlab LBB143
	ld   r14,#__ZTVN6MAUtil14HttpConnectionE+8
	ld   [i0],r14
	call &__ZN6MAUtil10ConnectionD2Ev ; call non-native
	.dlab LBE143
	.dlab LBE142
	ld   i0,d1
	call &__ZN4MAUI6ScreenD2Ev ; call non-native
	.dlab LBE129
	.line 181
	add  sp,#0x1c
	pop  rt,d7
	ret
L285:
	.dlab LBB144
	.line 166
	ld   i0,d0
	call &__ZN10ImageCacheD1Ev ; call non-native
	ld   i0,d0
	call &__ZdlPv ; call non-native
	jp   #L254
L284:
	.line 165
	ld   r14,[i0]
	ld   d0,[r14,4]
	call d0 ; call non-native
	jp   #L252
L283:
	.line 164
	ld   r14,[i0]
	ld   d0,[r14,84]
	call d0 ; call non-native
	jp   #L250
	.dlab LBE144
	.stabs	"this:r(0,190)",64,0,11,4
	.stabn	192,0,0,LBB130-__ZN15AlbumViewScreenD2Ev
	.stabn	224,0,0,LBE130-__ZN15AlbumViewScreenD2Ev
	.stabs	"this:r(0,191)",64,0,135,6
	.stabn	192,0,0,LBB132-__ZN15AlbumViewScreenD2Ev
	.stabn	224,0,0,LBE132-__ZN15AlbumViewScreenD2Ev
	.stabs	"this:r(0,192)",64,0,11,12
	.stabn	192,0,0,LBB142-__ZN15AlbumViewScreenD2Ev
	.stabn	224,0,0,LBE142-__ZN15AlbumViewScreenD2Ev
Lscope61:
	.stabs	"_ZN15AlbumViewScreen8drawListEv:F(0,6)",36,0,126,__ZN15AlbumViewScreen8drawListEv
	.stabs	"this:P(0,175)",64,0,126,8
	.global	__ZN15AlbumViewScreen8drawListEv

.func __ZN15AlbumViewScreen8drawListEv, 1, void
	.line 126
	push rt,d7
	sub  sp,#0x34
	ld   fr,sp
	add  fr,#0x5c
	ld   d4,i0
	.dlab LBB145
	.dlab LBB146
	.line 127
	ld   r0,#0x1
	ld.b [i0,2279],r0
	.dlab LBB147
	.stabs	"c:/Apps/MoSync2.4/include/MAUtil/Vector.h",132,0,0,Ltext65
Ltext65:
	.line 306
	ld   i0,[i0,44]
	call &__ZN4MAUI6Widget11getChildrenEv ; call non-native
	ld   d0,r14
	.dlab LBB148
	.dlab LBB149
	.dlab LBB150
	.dlab LBB151
	.dlab LBB152
	.dlab LBB153
	.dlab LBB154
	.line 288
	ld   r14,[r14,4]
	ld   r2,#0x0
	jc   lt,r14,r2,#L385
	ld   r1,[d0]
L289:
	.dlab LBE154
	.dlab LBE153
	.dlab LBE152
	.dlab LBB155
	.line 274
	ld   r0,#0x0
	jc   le,r1,r0,#L363
	ld   i0,[d0,8]
L299:
	.line 275
	ld   r14,r0
	sll  r14,#0x2
	add  r14,i0
	ld   r2,#0x0
	ld   [r14],r2
	.line 274
	add  r0,#0x1
	jc   gt,r1,r0,#L299
L363:
	.dlab LBE155
	.line 278
	ld   r14,#0x0
	ld   [d0],r14
	.dlab LBE151
	.dlab LBE150
	.dlab LBE149
	.dlab LBE148
	.dlab LBE147
	.dlab LBB156
	.line 306
	ld   d3,d4
	add  d3,#0x9a0
	.dlab LBB157
	.dlab LBB158
	.dlab LBB159
	.dlab LBB160
	.dlab LBB161
	.dlab LBB162
	.dlab LBB163
	.line 288
	ld   r14,[d3,4]
	ld   r0,#0x0
	jc   lt,r14,r0,#L386
	ld   r14,[d3]
L303:
	.dlab LBE163
	.dlab LBE162
	.dlab LBE161
	.dlab LBB164
	.line 274
	ld   d0,#0x0
	ld   d6,fr
	add  d6,#0xffffffd4
	jc   le,r14,d0,#L367
L387:
	.line 275
	ld   i0,d6
	call &__ZN6MAUtil11BasicStringIcEC1Ev ; call non-native
	ld   r14,d0
	sll  r14,#0x2
	ld   i0,[d3,8]
	add  i0,r14
	ld   i1,d6
	call &__ZN6MAUtil11BasicStringIcEaSERKS1_ ; call non-native
	ld   i0,d6
	call &__ZN6MAUtil11BasicStringIcED1Ev ; call non-native
	.line 274
	add  d0,#0x1
	ld   r14,[d3]
	jc   gt,r14,d0,#L387
L367:
	.dlab LBE164
	.line 278
	ld   r2,#0x0
	ld   [d3],r2
	.dlab LBE160
	.dlab LBE159
	.dlab LBE158
	.dlab LBE157
	.dlab LBE156
	.dlab LBB165
	.stabs	"C:\\GameCards Core\\GameCards\\MobidexANC\\AlbumViewScreen.cpp",132,0,0,Ltext66
Ltext66:
	.line 132
	ld   d7,fr
	add  d7,#0xffffffcc
	ld   r14,d4
	add  r14,#0x960
	ld   [fr,-72],r14
	ld   i0,d7
	ld   i1,r14
	call &__ZN6MAUtil10DictionaryIKNS_11BasicStringIcEENS_4PairIS3_4CardEEE5beginEv ; call non-native
	ld   i0,#0xffffffc4
	add  i0,fr
	ld   i1,[fr,-72]
	call &__ZN6MAUtil10DictionaryIKNS_11BasicStringIcEENS_4PairIS3_4CardEEE3endEv ; call non-native
	ld   i0,d7
	ld   i1,#0xffffffc4
	add  i1,fr
	call &__ZNK6MAUtil10DictionaryIKNS_11BasicStringIcEENS_4PairIS3_4CardEEE8IteratorneERKS8_ ; call non-native
	and  r14,#0xff  ; zero extend
	ld   r0,#0x0
	jc   eq,r14,r0,#L388
L357:
	.dlab LBB166
	.dlab LBB167
	.dlab LBB168
	.stabs	"c:/Apps/MoSync2.4/include/MAUtil/Vector.h",132,0,0,Ltext67
Ltext67:
	.line 160
	ld   i0,d7
	call &__ZN6MAUtil10DictionaryIKNS_11BasicStringIcEENS_4PairIS3_4CardEEE8IteratorptEv ; call non-native
	ld   i0,d6
	ld   i1,r14
	add  i1,#0x4
	call &__ZN4Card5getIdEv ; call non-native
	.dlab LBB169
	.line 161
	ld   r1,[d3,4]
	ld   r14,r1
	add  r14,#0xffffffff
	ld   r0,[d3]
	jc   lt,r0,r14,#L377
	.line 162
	ld   r2,#0x0
	jc   eq,r1,r2,#L326
	.dlab LBB170
	.line 286
	ld   d2,r1
	add  d2,r1
	.dlab LBB171
	.dlab LBB172
	.line 288
	jc   lt,r1,d2,#L389
L377:
	ld   i0,[d3,8]
L325:
	.dlab LBE172
	.dlab LBE171
	.dlab LBE170
	.line 167
	add  r0,#0x1
	ld   [d3],r0
	add  r0,#0xffffffff
	sll  r0,#0x2
	add  i0,r0
	ld   i1,d6
	call &__ZN6MAUtil11BasicStringIcEaSERKS1_ ; call non-native
	.dlab LBE169
	.dlab LBE168
	ld   i0,d6
	call &__ZN6MAUtil11BasicStringIcED1Ev ; call non-native
	.stabs	"C:\\GameCards Core\\GameCards\\MobidexANC\\AlbumViewScreen.cpp",132,0,0,Ltext68
Ltext68:
	.line 134
	ld   i0,d7
	call &__ZN6MAUtil10DictionaryIKNS_11BasicStringIcEENS_4PairIS3_4CardEEE8IteratorptEv ; call non-native
	ld   i0,d6
	ld   i1,r14
	add  i1,#0x4
	call &__ZN4Card7getTextEv ; call non-native
	ld   d2,d4
	add  d2,#0x8b0
	ld   i0,d2
	ld   i1,d6
	call &__ZN6MAUtil11BasicStringIcEaSERKS1_ ; call non-native
	ld   i0,d6
	call &__ZN6MAUtil11BasicStringIcED1Ev ; call non-native
	.line 136
	ld   i0,[d4,44]
	call &__ZNK4MAUI6Widget8getWidthEv ; call non-native
	ld   d0,r14
	add  d0,#0xfffffff6
	ld   i0,#0x9c
	call &__Znwm ; call non-native
	ld   d1,r14
	ld   r14,#0x4a
	ld   [sp],r14
	ld   r0,[d4,44]
	ld   [sp,4],r0
	ld   r2,#0x2
	ld   [sp,8],r2
	ld   r14,#0x1
	ld   [sp,12],r14
	ld   i0,d1
	ld   i1,#0x0
	ld   i2,i1
	ld   i3,d0
	call &__ZN4MAUI6LayoutC1EiiiiPNS_6WidgetEii ; call non-native
	.line 137
	ld   r14,[d1]
	ld   d0,[r14,20]
	ld   i0,d1
	ld   i1,[&_gSkinAlbum]
	call d0 ; call non-native
	.line 138
	ld   i0,d1
	ld   i1,#0x1
	call &__ZN4MAUI6Widget17setDrawBackgroundEb ; call non-native
	.line 139
	ld   i0,d1
	ld   i1,d4
	add  i1,#0xc
	call &__ZN4MAUI6Widget17addWidgetListenerEPNS_14WidgetListenerE ; call non-native
	.line 141
	ld   i0,#0x84
	call &__Znwm ; call non-native
	ld   d0,r14
	ld   r0,#0x40
	ld   [sp],r0
	ld   [sp,4],d1
	ld   r2,#0x0
	ld.b [sp,8],r2
	ld.b [sp,12],r2
	ld   r14,#0x14
	ld   [sp,16],r14
	ld   i0,d0
	ld   i1,#0x0
	ld   i2,i1
	ld   i3,#0x38
	call &__ZN4MAUI5ImageC1EiiiiPNS_6WidgetEbbi ; call non-native
	.line 144
	ld   i0,d7
	call &__ZN6MAUtil10DictionaryIKNS_11BasicStringIcEENS_4PairIS3_4CardEEE8IteratorptEv ; call non-native
	.line 146
	ld   i0,d0
	ld   i1,r14
	add  i1,#0x4
	ld   i2,[d4,32]
	call &__Z13retrieveThumbPN4MAUI5ImageEP4CardP10ImageCache ; call non-native
	.line 148
	ld   i0,#0x9c
	call &__Znwm ; call non-native
	ld   d0,r14
	ld   i3,[&_scrWidth]
	add  i3,#0xffffffaa
	ld   r0,#0x4a
	ld   [sp],r0
	ld   [sp,4],d1
	ld   [sp,8],d2
	ld   r2,#0x0
	ld   [sp,12],r2
	ld   r14,[&_gFontBlackBold]
	ld   [sp,16],r14
	ld   i0,d0
	ld   i1,r2
	ld   i2,r2
	call &__ZN4MAUI5LabelC1EiiiiPNS_6WidgetERKN6MAUtil11BasicStringIcEEiPNS_4FontE ; call non-native
	ld   [d4,40],d0
	.line 149
	ld   i0,d0
	ld   i1,#0x1
	call &__ZN4MAUI5Label20setVerticalAlignmentENS0_17VerticalAlignmentE ; call non-native
	.line 150
	ld   i0,[d4,40]
	ld   i1,#0x1
	call &__ZN4MAUI5Label12setAutoSizeYEb ; call non-native
	.line 151
	ld   i0,[d4,40]
	ld   i1,#0x1
	call &__ZN4MAUI5Label12setMultiLineEb ; call non-native
	.dlab LBE167
	.dlab LBE166
	.line 132
	ld   i0,fr
	add  i0,#0xffffffbc
	ld   i1,d7
	ld   i2,#0x0
	call &__ZN6MAUtil10DictionaryIKNS_11BasicStringIcEENS_4PairIS3_4CardEEE8IteratorppEi ; call non-native
	ld   i0,#0xffffffc4
	add  i0,fr
	ld   i1,[fr,-72]
	call &__ZN6MAUtil10DictionaryIKNS_11BasicStringIcEENS_4PairIS3_4CardEEE3endEv ; call non-native
	ld   i0,d7
	ld   i1,#0xffffffc4
	add  i1,fr
	call &__ZNK6MAUtil10DictionaryIKNS_11BasicStringIcEENS_4PairIS3_4CardEEE8IteratorneERKS8_ ; call non-native
	and  r14,#0xff  ; zero extend
	ld   r0,#0x0
	jc   ne,r14,r0,#L357
L388:
	.dlab LBE165
	.line 153
	ld   i0,[fr,-72]
	call &__ZNK6MAUtil10DictionaryIKNS_11BasicStringIcEENS_4PairIS3_4CardEEE4sizeEv ; call non-native
	ld   d1,r14
	ld   r2,#0x0
	jc   eq,r14,r2,#L358
	.line 154
	ld   r14,#0x0
	ld.b [d4,2279],r14
	.line 155
	ld   i0,[d4,44]
	ld   i1,r2
	.line 158
	call &__ZN4MAUI14KineticListBox16setSelectedIndexEi ; call non-native
	.line 160
	ld   i0,d6
	ld   i1,#LC20
	call &__ZN6MAUtil11BasicStringIcEC1EPKc ; call non-native
	ld   i0,[d4,36]
	ld   r14,[i0]
	ld   d0,[r14,92]
	ld   i1,d6
	call d0 ; call non-native
	ld   i0,d6
	call &__ZN6MAUtil11BasicStringIcED1Ev ; call non-native
	.dlab LBE146
	.dlab LBE145
	add  sp,#0x34
	pop  rt,d7
	ret
L389:
	.dlab LBB173
	.dlab LBB174
	.dlab LBB175
	.dlab LBB176
	.dlab LBB177
	.dlab LBB178
	.dlab LBB179
	.dlab LBB180
	.dlab LBB181
	.dlab LBB182
	.stabs	"c:/Apps/MoSync2.4/include/MAUtil/Vector.h",132,0,0,Ltext69
Ltext69:
	.line 291
	ld   i0,d2
	sll  i0,#0x2
	add  i0,#0x4
	call &__Znam ; call non-native
	ld   d5,r14
	add  d5,#0x4
	ld   [r14],d2
	ld   d1,d5
	ld   d0,d2
	jp   #L380
L390:
	ld   i0,d1
	call &__ZN6MAUtil11BasicStringIcEC1Ev ; call non-native
	add  d1,#0x4
L380:
	add  d0,#0xffffffff
	ld   r14,#0xffffffff
	jc   ne,d0,r14,#L390
	.dlab LBB183
	.line 293
	ld   d0,#0x0
	ld   r0,[d3]
	jc   le,r0,d0,#L369
L391:
	.line 294
	ld   r14,d0
	sll  r14,#0x2
	ld   i0,r14
	add  i0,d5
	ld   i1,[d3,8]
	add  i1,r14
	call &__ZN6MAUtil11BasicStringIcEaSERKS1_ ; call non-native
	.line 293
	add  d0,#0x1
	ld   r0,[d3]
	jc   gt,r0,d0,#L391
L369:
	.dlab LBE183
	.line 297
	ld   [d3,4],d2
	.line 298
	ld   i0,[d3,8]
	ld   r2,#0x0
	jc   eq,i0,r2,#L338
	ld   d0,[i0,-4]
	sll  d0,#0x2
	add  d0,i0
	jc   eq,i0,d0,#L340
L392:
	add  d0,#0xfffffffc
	ld   i0,d0
	call &__ZN6MAUtil11BasicStringIcED1Ev ; call non-native
	ld   i0,[d3,8]
	jc   ne,i0,d0,#L392
L340:
	add  i0,#0xfffffffc
	call &__ZdaPv ; call non-native
	ld   r0,[d3]
L338:
	.line 300
	ld   i0,d5
	.dlab LBE182
	.dlab LBE181
	.dlab LBE180
	.dlab LBB184
	.dlab LBB185
	.dlab LBB186
	ld   [d3,8],i0
	jp   #L325
L326:
	.line 291
	ld   i0,#0x14
	call &__Znam ; call non-native
	ld   d2,r14
	add  d2,#0x4
	ld   r0,#0x4
	ld   [r14],r0
	ld   d0,d2
	ld   d1,#0x3
	ld   r2,#0xffffffff
	jc   eq,d1,r2,#L345
L393:
	ld   i0,d0
	call &__ZN6MAUtil11BasicStringIcEC1Ev ; call non-native
	add  d0,#0x4
	add  d1,#0xffffffff
	ld   r2,#0xffffffff
	jc   ne,d1,r2,#L393
L345:
	.dlab LBB187
	.line 293
	ld   d0,#0x0
	ld   r0,[d3]
	jc   le,r0,d0,#L371
L394:
	.line 294
	ld   r14,d0
	sll  r14,#0x2
	ld   i0,r14
	add  i0,d2
	ld   i1,[d3,8]
	add  i1,r14
	call &__ZN6MAUtil11BasicStringIcEaSERKS1_ ; call non-native
	.line 293
	add  d0,#0x1
	ld   r0,[d3]
	jc   gt,r0,d0,#L394
L371:
	.dlab LBE187
	.line 297
	ld   r14,#0x4
	ld   [d3,4],r14
	.line 298
	ld   i0,[d3,8]
	ld   r2,#0x0
	jc   eq,i0,r2,#L353
	ld   d0,[i0,-4]
	sll  d0,#0x2
	add  d0,i0
	jc   eq,i0,d0,#L355
L395:
	add  d0,#0xfffffffc
	ld   i0,d0
	call &__ZN6MAUtil11BasicStringIcED1Ev ; call non-native
	ld   i0,[d3,8]
	jc   ne,i0,d0,#L395
L355:
	add  i0,#0xfffffffc
	call &__ZdaPv ; call non-native
	ld   r0,[d3]
L353:
	.line 300
	ld   i0,d2
	ld   [d3,8],i0
	jp   #L325
L358:
	.dlab LBE186
	.dlab LBE185
	.dlab LBE184
	.dlab LBE179
	.dlab LBE178
	.dlab LBE177
	.dlab LBE176
	.dlab LBE175
	.stabs	"C:\\GameCards Core\\GameCards\\MobidexANC\\AlbumViewScreen.cpp",132,0,0,Ltext70
Ltext70:
	.line 157
	ld   i0,d6
	ld   i1,[&_empty]
	call &__ZN6MAUtil11BasicStringIcEC1EPKc ; call non-native
	ld   i0,d6
	ld   i1,#0x30
	call &__Z14createSubLabelN6MAUtil11BasicStringIcEEi ; call non-native
	ld   i0,[d4,44]
	ld   r0,[i0]
	ld   d0,[r0]
	ld   i1,r14
	call d0 ; call non-native
	ld   i0,d6
	call &__ZN6MAUtil11BasicStringIcED1Ev ; call non-native
	.line 158
	ld   i0,[d4,44]
	ld   i1,d1
	call &__ZN4MAUI14KineticListBox16setSelectedIndexEi ; call non-native
	.line 160
	ld   i0,d6
	ld   i1,#LC20
	call &__ZN6MAUtil11BasicStringIcEC1EPKc ; call non-native
	ld   i0,[d4,36]
	ld   r14,[i0]
	ld   d0,[r14,92]
	ld   i1,d6
	call d0 ; call non-native
	ld   i0,d6
	call &__ZN6MAUtil11BasicStringIcED1Ev ; call non-native
	.dlab LBE174
	.dlab LBE173
	add  sp,#0x34
	pop  rt,d7
	ret
L386:
	.dlab LBB188
	.dlab LBB189
	.dlab LBB190
	.dlab LBB191
	.dlab LBB192
	.dlab LBB193
	.dlab LBB194
	.dlab LBB195
	.dlab LBB196
	.dlab LBB197
	.stabs	"c:/Apps/MoSync2.4/include/MAUtil/Vector.h",132,0,0,Ltext71
Ltext71:
	.line 291
	ld   i0,#0x4
	call &__Znam ; call non-native
	ld   d1,r14
	add  d1,#0x4
	ld   r2,#0x0
	ld   [r14],r2
	ld   d0,d1
	ld   d2,#0xffffffff
L304:
	ld   r14,#0xffffffff
	jc   ne,d2,r14,#L396
	.dlab LBB198
	.line 293
	ld   d0,#0x0
	ld   r14,[d3]
	jc   le,r14,d0,#L365
L397:
	.line 294
	ld   r14,d0
	sll  r14,#0x2
	ld   i0,r14
	add  i0,d1
	ld   i1,[d3,8]
	add  i1,r14
	call &__ZN6MAUtil11BasicStringIcEaSERKS1_ ; call non-native
	.line 293
	add  d0,#0x1
	ld   r14,[d3]
	jc   gt,r14,d0,#L397
L365:
	.dlab LBE198
	.line 297
	ld   r0,#0x0
	ld   [d3,4],r0
	.line 298
	ld   i0,[d3,8]
	jc   eq,i0,r0,#L313
	ld   d0,[i0,-4]
	sll  d0,#0x2
	add  d0,i0
L314:
	jc   eq,i0,d0,#L315
	add  d0,#0xfffffffc
	ld   i0,d0
	call &__ZN6MAUtil11BasicStringIcED1Ev ; call non-native
	ld   i0,[d3,8]
	jp   #L314
L385:
	.dlab LBE197
	.dlab LBE196
	.dlab LBE195
	.dlab LBE194
	.dlab LBE193
	.dlab LBE192
	.dlab LBE191
	.dlab LBE190
	.dlab LBB199
	.dlab LBB200
	.dlab LBB201
	.dlab LBB202
	.dlab LBB203
	.dlab LBB204
	.dlab LBB205
	.dlab LBB206
	.line 291
	ld   i0,r2
	call &__Znam ; call non-native
	ld   d1,r14
	.dlab LBB207
	.line 293
	ld   r2,#0x0
	ld   r1,[d0]
	jc   le,r1,r2,#L373
	ld   i0,[d0,8]
L293:
	.line 294
	ld   r14,r2
	sll  r14,#0x2
	ld   r0,r14
	add  r0,d1
	add  r14,i0
	ld   r14,[r14]
	ld   [r0],r14
	.line 293
	add  r2,#0x1
	jc   gt,r1,r2,#L293
L361:
	.dlab LBE207
	.line 297
	ld   r14,#0x0
	ld   [d0,4],r14
	.line 298
	jc   ne,i0,r14,#L398
	.line 300
	ld   [d0,8],d1
	jp   #L289
L315:
	.dlab LBE206
	.dlab LBE205
	.dlab LBE204
	.dlab LBE203
	.dlab LBE202
	.dlab LBE201
	.dlab LBE200
	.dlab LBE199
	.dlab LBB208
	.dlab LBB209
	.dlab LBB210
	.dlab LBB211
	.dlab LBB212
	.dlab LBB213
	.dlab LBB214
	.dlab LBB215
	.line 298
	add  i0,#0xfffffffc
	call &__ZdaPv ; call non-native
	ld   r14,[d3]
L313:
	.line 300
	ld   [d3,8],d1
	jp   #L303
L398:
	.dlab LBE215
	.dlab LBE214
	.dlab LBE213
	.dlab LBE212
	.dlab LBE211
	.dlab LBE210
	.dlab LBE209
	.dlab LBE208
	.dlab LBB216
	.dlab LBB217
	.dlab LBB218
	.dlab LBB219
	.dlab LBB220
	.dlab LBB221
	.dlab LBB222
	.dlab LBB223
	.line 298
	call &__ZdaPv ; call non-native
	ld   r1,[d0]
	.line 300
	ld   [d0,8],d1
	jp   #L289
L373:
	ld   i0,[d0,8]
	jp   #L361
L396:
	.dlab LBE223
	.dlab LBE222
	.dlab LBE221
	.dlab LBE220
	.dlab LBE219
	.dlab LBE218
	.dlab LBE217
	.dlab LBE216
	.dlab LBB224
	.dlab LBB225
	.dlab LBB226
	.dlab LBB227
	.dlab LBB228
	.dlab LBB229
	.dlab LBB230
	.dlab LBB231
	.line 291
	ld   i0,d0
	call &__ZN6MAUtil11BasicStringIcEC1Ev ; call non-native
	add  d0,#0x4
	add  d2,#0xffffffff
	jp   #L304
	.dlab LBE231
	.dlab LBE230
	.dlab LBE229
	.dlab LBE228
	.dlab LBE227
	.dlab LBE226
	.dlab LBE225
	.dlab LBE224
	.dlab LBE189
	.dlab LBE188
	.stabs	"newData:r(8,2)",64,0,291,5
	.stabn	192,0,0,LBB154-__ZN15AlbumViewScreen8drawListEv
	.stabn	224,0,0,LBE154-__ZN15AlbumViewScreen8drawListEv
	.stabs	"i:r(0,3)",64,0,274,16
	.stabn	192,0,0,LBB155-__ZN15AlbumViewScreen8drawListEv
	.stabn	224,0,0,LBE155-__ZN15AlbumViewScreen8drawListEv
	.stabs	"i:r(0,3)",64,0,274,4
	.stabn	192,0,0,LBB164-__ZN15AlbumViewScreen8drawListEv
	.stabn	224,0,0,LBE164-__ZN15AlbumViewScreen8drawListEv
	.stabs	"itr:(6,10)",128,0,132,-52
	.stabn	192,0,0,LBB165-__ZN15AlbumViewScreen8drawListEv
	.stabs	"newCapacity:r(0,3)",64,0,286,6
	.stabn	192,0,0,LBB170-__ZN15AlbumViewScreen8drawListEv
	.stabn	224,0,0,LBE170-__ZN15AlbumViewScreen8drawListEv
	.stabn	224,0,0,LBE165-__ZN15AlbumViewScreen8drawListEv
	.stabs	"itr:(6,10)",128,0,132,-52
	.stabn	192,0,0,LBB175-__ZN15AlbumViewScreen8drawListEv
	.stabs	"newCapacity:r(0,3)",64,0,286,6
	.stabn	192,0,0,LBB180-__ZN15AlbumViewScreen8drawListEv
	.stabs	"i:r(0,3)",64,0,293,4
	.stabn	192,0,0,LBB183-__ZN15AlbumViewScreen8drawListEv
	.stabn	224,0,0,LBE183-__ZN15AlbumViewScreen8drawListEv
	.stabn	224,0,0,LBE180-__ZN15AlbumViewScreen8drawListEv
	.stabs	"i:r(0,3)",64,0,293,4
	.stabn	192,0,0,LBB187-__ZN15AlbumViewScreen8drawListEv
	.stabn	224,0,0,LBE187-__ZN15AlbumViewScreen8drawListEv
	.stabn	224,0,0,LBE175-__ZN15AlbumViewScreen8drawListEv
	.stabs	"i:r(0,3)",64,0,293,4
	.stabn	192,0,0,LBB198-__ZN15AlbumViewScreen8drawListEv
	.stabn	224,0,0,LBE198-__ZN15AlbumViewScreen8drawListEv
	.stabs	"newData:r(8,2)",64,0,291,5
	.stabn	192,0,0,LBB206-__ZN15AlbumViewScreen8drawListEv
	.stabs	"i:r(0,3)",64,0,293,18
	.stabn	192,0,0,LBB207-__ZN15AlbumViewScreen8drawListEv
	.stabn	224,0,0,LBE207-__ZN15AlbumViewScreen8drawListEv
	.stabn	224,0,0,LBE206-__ZN15AlbumViewScreen8drawListEv
	.stabs	"newData:r(8,2)",64,0,291,5
	.stabn	192,0,0,LBB223-__ZN15AlbumViewScreen8drawListEv
	.stabn	224,0,0,LBE223-__ZN15AlbumViewScreen8drawListEv
Lscope62:
	.stabs	"_ZN6MAUtil10DictionaryIKNS_11BasicStringIcEENS_4PairIS3_4CardEEE13ConstIteratorppEv:f(0,55)",36,0,285,__ZN6MAUtil10DictionaryIKNS_11BasicStringIcEENS_4PairIS3_4CardEEE13ConstIteratorppEv
	.stabs	"this:P(0,193)=k(0,56)",64,0,285,4

.func __ZN6MAUtil10DictionaryIKNS_11BasicStringIcEENS_4PairIS3_4CardEEE13ConstIteratorppEv, 1, int
	.stabs	"c:/Apps/MoSync2.4/include/MAUtil/Dictionary_impl.h",132,0,0,Ltext72
Ltext72:
	.line 285
	push rt,d0
	ld   fr,sp
	add  fr,#0xc
	ld   d0,i0
	.dlab LBB232
	.line 286
	ld   i1,[i0]
	ld   r14,#0x0
	jc   eq,i1,r14,#L402
	.line 287
	ld   i0,[i0,4]
	call &_dict_next ; call non-native
	ld   [d0],r14
	.dlab LBE232
	.line 288
	ld   r14,d0
	pop  rt,d0
	ret
L402:
	.dlab LBB233
	.line 286
	ld   i0,#LC21
	call &_FileNameFromPath ; call non-native
	ld   i0,#0x6
	ld   i1,r14
	ld   i2,#0x11e
	call &_bfeHandler ; call non-native
	.dlab LBE233
Lscope63:
	.stabs	"_ZN6MAUtil10DictionaryIKNS_11BasicStringIcEENS_4PairIS3_4CardEEE13ConstIteratorC1EPK6dict_t:f(0,6)",36,0,252,__ZN6MAUtil10DictionaryIKNS_11BasicStringIcEENS_4PairIS3_4CardEEE13ConstIteratorC1EPK6dict_t
	.stabs	"this:P(0,193)",64,0,252,12
	.stabs	"dict:P(0,47)",64,0,252,13

.func __ZN6MAUtil10DictionaryIKNS_11BasicStringIcEENS_4PairIS3_4CardEEE13ConstIteratorC1EPK6dict_t, 2, void
	.line 252
	push fr,fr
	ld   fr,sp
	add  fr,#0x4
	.dlab LBB234
	.line 253
	ld   r14,#0x0
	ld   [i0],r14
	ld   [i0,4],i1
	.dlab LBE234
	pop  fr,fr
	ret
Lscope64:
	.stabs	"_ZNK6MAUtil10DictionaryIKNS_11BasicStringIcEENS_4PairIS3_4CardEEE5beginEv:f(6,12)",36,0,112,__ZNK6MAUtil10DictionaryIKNS_11BasicStringIcEENS_4PairIS3_4CardEEE5beginEv
	.stabs	"this:P(0,177)",64,0,112,4

.func __ZNK6MAUtil10DictionaryIKNS_11BasicStringIcEENS_4PairIS3_4CardEEE5beginEv, 2, int
	.line 112
	push rt,d1
	ld   fr,sp
	add  fr,#0x10
	ld   d1,i0
	ld   d0,i1
	.dlab LBB235
	.dlab LBB236
	.line 113
	call &__ZN6MAUtil10DictionaryIKNS_11BasicStringIcEENS_4PairIS3_4CardEEE13ConstIteratorC1EPK6dict_t ; call non-native
	.line 114
	ld   i0,d0
	call &_dict_first ; call non-native
	ld   [d1],r14
	.dlab LBE236
	.dlab LBE235
	.line 115
	ld   r14,d1
	pop  rt,d1
	ret
	.stabs	"itr:r(0,194)=*(6,12)",64,0,113,5
	.stabn	192,0,0,LBB236-__ZNK6MAUtil10DictionaryIKNS_11BasicStringIcEENS_4PairIS3_4CardEEE5beginEv
	.stabn	224,0,0,LBE236-__ZNK6MAUtil10DictionaryIKNS_11BasicStringIcEENS_4PairIS3_4CardEEE5beginEv
Lscope65:
	.stabs	"_ZNK6MAUtil10DictionaryIKNS_11BasicStringIcEENS_4PairIS3_4CardEEE3endEv:f(6,12)",36,0,128,__ZNK6MAUtil10DictionaryIKNS_11BasicStringIcEENS_4PairIS3_4CardEEE3endEv
	.stabs	"this:P(0,177)",64,0,128,13

.func __ZNK6MAUtil10DictionaryIKNS_11BasicStringIcEENS_4PairIS3_4CardEEE3endEv, 2, int
	.line 128
	push rt,d0
	ld   fr,sp
	add  fr,#0xc
	ld   d0,i0
	.dlab LBB237
	.dlab LBB238
	.line 129
	call &__ZN6MAUtil10DictionaryIKNS_11BasicStringIcEENS_4PairIS3_4CardEEE13ConstIteratorC1EPK6dict_t ; call non-native
	.line 130
	ld   r14,#0x0
	ld   [d0],r14
	.dlab LBE238
	.dlab LBE237
	.line 131
	ld   r14,d0
	pop  rt,d0
	ret
	.stabs	"itr:r(0,195)=*(6,12)",64,0,129,4
	.stabn	192,0,0,LBB238-__ZNK6MAUtil10DictionaryIKNS_11BasicStringIcEENS_4PairIS3_4CardEEE3endEv
	.stabn	224,0,0,LBE238-__ZNK6MAUtil10DictionaryIKNS_11BasicStringIcEENS_4PairIS3_4CardEEE3endEv
Lscope66:
	.stabs	"_ZN6MAUtil10DictionaryIKNS_11BasicStringIcEENS_4PairIS3_4CardEEE8DictNodeC1ES6_:f(0,6)",36,0,32,__ZN6MAUtil10DictionaryIKNS_11BasicStringIcEENS_4PairIS3_4CardEEE8DictNodeC1ES6_
	.stabs	"this:P(0,196)=k(6,37)",64,0,32,4
	.stabs	"s:a(6,25)",64,0,32,5

.func __ZN6MAUtil10DictionaryIKNS_11BasicStringIcEENS_4PairIS3_4CardEEE8DictNodeC1ES6_, 2, void
	.line 32
	push rt,d3
	ld   fr,sp
	add  fr,#0x18
	ld   d0,i0
	ld   d1,i1
	.dlab LBB239
	.dlab LBB240
	.dlab LBB241
	.line 63
	add  i0,#0x18
	call &__ZN6MAUtil11BasicStringIcEC1ERKS1_ ; call non-native
	.dlab LBB242
	.stabs	"c:/Apps/MoSync2.4/include/MAUtil/Map.h",132,0,0,Ltext73
Ltext73:
	.line 48
	ld   d3,d0
	add  d3,#0x1c
	ld   d2,d1
	add  d2,#0x4
	.dlab LBB243
	ld   i0,d3
	ld   i1,d2
	call &__ZN6MAUtil11BasicStringIcEC1ERKS1_ ; call non-native
	ld   i0,d0
	add  i0,#0x20
	ld   i1,d1
	add  i1,#0x8
	call &__ZN6MAUtil11BasicStringIcEC1ERKS1_ ; call non-native
	ld   i0,d0
	add  i0,#0x24
	ld   i1,d1
	add  i1,#0xc
	call &__ZN6MAUtil11BasicStringIcEC1ERKS1_ ; call non-native
	ld   i0,d0
	add  i0,#0x28
	ld   i1,d1
	add  i1,#0x10
	call &__ZN6MAUtil11BasicStringIcEC1ERKS1_ ; call non-native
	ld   i0,d0
	add  i0,#0x2c
	ld   i1,d1
	add  i1,#0x14
	call &__ZN6MAUtil11BasicStringIcEC1ERKS1_ ; call non-native
	ld   i0,d0
	add  i0,#0x30
	ld   i1,d1
	add  i1,#0x18
	call &__ZN6MAUtil11BasicStringIcEC1ERKS1_ ; call non-native
	ld   i0,d0
	add  i0,#0x34
	ld   i1,d1
	add  i1,#0x1c
	call &__ZN6MAUtil11BasicStringIcEC1ERKS1_ ; call non-native
	ld   i0,d0
	add  i0,#0x38
	ld   i1,d1
	add  i1,#0x20
	call &__ZN6MAUtil11BasicStringIcEC1ERKS1_ ; call non-native
	ld.b d2,[d2,32]
	ld.b [d3,32],d2
	.dlab LBE243
	.dlab LBE242
	.dlab LBE241
	.dlab LBE240
	.stabs	"c:/Apps/MoSync2.4/include/MAUtil/Dictionary_impl.h",132,0,0,Ltext74
Ltext74:
	.line 34
	ld   r14,#0x0
	ld   [d0],r14
	ld   [d0,4],r14
	ld   [d0,8],r14
	ld   [d0,12],r14
	ld   [d0,16],r14
	ld   [d0,20],r14
	.dlab LBE239
	pop  rt,d3
	ret
	.stabs	"this:r(0,190)",64,0,48,7
	.stabs	"_ctor_arg:r(28,9)",64,0,48,6
	.stabn	192,0,0,LBB242-__ZN6MAUtil10DictionaryIKNS_11BasicStringIcEENS_4PairIS3_4CardEEE8DictNodeC1ES6_
	.stabn	224,0,0,LBE242-__ZN6MAUtil10DictionaryIKNS_11BasicStringIcEENS_4PairIS3_4CardEEE8DictNodeC1ES6_
Lscope67:
	.stabs	"_ZN6MAUtil10DictionaryIKNS_11BasicStringIcEENS_4PairIS3_4CardEEE6insertERKS6_:f(6,22)",36,0,84,__ZN6MAUtil10DictionaryIKNS_11BasicStringIcEENS_4PairIS3_4CardEEE6insertERKS6_
	.stabs	"this:p(0,181)",160,0,84,-84
	.stabs	"data:P(6,23)",64,0,84,4

.func __ZN6MAUtil10DictionaryIKNS_11BasicStringIcEENS_4PairIS3_4CardEEE6insertERKS6_, 3, int
	.line 84
	push rt,d7
	sub  sp,#0x2c
	ld   fr,sp
	add  fr,#0x54
	ld   d7,i0
	ld   [fr,-84],i1
	ld   d0,i2
	.dlab LBB244
	.dlab LBB245
	.line 85
	ld   r14,#0x0
	ld   [i0],r14
	ld   [i0,4],r14
	ld.b [i0,8],r14
	call &__ZN6MAUtil10DictionaryIKNS_11BasicStringIcEENS_4PairIS3_4CardEEE8IteratorC1EP6dict_t ; call non-native
	.dlab LBB246
	.dlab LBB247
	.line 63
	ld   i0,#0xffffffb0
	add  i0,fr
	ld   i1,d0
	call &__ZN6MAUtil11BasicStringIcEC1ERKS1_ ; call non-native
	.dlab LBB248
	.stabs	"c:/Apps/MoSync2.4/include/MAUtil/Map.h",132,0,0,Ltext75
Ltext75:
	.line 48
	ld   d6,d0
	add  d6,#0x4
	.dlab LBB249
	ld   i0,#0xffffffb4
	add  i0,fr
	ld   i1,d6
	call &__ZN6MAUtil11BasicStringIcEC1ERKS1_ ; call non-native
	ld   i0,#0xffffffb8
	add  i0,fr
	ld   i1,d0
	add  i1,#0x8
	call &__ZN6MAUtil11BasicStringIcEC1ERKS1_ ; call non-native
	ld   i0,#0xffffffbc
	add  i0,fr
	ld   i1,d0
	add  i1,#0xc
	call &__ZN6MAUtil11BasicStringIcEC1ERKS1_ ; call non-native
	ld   d3,fr
	add  d3,#0xffffffc0
	ld   i0,d3
	ld   i1,d0
	add  i1,#0x10
	call &__ZN6MAUtil11BasicStringIcEC1ERKS1_ ; call non-native
	ld   d5,fr
	add  d5,#0xffffffc4
	ld   i0,d5
	ld   i1,d0
	add  i1,#0x14
	call &__ZN6MAUtil11BasicStringIcEC1ERKS1_ ; call non-native
	ld   d4,fr
	add  d4,#0xffffffc8
	ld   i0,d4
	ld   i1,d0
	add  i1,#0x18
	call &__ZN6MAUtil11BasicStringIcEC1ERKS1_ ; call non-native
	ld   d2,fr
	add  d2,#0xffffffcc
	ld   i0,d2
	ld   i1,d0
	add  i1,#0x1c
	call &__ZN6MAUtil11BasicStringIcEC1ERKS1_ ; call non-native
	ld   d1,fr
	add  d1,#0xffffffd0
	ld   i0,d1
	ld   i1,d0
	add  i1,#0x20
	call &__ZN6MAUtil11BasicStringIcEC1ERKS1_ ; call non-native
	ld.b d6,[d6,32]
	ld.b [fr,-44],d6
	.dlab LBE249
	.dlab LBE248
	.dlab LBE247
	.dlab LBE246
	ld   i0,#0x40
	call &__Znwm ; call non-native
	ld   d0,r14
	ld   i0,r14
	ld   i1,#0xffffffb0
	add  i1,fr
	call &__ZN6MAUtil10DictionaryIKNS_11BasicStringIcEENS_4PairIS3_4CardEEE8DictNodeC1ES6_ ; call non-native
	.stabs	"C:\\GameCards Core\\GameCards\\MobidexANC\\AlbumViewScreen.cpp",132,0,0,Ltext76
Ltext76:
	.line 11
	ld   i0,d1
	call &__ZN6MAUtil11BasicStringIcED1Ev ; call non-native
	ld   i0,d2
	call &__ZN6MAUtil11BasicStringIcED1Ev ; call non-native
	ld   i0,d4
	call &__ZN6MAUtil11BasicStringIcED1Ev ; call non-native
	ld   i0,d5
	call &__ZN6MAUtil11BasicStringIcED1Ev ; call non-native
	ld   i0,d3
	call &__ZN6MAUtil11BasicStringIcED1Ev ; call non-native
	ld   i0,#0xffffffbc
	add  i0,fr
	call &__ZN6MAUtil11BasicStringIcED1Ev ; call non-native
	ld   i0,#0xffffffb8
	add  i0,fr
	call &__ZN6MAUtil11BasicStringIcED1Ev ; call non-native
	ld   i0,#0xffffffb4
	add  i0,fr
	call &__ZN6MAUtil11BasicStringIcED1Ev ; call non-native
	ld   i0,#0xffffffb0
	add  i0,fr
	call &__ZN6MAUtil11BasicStringIcED1Ev ; call non-native
	.stabs	"c:/Apps/MoSync2.4/include/MAUtil/Dictionary_impl.h",132,0,0,Ltext77
Ltext77:
	.line 87
	ld   i0,d0
	ld   i1,#0x0
	call &_dnode_init ; call non-native
	.line 88
	ld   d2,d0
	add  d2,#0x18
	.line 90
	ld   i0,[fr,-84]
	ld   i1,d0
	ld   i2,[i0,52]
	add  i2,d2
	call &_dict_insert ; call non-native
	ld   d1,r14
	.line 91
	ld   r14,#0x0
	jc   eq,d1,r14,#L419
	.line 92
	jc   ne,d0,r14,#L433
L421:
	.line 93
	ld   [d7],d1
	.line 94
	ld   r14,#0x0
	.line 97
	ld.b [d7,8],r14
	.dlab LBE245
	.dlab LBE244
	.line 99
	ld   r14,d7
	add  sp,#0x2c
	pop  rt,d7
	ret
L433:
	.dlab LBB250
	.dlab LBB251
	.dlab LBB252
	.dlab LBB253
	.dlab LBB254
	.dlab LBB255
	.dlab LBB256
	.dlab LBB257
	.stabs	"C:\\GameCards Core\\GameCards\\MobidexANC\\AlbumViewScreen.cpp",132,0,0,Ltext78
Ltext78:
	.line 11
	ld   i0,d0
	add  i0,#0x38
	call &__ZN6MAUtil11BasicStringIcED1Ev ; call non-native
	ld   i0,d0
	add  i0,#0x34
	call &__ZN6MAUtil11BasicStringIcED1Ev ; call non-native
	ld   i0,d0
	add  i0,#0x30
	call &__ZN6MAUtil11BasicStringIcED1Ev ; call non-native
	ld   i0,d0
	add  i0,#0x2c
	call &__ZN6MAUtil11BasicStringIcED1Ev ; call non-native
	ld   i0,d0
	add  i0,#0x28
	call &__ZN6MAUtil11BasicStringIcED1Ev ; call non-native
	ld   i0,d0
	add  i0,#0x24
	call &__ZN6MAUtil11BasicStringIcED1Ev ; call non-native
	ld   i0,d0
	add  i0,#0x20
	call &__ZN6MAUtil11BasicStringIcED1Ev ; call non-native
	add  d0,#0x1c
	ld   i0,d0
	add  d0,#0xffffffe4
	call &__ZN6MAUtil11BasicStringIcED1Ev ; call non-native
	.dlab LBE257
	.dlab LBE256
	ld   i0,d2
	call &__ZN6MAUtil11BasicStringIcED1Ev ; call non-native
	.dlab LBE255
	.dlab LBE254
	.dlab LBE253
	.dlab LBE252
	ld   i0,d0
	call &__ZdlPv ; call non-native
	jp   #L421
L419:
	.stabs	"c:/Apps/MoSync2.4/include/MAUtil/Dictionary_impl.h",132,0,0,Ltext79
Ltext79:
	.line 96
	ld   [d7],d0
	.line 97
	ld   r14,#0x1
	ld.b [d7,8],r14
	.dlab LBE251
	.dlab LBE250
	.line 99
	ld   r14,d7
	add  sp,#0x2c
	pop  rt,d7
	ret
	.stabs	"pair:r(0,197)=*(6,22)",64,0,85,11
	.stabs	"ptr:r(3,5)",64,0,88,6
	.stabs	"res:r(6,37)",64,0,90,5
	.stabn	192,0,0,LBB245-__ZN6MAUtil10DictionaryIKNS_11BasicStringIcEENS_4PairIS3_4CardEEE6insertERKS6_
	.stabs	"_ctor_arg:r(28,9)",64,0,48,10
	.stabn	192,0,0,LBB248-__ZN6MAUtil10DictionaryIKNS_11BasicStringIcEENS_4PairIS3_4CardEEE6insertERKS6_
	.stabn	224,0,0,LBE248-__ZN6MAUtil10DictionaryIKNS_11BasicStringIcEENS_4PairIS3_4CardEEE6insertERKS6_
	.stabn	224,0,0,LBE245-__ZN6MAUtil10DictionaryIKNS_11BasicStringIcEENS_4PairIS3_4CardEEE6insertERKS6_
	.stabs	"pair:r(0,198)=*(6,22)",64,0,85,11
	.stabs	"ptr:r(3,5)",64,0,88,6
	.stabs	"res:r(6,37)",64,0,90,5
	.stabn	192,0,0,LBB251-__ZN6MAUtil10DictionaryIKNS_11BasicStringIcEENS_4PairIS3_4CardEEE6insertERKS6_
	.stabn	224,0,0,LBE251-__ZN6MAUtil10DictionaryIKNS_11BasicStringIcEENS_4PairIS3_4CardEEE6insertERKS6_
Lscope68:
	.stabs	"_ZN15AlbumViewScreen10loadImagesEPKc:F(0,6)",36,0,56,__ZN15AlbumViewScreen10loadImagesEPKc
	.stabs	"this:P(0,175)",64,0,56,11
	.stabs	"text:P(19,27)",64,0,56,13
	.global	__ZN15AlbumViewScreen10loadImagesEPKc

.func __ZN15AlbumViewScreen10loadImagesEPKc, 2, void
	.stabs	"C:\\GameCards Core\\GameCards\\MobidexANC\\AlbumViewScreen.cpp",132,0,0,Ltext80
Ltext80:
	.line 56
	push rt,d7
	sub  sp,#0x50
	ld   fr,sp
	add  fr,#0x78
	ld   d7,i0
	.dlab LBB258
	.dlab LBB259
	.line 57
	ld   i0,#0xffffffd4
	add  i0,fr
	call &__ZN6MAUtil11BasicStringIcEC1EPKc ; call non-native
	.line 60
	ld   i0,#0xffffffd0
	add  i0,fr
	call &__ZN6MAUtil11BasicStringIcEC1Ev ; call non-native
	.line 61
	ld   i0,#0xffffffcc
	add  i0,fr
	call &__ZN6MAUtil11BasicStringIcEC1Ev ; call non-native
	ld   i0,#0xffffffc8
	add  i0,fr
	call &__ZN6MAUtil11BasicStringIcEC1Ev ; call non-native
	jp   #L435
L445:
	.line 63
	ld   d1,fr
	add  d1,#0xffffffc0
	add  d6,#0x1
	ld   i0,d1
	ld   i1,#0xffffffd4
	add  i1,fr
	ld   i2,#0x0
	ld   i3,d0
	call &__ZNK6MAUtil11BasicStringIcE6substrEii ; call non-native
	ld   i0,#0xffffffd0
	add  i0,fr
	ld   i1,d1
	call &__ZN6MAUtil11BasicStringIcEaSERKS1_ ; call non-native
	ld   i0,d1
	call &__ZN6MAUtil11BasicStringIcED1Ev ; call non-native
	.line 64
	ld   i0,#0xffffffd0
	add  i0,fr
	call &__ZNK6MAUtil11BasicStringIcE5c_strEv ; call non-native
	ld   d3,d7
	add  d3,#0x9ac
	ld   i0,d3
	ld   i1,r14
	call &__ZN4Card6setAllEPKc ; call non-native
	.dlab LBB260
	.stabs	"c:/Apps/MoSync2.4/include/MAUtil/Map.h",132,0,0,Ltext81
Ltext81:
	.line 47
	ld   r14,d7
	add  r14,#0x960
	ld   [fr,-120],r14
	ld   i0,d1
	ld   i1,d3
	call &__ZN4Card5getIdEv ; call non-native
	.dlab LBB261
	.dlab LBB262
	.line 48
	ld   r14,#0x0
	ld   [fr,-116],r14
	ld   [fr,-112],r14
	ld   [fr,-108],r14
	ld   [fr,-104],r14
	ld   [fr,-100],r14
	ld   [fr,-96],r14
	ld   [fr,-92],r14
	ld   [fr,-88],r14
	ld   [fr,-84],r14
	ld   [fr,-80],r14
	ld   i0,#0xffffff8c
	add  i0,fr
	ld   i1,d1
	call &__ZN6MAUtil11BasicStringIcEC1ERKS1_ ; call non-native
	.dlab LBB263
	.dlab LBB264
	ld   i0,#0xffffff90
	add  i0,fr
	ld   i1,d3
	call &__ZN6MAUtil11BasicStringIcEC1ERKS1_ ; call non-native
	ld   i0,#0xffffff94
	add  i0,fr
	ld   i1,d7
	add  i1,#0x9b0
	call &__ZN6MAUtil11BasicStringIcEC1ERKS1_ ; call non-native
	ld   i0,#0xffffff98
	add  i0,fr
	ld   i1,d7
	add  i1,#0x9b4
	call &__ZN6MAUtil11BasicStringIcEC1ERKS1_ ; call non-native
	ld   i0,#0xffffff9c
	add  i0,fr
	ld   i1,d7
	add  i1,#0x9b8
	call &__ZN6MAUtil11BasicStringIcEC1ERKS1_ ; call non-native
	ld   d5,fr
	add  d5,#0xffffffa0
	ld   i0,d5
	ld   i1,d7
	add  i1,#0x9bc
	call &__ZN6MAUtil11BasicStringIcEC1ERKS1_ ; call non-native
	ld   d4,fr
	add  d4,#0xffffffa4
	ld   i0,d4
	ld   i1,d7
	add  i1,#0x9c0
	call &__ZN6MAUtil11BasicStringIcEC1ERKS1_ ; call non-native
	ld   d2,fr
	add  d2,#0xffffffa8
	ld   i0,d2
	ld   i1,d7
	add  i1,#0x9c4
	call &__ZN6MAUtil11BasicStringIcEC1ERKS1_ ; call non-native
	ld   d0,fr
	add  d0,#0xffffffac
	ld   i0,d0
	ld   i1,d7
	add  i1,#0x9c8
	call &__ZN6MAUtil11BasicStringIcEC1ERKS1_ ; call non-native
	ld.b d3,[d3,32]
	ld.b [fr,-80],d3
	.dlab LBE264
	.dlab LBE263
	ld   i0,fr
	add  i0,#0xffffffb4
	ld   i1,[fr,-120]
	ld   i2,#0xffffff8c
	add  i2,fr
	call &__ZN6MAUtil10DictionaryIKNS_11BasicStringIcEENS_4PairIS3_4CardEEE6insertERKS6_ ; call non-native
	.dlab LBB265
	.dlab LBB266
	.dlab LBB267
	.dlab LBB268
	.dlab LBB269
	.stabs	"C:\\GameCards Core\\GameCards\\MobidexANC\\AlbumViewScreen.cpp",132,0,0,Ltext82
Ltext82:
	.line 11
	ld   i0,d0
	call &__ZN6MAUtil11BasicStringIcED1Ev ; call non-native
	ld   i0,d2
	call &__ZN6MAUtil11BasicStringIcED1Ev ; call non-native
	ld   i0,d4
	call &__ZN6MAUtil11BasicStringIcED1Ev ; call non-native
	ld   i0,d5
	call &__ZN6MAUtil11BasicStringIcED1Ev ; call non-native
	ld   i0,#0xffffff9c
	add  i0,fr
	call &__ZN6MAUtil11BasicStringIcED1Ev ; call non-native
	ld   i0,#0xffffff98
	add  i0,fr
	call &__ZN6MAUtil11BasicStringIcED1Ev ; call non-native
	ld   i0,#0xffffff94
	add  i0,fr
	call &__ZN6MAUtil11BasicStringIcED1Ev ; call non-native
	ld   i0,#0xffffff90
	add  i0,fr
	call &__ZN6MAUtil11BasicStringIcED1Ev ; call non-native
	.dlab LBE269
	.dlab LBE268
	ld   i0,#0xffffff8c
	add  i0,fr
	call &__ZN6MAUtil11BasicStringIcED1Ev ; call non-native
	.dlab LBE267
	.dlab LBE266
	.dlab LBE265
	.dlab LBE262
	.dlab LBE261
	.dlab LBE260
	.stabs	"c:/Apps/MoSync2.4/include/MAUtil/Map.h",132,0,0,Ltext83
Ltext83:
	.line 47
	ld   i0,d1
	call &__ZN6MAUtil11BasicStringIcED1Ev ; call non-native
	.stabs	"C:\\GameCards Core\\GameCards\\MobidexANC\\AlbumViewScreen.cpp",132,0,0,Ltext84
Ltext84:
	.line 66
	ld   i0,d1
	ld   i1,#0xffffffd4
	add  i1,fr
	ld   i2,d6
	ld   i3,#0xffffffff
	call &__ZNK6MAUtil11BasicStringIcE6substrEii ; call non-native
	ld   i0,#0xffffffd4
	add  i0,fr
	ld   i1,d1
	call &__ZN6MAUtil11BasicStringIcEaSERKS1_ ; call non-native
	ld   i0,d1
	call &__ZN6MAUtil11BasicStringIcED1Ev ; call non-native
L435:
	ld   i0,#0xffffffc4
	add  i0,fr
	ld   i1,[&_newline]
	call &__ZN6MAUtil11BasicStringIcEC1EPKc ; call non-native
	ld   i0,#0xffffffd4
	add  i0,fr
	ld   i1,#0xffffffc4
	add  i1,fr
	ld   i2,#0x0
	call &__ZNK6MAUtil11BasicStringIcE4findERKS1_j ; call non-native
	ld   d6,r14
	ld   d0,r14
	ld   i0,#0xffffffc4
	add  i0,fr
	call &__ZN6MAUtil11BasicStringIcED1Ev ; call non-native
	ld   r14,#0xffffffff
	jc   gt,d6,r14,#L445
	.line 68
	ld   i0,d7
	call &__ZN15AlbumViewScreen8drawListEv ; call non-native
	ld   i0,#0xffffffc8
	add  i0,fr
	call &__ZN6MAUtil11BasicStringIcED1Ev ; call non-native
	ld   i0,#0xffffffcc
	add  i0,fr
	call &__ZN6MAUtil11BasicStringIcED1Ev ; call non-native
	ld   i0,#0xffffffd0
	add  i0,fr
	call &__ZN6MAUtil11BasicStringIcED1Ev ; call non-native
	ld   i0,#0xffffffd4
	add  i0,fr
	call &__ZN6MAUtil11BasicStringIcED1Ev ; call non-native
	.dlab LBE259
	.dlab LBE258
	add  sp,#0x50
	pop  rt,d7
	ret
	.stabs	"all:(10,1)",128,0,57,-44
	.stabs	"indexof:r(0,3)",64,0,58,10
	.stabs	"tmp:(10,1)",128,0,60,-48
	.stabs	"id:(10,1)",128,0,61,-52
	.stabs	"name:(10,1)",128,0,61,-56
	.stabn	192,0,0,LBB259-__ZN15AlbumViewScreen10loadImagesEPKc
	.stabs	"this:(0,199)=k(6,28)",128,0,47,-120
	.stabn	192,0,0,LBB260-__ZN15AlbumViewScreen10loadImagesEPKc
	.stabs	"pkv:(6,25)",128,0,48,-116
	.stabn	192,0,0,LBB262-__ZN15AlbumViewScreen10loadImagesEPKc
	.stabn	224,0,0,LBE262-__ZN15AlbumViewScreen10loadImagesEPKc
	.stabn	224,0,0,LBE260-__ZN15AlbumViewScreen10loadImagesEPKc
	.stabn	224,0,0,LBE259-__ZN15AlbumViewScreen10loadImagesEPKc
Lscope69:
	.stabs	"_ZN15AlbumViewScreen8loadFileEv:F(0,6)",36,0,53,__ZN15AlbumViewScreen8loadFileEv
	.stabs	"this:P(0,175)",64,0,53,4
	.global	__ZN15AlbumViewScreen8loadFileEv

.func __ZN15AlbumViewScreen8loadFileEv, 1, void
	.line 53
	push rt,d0
	ld   fr,sp
	add  fr,#0xc
	ld   d0,i0
	.dlab LBB270
	.line 54
	ld   i0,#LC22
	call &__Z7getDataPKc ; call non-native
	ld   i0,d0
	ld   i1,r14
	call &__ZN15AlbumViewScreen10loadImagesEPKc ; call non-native
	.dlab LBE270
	pop  rt,d0
	ret
Lscope70:
	.stabs	"_ZN6MAUtil10DictionaryIKNS_11BasicStringIcEENS_4PairIS3_4CardEEEaSERKS7_:f(6,7)",36,0,57,__ZN6MAUtil10DictionaryIKNS_11BasicStringIcEENS_4PairIS3_4CardEEEaSERKS7_
	.stabs	"this:p(0,181)",160,0,57,-128
	.stabs	"o:p(6,4)",160,0,57,-132

.func __ZN6MAUtil10DictionaryIKNS_11BasicStringIcEENS_4PairIS3_4CardEEEaSERKS7_, 2, int
	.stabs	"c:/Apps/MoSync2.4/include/MAUtil/Dictionary_impl.h",132,0,0,Ltext85
Ltext85:
	.line 57
	push rt,d7
	sub  sp,#0x5c
	ld   fr,sp
	add  fr,#0x84
	ld   [fr,-128],i0
	ld   [fr,-132],i1
	.dlab LBB271
	.dlab LBB272
	.line 58
	call &__ZN6MAUtil10DictionaryIKNS_11BasicStringIcEENS_4PairIS3_4CardEEE5clearEv ; call non-native
	.line 60
	ld   i0,#0xffffffbc
	add  i0,fr
	ld   i1,[fr,-128]
	call &_dict_load_begin ; call non-native
	.line 61
	ld   i0,#0xffffffb4
	add  i0,fr
	ld   i1,[fr,-132]
	call &__ZNK6MAUtil10DictionaryIKNS_11BasicStringIcEENS_4PairIS3_4CardEEE5beginEv ; call non-native
	jp   #L448
L458:
	.dlab LBB273
	.dlab LBB274
	.dlab LBB275
	.line 63
	ld   i0,#0xffffffb4
	add  i0,fr
	call &__ZNK6MAUtil10DictionaryIKNS_11BasicStringIcEENS_4PairIS3_4CardEEE13ConstIteratordeEv ; call non-native
	ld   d0,r14
	.dlab LBB276
	ld   i0,#0xffffff84
	add  i0,fr
	ld   i1,r14
	call &__ZN6MAUtil11BasicStringIcEC1ERKS1_ ; call non-native
	.dlab LBB277
	.stabs	"c:/Apps/MoSync2.4/include/MAUtil/Map.h",132,0,0,Ltext86
Ltext86:
	.line 48
	ld   d6,d0
	add  d6,#0x4
	.dlab LBB278
	ld   i0,#0xffffff88
	add  i0,fr
	ld   i1,d6
	call &__ZN6MAUtil11BasicStringIcEC1ERKS1_ ; call non-native
	ld   i0,#0xffffff8c
	add  i0,fr
	ld   i1,d0
	add  i1,#0x8
	call &__ZN6MAUtil11BasicStringIcEC1ERKS1_ ; call non-native
	ld   d4,fr
	add  d4,#0xffffff90
	ld   i0,d4
	ld   i1,d0
	add  i1,#0xc
	call &__ZN6MAUtil11BasicStringIcEC1ERKS1_ ; call non-native
	ld   d7,fr
	add  d7,#0xffffff94
	ld   i0,d7
	ld   i1,d0
	add  i1,#0x10
	call &__ZN6MAUtil11BasicStringIcEC1ERKS1_ ; call non-native
	ld   d5,fr
	add  d5,#0xffffff98
	ld   i0,d5
	ld   i1,d0
	add  i1,#0x14
	call &__ZN6MAUtil11BasicStringIcEC1ERKS1_ ; call non-native
	ld   d3,fr
	add  d3,#0xffffff9c
	ld   i0,d3
	ld   i1,d0
	add  i1,#0x18
	call &__ZN6MAUtil11BasicStringIcEC1ERKS1_ ; call non-native
	ld   d2,fr
	add  d2,#0xffffffa0
	ld   i0,d2
	ld   i1,d0
	add  i1,#0x1c
	call &__ZN6MAUtil11BasicStringIcEC1ERKS1_ ; call non-native
	ld   d1,fr
	add  d1,#0xffffffa4
	ld   i0,d1
	ld   i1,d0
	add  i1,#0x20
	call &__ZN6MAUtil11BasicStringIcEC1ERKS1_ ; call non-native
	ld.b d6,[d6,32]
	ld.b [fr,-88],d6
	.dlab LBE278
	.dlab LBE277
	.dlab LBE276
	.dlab LBE275
	ld   i0,#0x40
	call &__Znwm ; call non-native
	ld   d0,r14
	ld   i0,r14
	ld   i1,#0xffffff84
	add  i1,fr
	call &__ZN6MAUtil10DictionaryIKNS_11BasicStringIcEENS_4PairIS3_4CardEEE8DictNodeC1ES6_ ; call non-native
	.stabs	"C:\\GameCards Core\\GameCards\\MobidexANC\\AlbumViewScreen.cpp",132,0,0,Ltext87
Ltext87:
	.line 11
	ld   i0,d1
	call &__ZN6MAUtil11BasicStringIcED1Ev ; call non-native
	ld   i0,d2
	call &__ZN6MAUtil11BasicStringIcED1Ev ; call non-native
	ld   i0,d3
	call &__ZN6MAUtil11BasicStringIcED1Ev ; call non-native
	ld   i0,d5
	call &__ZN6MAUtil11BasicStringIcED1Ev ; call non-native
	ld   i0,d7
	call &__ZN6MAUtil11BasicStringIcED1Ev ; call non-native
	ld   i0,d4
	call &__ZN6MAUtil11BasicStringIcED1Ev ; call non-native
	ld   i0,#0xffffff8c
	add  i0,fr
	call &__ZN6MAUtil11BasicStringIcED1Ev ; call non-native
	ld   i0,#0xffffff88
	add  i0,fr
	call &__ZN6MAUtil11BasicStringIcED1Ev ; call non-native
	ld   i0,#0xffffff84
	add  i0,fr
	call &__ZN6MAUtil11BasicStringIcED1Ev ; call non-native
	.stabs	"c:/Apps/MoSync2.4/include/MAUtil/Dictionary_impl.h",132,0,0,Ltext88
Ltext88:
	.line 65
	ld   i0,#0xffffffbc
	add  i0,fr
	ld   i1,d0
	add  d0,#0x18
	ld   r0,[fr,-128]
	ld   i2,[r0,52]
	add  i2,d0
	call &_dict_load_next ; call non-native
	.line 66
	ld   i0,#0xffffffb4
	add  i0,fr
	call &__ZN6MAUtil10DictionaryIKNS_11BasicStringIcEENS_4PairIS3_4CardEEE13ConstIteratorppEv ; call non-native
L448:
	.dlab LBE274
	.dlab LBE273
	ld   i0,#0xffffffac
	add  i0,fr
	ld   i1,[fr,-132]
	call &__ZNK6MAUtil10DictionaryIKNS_11BasicStringIcEENS_4PairIS3_4CardEEE3endEv ; call non-native
	ld   i0,#0xffffffb4
	add  i0,fr
	ld   i1,#0xffffffac
	add  i1,fr
	call &__ZNK6MAUtil10DictionaryIKNS_11BasicStringIcEENS_4PairIS3_4CardEEE13ConstIteratorneERKS8_ ; call non-native
	and  r14,#0xff  ; zero extend
	ld   r0,#0x0
	jc   ne,r14,r0,#L458
	.line 68
	ld   i0,#0xffffffbc
	add  i0,fr
	call &_dict_load_end ; call non-native
	.dlab LBE272
	.dlab LBE271
	.line 69
	ld   r14,[fr,-128]
	add  sp,#0x5c
	pop  rt,d7
	ret
	.stabs	"load:(27,41)",128,0,59,-68
	.stabs	"itr:(6,12)",128,0,61,-76
	.stabn	192,0,0,LBB272-__ZN6MAUtil10DictionaryIKNS_11BasicStringIcEENS_4PairIS3_4CardEEEaSERKS7_
	.stabs	"_ctor_arg:r(6,23)",64,0,63,4
	.stabn	192,0,0,LBB275-__ZN6MAUtil10DictionaryIKNS_11BasicStringIcEENS_4PairIS3_4CardEEEaSERKS7_
	.stabs	"_ctor_arg:r(28,9)",64,0,48,10
	.stabn	192,0,0,LBB277-__ZN6MAUtil10DictionaryIKNS_11BasicStringIcEENS_4PairIS3_4CardEEEaSERKS7_
	.stabn	224,0,0,LBE277-__ZN6MAUtil10DictionaryIKNS_11BasicStringIcEENS_4PairIS3_4CardEEEaSERKS7_
	.stabn	224,0,0,LBE275-__ZN6MAUtil10DictionaryIKNS_11BasicStringIcEENS_4PairIS3_4CardEEEaSERKS7_
	.stabn	224,0,0,LBE272-__ZN6MAUtil10DictionaryIKNS_11BasicStringIcEENS_4PairIS3_4CardEEEaSERKS7_
Lscope71:
	.set	%15=__ZN15AlbumViewScreen9mtxTagEndEPKci
	.stabs	"this:P(0,175)",64,0,273,12
	.stabs	"name:P(19,27)",64,0,273,13
	.stabs	"len:P(0,3)",64,0,273,14
	.global	__ZThn20_N15AlbumViewScreen9mtxTagEndEPKci

.func __ZThn20_N15AlbumViewScreen9mtxTagEndEPKci, 3, void
	.stabs	"C:\\GameCards Core\\GameCards\\MobidexANC\\/AlbumViewScreen.h",132,0,0,Ltext89
Ltext89:
	.line 17
	push rt,fr
	ld   fr,sp
	add  fr,#0x8
	.line 17
	add  i0,#0xffffffec
	call &%15 ; call non-native
	pop  rt,fr
	ret
Lscope72:
	.stabs	"_ZN15AlbumViewScreen9mtxTagEndEPKci:F(0,6)",36,0,273,__ZN15AlbumViewScreen9mtxTagEndEPKci
	.stabs	"this:P(0,175)",64,0,273,11
	.stabs	"name:P(19,27)",64,0,273,9
	.stabs	"len:P(0,3)",64,0,273,14
	.global	__ZN15AlbumViewScreen9mtxTagEndEPKci

.func __ZN15AlbumViewScreen9mtxTagEndEPKci, 3, void
	.stabs	"C:\\GameCards Core\\GameCards\\MobidexANC\\AlbumViewScreen.cpp",132,0,0,Ltext90
Ltext90:
	.line 273
	push rt,d7
	sub  sp,#0xb8
	ld   fr,sp
	add  fr,#0xe0
	ld   d7,i0
	ld   d5,i1
	.dlab LBB279
	.line 274
	ld   i0,i1
	ld   i1,[&_xml_backurl]
	call &_strcmp ; call non-native
	ld   d3,r14
	ld   r0,#0x0
	jc   eq,r14,r0,#L479
	.line 290
	ld   i0,d5
	ld   i1,[&_xml_error]
	call &_strcmp ; call non-native
	ld   r0,#0x0
	jc   eq,r14,r0,#L480
	.line 293
	ld   i0,d5
	ld   i1,[&_xml_carddone]
	call &_strcmp ; call non-native
	ld   r0,#0x0
	jc   ne,r14,r0,#L473
L481:
	.line 294
	ld   d0,d7
	add  d0,#0x960
	ld   i0,d0
	call &__ZN6MAUtil10DictionaryIKNS_11BasicStringIcEENS_4PairIS3_4CardEEE5clearEv ; call non-native
	.dlab LBB280
	.dlab LBB281
	.line 295
	ld   i0,d0
	ld   i1,d7
	add  i1,#0x928
	call &__ZN6MAUtil10DictionaryIKNS_11BasicStringIcEENS_4PairIS3_4CardEEEaSERKS7_ ; call non-native
	.dlab LBE281
	.dlab LBE280
	.line 296
	ld   i0,d7
	call &__ZN15AlbumViewScreen8drawListEv ; call non-native
	.line 297
	ld   i0,#0xffffff7c
	add  i0,fr
	ld   i1,d7
	call &__ZN15AlbumViewScreen6getAllEv ; call non-native
	ld   i0,#0xffffff7c
	add  i0,fr
	call &__ZNK6MAUtil11BasicStringIcE5c_strEv ; call non-native
	ld   i0,#LC22
	ld   i1,r14
	call &__Z8saveDataPKcS0_ ; call non-native
	.line 299
	ld   i0,#0xffffff7c
	add  i0,fr
	call &__ZN6MAUtil11BasicStringIcED1Ev ; call non-native
	.dlab LBE279
	.line 301
	add  sp,#0xb8
	pop  rt,d7
	ret
L480:
	.dlab LBB282
	.line 291
	ld   i0,d7
	add  i0,#0x8cc
	call &__ZNK6MAUtil11BasicStringIcE5c_strEv ; call non-native
	ld   i0,#0xffffff7c
	add  i0,fr
	ld   i1,r14
	call &__ZN6MAUtil11BasicStringIcEC1EPKc ; call non-native
	ld   i0,[d7,36]
	ld   r14,[i0]
	ld   d0,[r14,92]
	ld   i1,#0xffffff7c
	add  i1,fr
	call d0 ; call non-native
L477:
	ld   i0,#0xffffff7c
	add  i0,fr
	call &__ZN6MAUtil11BasicStringIcED1Ev ; call non-native
	.line 293
	ld   i0,d5
	ld   i1,[&_xml_carddone]
	call &_strcmp ; call non-native
	ld   r0,#0x0
	jc   eq,r14,r0,#L481
L473:
	.line 299
	ld   i0,#0xffffff7c
	add  i0,fr
	ld   i1,#LC20
	call &__ZN6MAUtil11BasicStringIcEC1EPKc ; call non-native
	ld   i0,[d7,36]
	ld   r14,[i0]
	ld   d0,[r14,92]
	ld   i1,#0xffffff7c
	add  i1,fr
	call d0 ; call non-native
	ld   i0,#0xffffff7c
	add  i0,fr
	call &__ZN6MAUtil11BasicStringIcED1Ev ; call non-native
	.dlab LBE282
	.line 301
	add  sp,#0xb8
	pop  rt,d7
	ret
L479:
	.dlab LBB283
	.line 275
	ld   i0,#0xffffff98
	add  i0,fr
	ld   i1,[&_delim]
	call &__ZN6MAUtil11BasicStringIcEC1EPKc ; call non-native
	ld   i0,#0xffffff9c
	add  i0,fr
	ld   i1,d7
	add  i1,#0x8bc
	ld   i2,#0xffffff98
	add  i2,fr
	call &__ZNK6MAUtil11BasicStringIcEplERKS1_ ; call non-native
	ld   r14,d7
	add  r14,#0x8b8
	ld   [fr,-196],r14
	ld   i0,#0xffffffa0
	add  i0,fr
	ld   i1,#0xffffff9c
	add  i1,fr
	ld   i2,r14
	call &__ZNK6MAUtil11BasicStringIcEplERKS1_ ; call non-native
	ld   i0,#0xffffff94
	add  i0,fr
	ld   i1,[&_delim]
	call &__ZN6MAUtil11BasicStringIcEC1EPKc ; call non-native
	ld   i0,#0xffffffa4
	add  i0,fr
	ld   i1,#0xffffffa0
	add  i1,fr
	ld   i2,#0xffffff94
	add  i2,fr
	call &__ZNK6MAUtil11BasicStringIcEplERKS1_ ; call non-native
	ld   r0,d7
	add  r0,#0x8c0
	ld   [fr,-200],r0
	ld   i0,#0xffffffa8
	add  i0,fr
	ld   i1,#0xffffffa4
	add  i1,fr
	ld   i2,r0
	call &__ZNK6MAUtil11BasicStringIcEplERKS1_ ; call non-native
	ld   i0,#0xffffff90
	add  i0,fr
	ld   i1,[&_delim]
	call &__ZN6MAUtil11BasicStringIcEC1EPKc ; call non-native
	ld   i0,#0xffffffac
	add  i0,fr
	ld   i1,#0xffffffa8
	add  i1,fr
	ld   i2,#0xffffff90
	add  i2,fr
	call &__ZNK6MAUtil11BasicStringIcEplERKS1_ ; call non-native
	ld   r14,d7
	add  r14,#0x8c4
	ld   [fr,-204],r14
	ld   i0,#0xffffffb0
	add  i0,fr
	ld   i1,#0xffffffac
	add  i1,fr
	ld   i2,r14
	call &__ZNK6MAUtil11BasicStringIcEplERKS1_ ; call non-native
	ld   i0,#0xffffff8c
	add  i0,fr
	ld   i1,[&_delim]
	call &__ZN6MAUtil11BasicStringIcEC1EPKc ; call non-native
	ld   i0,#0xffffffb4
	add  i0,fr
	ld   i1,#0xffffffb0
	add  i1,fr
	ld   i2,#0xffffff8c
	add  i2,fr
	call &__ZNK6MAUtil11BasicStringIcEplERKS1_ ; call non-native
	ld   r0,d7
	add  r0,#0x8c8
	ld   [fr,-208],r0
	ld   i0,#0xffffffb8
	add  i0,fr
	ld   i1,#0xffffffb4
	add  i1,fr
	ld   i2,r0
	call &__ZNK6MAUtil11BasicStringIcEplERKS1_ ; call non-native
	ld   d2,fr
	add  d2,#0xffffff88
	ld   i0,d2
	ld   i1,[&_delim]
	call &__ZN6MAUtil11BasicStringIcEC1EPKc ; call non-native
	ld   i0,#0xffffffbc
	add  i0,fr
	ld   i1,#0xffffffb8
	add  i1,fr
	ld   i2,d2
	call &__ZNK6MAUtil11BasicStringIcEplERKS1_ ; call non-native
	ld   r14,d7
	add  r14,#0x8b4
	ld   [fr,-212],r14
	ld   i0,#0xffffffc0
	add  i0,fr
	ld   i1,#0xffffffbc
	add  i1,fr
	ld   i2,r14
	call &__ZNK6MAUtil11BasicStringIcEplERKS1_ ; call non-native
	ld   d1,fr
	add  d1,#0xffffff84
	ld   i0,d1
	ld   i1,[&_delim]
	call &__ZN6MAUtil11BasicStringIcEC1EPKc ; call non-native
	ld   i0,#0xffffffc4
	add  i0,fr
	ld   i1,#0xffffffc0
	add  i1,fr
	ld   i2,d1
	call &__ZNK6MAUtil11BasicStringIcEplERKS1_ ; call non-native
	ld   r0,d7
	add  r0,#0x8d0
	ld   [fr,-216],r0
	ld   i0,#0xffffffc8
	add  i0,fr
	ld   i1,#0xffffffc4
	add  i1,fr
	ld   i2,r0
	call &__ZNK6MAUtil11BasicStringIcEplERKS1_ ; call non-native
	ld   d0,fr
	add  d0,#0xffffff80
	ld   i0,d0
	ld   i1,[&_delim]
	call &__ZN6MAUtil11BasicStringIcEC1EPKc ; call non-native
	ld   i0,#0xffffffcc
	add  i0,fr
	ld   i1,#0xffffffc8
	add  i1,fr
	ld   i2,d0
	call &__ZNK6MAUtil11BasicStringIcEplERKS1_ ; call non-native
	ld   r14,d7
	add  r14,#0x8d4
	ld   [fr,-220],r14
	ld   i0,#0xffffffd0
	add  i0,fr
	ld   i1,#0xffffffcc
	add  i1,fr
	ld   i2,r14
	call &__ZNK6MAUtil11BasicStringIcEplERKS1_ ; call non-native
	ld   i0,#0xffffff7c
	add  i0,fr
	ld   i1,[&_delim]
	call &__ZN6MAUtil11BasicStringIcEC1EPKc ; call non-native
	ld   i0,#0xffffffd4
	add  i0,fr
	ld   i1,#0xffffffd0
	add  i1,fr
	ld   i2,#0xffffff7c
	add  i2,fr
	call &__ZNK6MAUtil11BasicStringIcEplERKS1_ ; call non-native
	ld   i0,#0xffffffd4
	add  i0,fr
	call &__ZNK6MAUtil11BasicStringIcE5c_strEv ; call non-native
	ld   d6,d7
	add  d6,#0x9ac
	ld   i0,d6
	ld   i1,r14
	call &__ZN4Card6setAllEPKc ; call non-native
	ld   i0,#0xffffffd4
	add  i0,fr
	call &__ZN6MAUtil11BasicStringIcED1Ev ; call non-native
	ld   i0,#0xffffff7c
	add  i0,fr
	call &__ZN6MAUtil11BasicStringIcED1Ev ; call non-native
	ld   i0,#0xffffffd0
	add  i0,fr
	call &__ZN6MAUtil11BasicStringIcED1Ev ; call non-native
	ld   i0,#0xffffffcc
	add  i0,fr
	call &__ZN6MAUtil11BasicStringIcED1Ev ; call non-native
	ld   i0,d0
	call &__ZN6MAUtil11BasicStringIcED1Ev ; call non-native
	ld   i0,#0xffffffc8
	add  i0,fr
	call &__ZN6MAUtil11BasicStringIcED1Ev ; call non-native
	ld   i0,#0xffffffc4
	add  i0,fr
	call &__ZN6MAUtil11BasicStringIcED1Ev ; call non-native
	ld   i0,d1
	call &__ZN6MAUtil11BasicStringIcED1Ev ; call non-native
	ld   i0,#0xffffffc0
	add  i0,fr
	call &__ZN6MAUtil11BasicStringIcED1Ev ; call non-native
	ld   i0,#0xffffffbc
	add  i0,fr
	call &__ZN6MAUtil11BasicStringIcED1Ev ; call non-native
	ld   i0,d2
	call &__ZN6MAUtil11BasicStringIcED1Ev ; call non-native
	ld   i0,#0xffffffb8
	add  i0,fr
	call &__ZN6MAUtil11BasicStringIcED1Ev ; call non-native
	ld   i0,#0xffffffb4
	add  i0,fr
	call &__ZN6MAUtil11BasicStringIcED1Ev ; call non-native
	ld   i0,#0xffffff8c
	add  i0,fr
	call &__ZN6MAUtil11BasicStringIcED1Ev ; call non-native
	ld   i0,#0xffffffb0
	add  i0,fr
	call &__ZN6MAUtil11BasicStringIcED1Ev ; call non-native
	ld   i0,#0xffffffac
	add  i0,fr
	call &__ZN6MAUtil11BasicStringIcED1Ev ; call non-native
	ld   i0,#0xffffff90
	add  i0,fr
	call &__ZN6MAUtil11BasicStringIcED1Ev ; call non-native
	ld   i0,#0xffffffa8
	add  i0,fr
	call &__ZN6MAUtil11BasicStringIcED1Ev ; call non-native
	ld   i0,#0xffffffa4
	add  i0,fr
	call &__ZN6MAUtil11BasicStringIcED1Ev ; call non-native
	ld   i0,#0xffffff94
	add  i0,fr
	call &__ZN6MAUtil11BasicStringIcED1Ev ; call non-native
	ld   i0,#0xffffffa0
	add  i0,fr
	call &__ZN6MAUtil11BasicStringIcED1Ev ; call non-native
	ld   i0,#0xffffff9c
	add  i0,fr
	call &__ZN6MAUtil11BasicStringIcED1Ev ; call non-native
	ld   i0,#0xffffff98
	add  i0,fr
	call &__ZN6MAUtil11BasicStringIcED1Ev ; call non-native
	.line 276
	add  d0,#0xfffffff4
	ld   i0,#0xffffff7c
	add  i0,fr
	ld   i1,d6
	call &__ZN4Card5getIdEv ; call non-native
	ld   d1,d7
	add  d1,#0x960
	ld   i0,d0
	ld   i1,d1
	ld   i2,#0xffffff7c
	add  i2,fr
	call &__ZN6MAUtil10DictionaryIKNS_11BasicStringIcEENS_4PairIS3_4CardEEE4findERS3_ ; call non-native
	ld   d2,d7
	add  d2,#0x998
	ld   i0,d2
	ld   i1,d0
	call &__ZN6MAUtil10DictionaryIKNS_11BasicStringIcEENS_4PairIS3_4CardEEE8IteratoraSERKS8_ ; call non-native
	ld   i0,#0xffffff7c
	add  i0,fr
	call &__ZN6MAUtil11BasicStringIcED1Ev ; call non-native
	.line 277
	ld   i0,d0
	ld   i1,d1
	call &__ZN6MAUtil10DictionaryIKNS_11BasicStringIcEENS_4PairIS3_4CardEEE3endEv ; call non-native
	ld   i0,d2
	ld   i1,d0
	call &__ZNK6MAUtil10DictionaryIKNS_11BasicStringIcEENS_4PairIS3_4CardEEE8IteratorneERKS8_ ; call non-native
	and  r14,#0xff  ; zero extend
	jc   eq,r14,d3,#L462
	.line 278
	ld   i0,d2
	call &__ZN6MAUtil10DictionaryIKNS_11BasicStringIcEENS_4PairIS3_4CardEEE8IteratorptEv ; call non-native
	ld   i0,#0xffffff7c
	add  i0,fr
	ld   i1,r14
	add  i1,#0x4
	call &__ZN4Card8getThumbEv ; call non-native
	ld   i0,#0xffffff7c
	add  i0,fr
	call &__ZNK6MAUtil11BasicStringIcE5c_strEv ; call non-native
	ld   i0,d6
	ld   i1,r14
	call &__ZN4Card8setThumbEPKc ; call non-native
	ld   i0,#0xffffff7c
	add  i0,fr
	call &__ZN6MAUtil11BasicStringIcED1Ev ; call non-native
	.line 279
	ld   i0,d2
	call &__ZN6MAUtil10DictionaryIKNS_11BasicStringIcEENS_4PairIS3_4CardEEE8IteratorptEv ; call non-native
	ld   i0,#0xffffff7c
	add  i0,fr
	ld   i1,r14
	add  i1,#0x4
	call &__ZN4Card7getBackEv ; call non-native
	ld   i0,#0xffffff7c
	add  i0,fr
	call &__ZNK6MAUtil11BasicStringIcE5c_strEv ; call non-native
	ld   i0,d6
	ld   i1,r14
	call &__ZN4Card7setBackEPKc ; call non-native
	ld   i0,#0xffffff7c
	add  i0,fr
	call &__ZN6MAUtil11BasicStringIcED1Ev ; call non-native
	.line 280
	ld   i0,d2
	call &__ZN6MAUtil10DictionaryIKNS_11BasicStringIcEENS_4PairIS3_4CardEEE8IteratorptEv ; call non-native
	ld   i0,#0xffffff7c
	add  i0,fr
	ld   i1,r14
	add  i1,#0x4
	call &__ZN4Card8getFrontEv ; call non-native
	ld   i0,#0xffffff7c
	add  i0,fr
	call &__ZNK6MAUtil11BasicStringIcE5c_strEv ; call non-native
	ld   i0,d6
	ld   i1,r14
	call &__ZN4Card8setFrontEPKc ; call non-native
	ld   i0,#0xffffff7c
	add  i0,fr
	call &__ZN6MAUtil11BasicStringIcED1Ev ; call non-native
L462:
	.dlab LBB284
	.stabs	"c:/Apps/MoSync2.4/include/MAUtil/Map.h",132,0,0,Ltext91
Ltext91:
	.line 47
	ld   r0,d7
	add  r0,#0x928
	ld   [fr,-224],r0
	ld   i0,#0xffffff7c
	add  i0,fr
	ld   i1,d6
	call &__ZN4Card5getIdEv ; call non-native
	.dlab LBB285
	.dlab LBB286
	.line 48
	ld   r14,#0x0
	ld   [fr,-192],r14
	ld   [fr,-188],r14
	ld   [fr,-184],r14
	ld   [fr,-180],r14
	ld   [fr,-176],r14
	ld   [fr,-172],r14
	ld   [fr,-168],r14
	ld   [fr,-164],r14
	ld   [fr,-160],r14
	ld   [fr,-156],r14
	ld   i0,#0xffffff40
	add  i0,fr
	ld   i1,#0xffffff7c
	add  i1,fr
	call &__ZN6MAUtil11BasicStringIcEC1ERKS1_ ; call non-native
	.dlab LBB287
	.dlab LBB288
	ld   i0,#0xffffff44
	add  i0,fr
	ld   i1,d6
	call &__ZN6MAUtil11BasicStringIcEC1ERKS1_ ; call non-native
	ld   i0,#0xffffff48
	add  i0,fr
	ld   i1,d7
	add  i1,#0x9b0
	call &__ZN6MAUtil11BasicStringIcEC1ERKS1_ ; call non-native
	ld   i0,#0xffffff4c
	add  i0,fr
	ld   i1,d7
	add  i1,#0x9b4
	call &__ZN6MAUtil11BasicStringIcEC1ERKS1_ ; call non-native
	ld   d4,fr
	add  d4,#0xffffff50
	ld   i0,d4
	ld   i1,d7
	add  i1,#0x9b8
	call &__ZN6MAUtil11BasicStringIcEC1ERKS1_ ; call non-native
	ld   i0,#0xffffff54
	add  i0,fr
	ld   i1,d7
	add  i1,#0x9bc
	call &__ZN6MAUtil11BasicStringIcEC1ERKS1_ ; call non-native
	ld   d2,fr
	add  d2,#0xffffff58
	ld   i0,d2
	ld   i1,d7
	add  i1,#0x9c0
	call &__ZN6MAUtil11BasicStringIcEC1ERKS1_ ; call non-native
	ld   d1,fr
	add  d1,#0xffffff5c
	ld   i0,d1
	ld   i1,d7
	add  i1,#0x9c4
	call &__ZN6MAUtil11BasicStringIcEC1ERKS1_ ; call non-native
	ld   d0,fr
	add  d0,#0xffffff60
	ld   i0,d0
	ld   i1,d7
	add  i1,#0x9c8
	call &__ZN6MAUtil11BasicStringIcEC1ERKS1_ ; call non-native
	ld.b d6,[d6,32]
	ld.b [fr,-156],d6
	.dlab LBE288
	.dlab LBE287
	ld   i0,fr
	add  i0,#0xffffff68
	ld   i1,[fr,-224]
	ld   i2,#0xffffff40
	add  i2,fr
	call &__ZN6MAUtil10DictionaryIKNS_11BasicStringIcEENS_4PairIS3_4CardEEE6insertERKS6_ ; call non-native
	.dlab LBB289
	.dlab LBB290
	.dlab LBB291
	.dlab LBB292
	.dlab LBB293
	.stabs	"C:\\GameCards Core\\GameCards\\MobidexANC\\AlbumViewScreen.cpp",132,0,0,Ltext92
Ltext92:
	.line 11
	ld   i0,d0
	call &__ZN6MAUtil11BasicStringIcED1Ev ; call non-native
	ld   i0,d1
	call &__ZN6MAUtil11BasicStringIcED1Ev ; call non-native
	ld   i0,d2
	call &__ZN6MAUtil11BasicStringIcED1Ev ; call non-native
	ld   i0,#0xffffff54
	add  i0,fr
	call &__ZN6MAUtil11BasicStringIcED1Ev ; call non-native
	ld   i0,d4
	call &__ZN6MAUtil11BasicStringIcED1Ev ; call non-native
	ld   i0,#0xffffff4c
	add  i0,fr
	call &__ZN6MAUtil11BasicStringIcED1Ev ; call non-native
	ld   i0,#0xffffff48
	add  i0,fr
	call &__ZN6MAUtil11BasicStringIcED1Ev ; call non-native
	ld   i0,#0xffffff44
	add  i0,fr
	call &__ZN6MAUtil11BasicStringIcED1Ev ; call non-native
	.dlab LBE293
	.dlab LBE292
	ld   i0,#0xffffff40
	add  i0,fr
	call &__ZN6MAUtil11BasicStringIcED1Ev ; call non-native
	.dlab LBE291
	.dlab LBE290
	.dlab LBE289
	.dlab LBE286
	.dlab LBE285
	.dlab LBE284
	.stabs	"c:/Apps/MoSync2.4/include/MAUtil/Map.h",132,0,0,Ltext93
Ltext93:
	.line 47
	ld   i0,#0xffffff7c
	add  i0,fr
	call &__ZN6MAUtil11BasicStringIcED1Ev ; call non-native
	.stabs	"C:\\GameCards Core\\GameCards\\MobidexANC\\AlbumViewScreen.cpp",132,0,0,Ltext94
Ltext94:
	.line 283
	ld   i0,#0xffffff7c
	add  i0,fr
	ld   i1,#LC20
	call &__ZN6MAUtil11BasicStringIcEC1EPKc ; call non-native
	ld   i0,[fr,-212]
	ld   i1,#0xffffff7c
	add  i1,fr
	call &__ZN6MAUtil11BasicStringIcEaSERKS1_ ; call non-native
	ld   i0,#0xffffff7c
	add  i0,fr
	call &__ZN6MAUtil11BasicStringIcED1Ev ; call non-native
	.line 284
	ld   i0,#0xffffff7c
	add  i0,fr
	ld   i1,#LC20
	call &__ZN6MAUtil11BasicStringIcEC1EPKc ; call non-native
	ld   i0,[fr,-196]
	ld   i1,#0xffffff7c
	add  i1,fr
	call &__ZN6MAUtil11BasicStringIcEaSERKS1_ ; call non-native
	ld   i0,#0xffffff7c
	add  i0,fr
	call &__ZN6MAUtil11BasicStringIcED1Ev ; call non-native
	.line 285
	ld   i0,#0xffffff7c
	add  i0,fr
	ld   i1,#LC20
	call &__ZN6MAUtil11BasicStringIcEC1EPKc ; call non-native
	ld   i0,[fr,-200]
	ld   i1,#0xffffff7c
	add  i1,fr
	call &__ZN6MAUtil11BasicStringIcEaSERKS1_ ; call non-native
	ld   i0,#0xffffff7c
	add  i0,fr
	call &__ZN6MAUtil11BasicStringIcED1Ev ; call non-native
	.line 286
	ld   i0,#0xffffff7c
	add  i0,fr
	ld   i1,#LC20
	call &__ZN6MAUtil11BasicStringIcEC1EPKc ; call non-native
	ld   i0,[fr,-204]
	ld   i1,#0xffffff7c
	add  i1,fr
	call &__ZN6MAUtil11BasicStringIcEaSERKS1_ ; call non-native
	ld   i0,#0xffffff7c
	add  i0,fr
	call &__ZN6MAUtil11BasicStringIcED1Ev ; call non-native
	.line 287
	ld   i0,#0xffffff7c
	add  i0,fr
	ld   i1,#LC20
	call &__ZN6MAUtil11BasicStringIcEC1EPKc ; call non-native
	ld   i0,[fr,-208]
	ld   i1,#0xffffff7c
	add  i1,fr
	call &__ZN6MAUtil11BasicStringIcEaSERKS1_ ; call non-native
	ld   i0,#0xffffff7c
	add  i0,fr
	call &__ZN6MAUtil11BasicStringIcED1Ev ; call non-native
	.line 288
	ld   i0,#0xffffff7c
	add  i0,fr
	ld   i1,#LC20
	call &__ZN6MAUtil11BasicStringIcEC1EPKc ; call non-native
	ld   i0,[fr,-216]
	ld   i1,#0xffffff7c
	add  i1,fr
	call &__ZN6MAUtil11BasicStringIcEaSERKS1_ ; call non-native
	ld   i0,#0xffffff7c
	add  i0,fr
	call &__ZN6MAUtil11BasicStringIcED1Ev ; call non-native
	.line 289
	ld   i0,#0xffffff7c
	add  i0,fr
	ld   i1,#LC20
	call &__ZN6MAUtil11BasicStringIcEC1EPKc ; call non-native
	ld   i0,[fr,-220]
	ld   i1,#0xffffff7c
	add  i1,fr
	call &__ZN6MAUtil11BasicStringIcEaSERKS1_ ; call non-native
	jp   #L477
	.dlab LBE283
	.stabs	"this:(0,199)",128,0,47,-224
	.stabn	192,0,0,LBB284-__ZN15AlbumViewScreen9mtxTagEndEPKci
	.stabs	"pkv:(6,25)",128,0,48,-192
	.stabn	192,0,0,LBB286-__ZN15AlbumViewScreen9mtxTagEndEPKci
	.stabn	224,0,0,LBE286-__ZN15AlbumViewScreen9mtxTagEndEPKci
	.stabn	224,0,0,LBE284-__ZN15AlbumViewScreen9mtxTagEndEPKci
Lscope73:
	.stabs	"_ZN6MAUtil10DictionaryIKNS_11BasicStringIcEENS_4PairIS3_S2_EEE4initEPFiRS3_S7_E:f(0,6)",36,0,38,__ZN6MAUtil10DictionaryIKNS_11BasicStringIcEENS_4PairIS3_S2_EEE4initEPFiRS3_S7_E
	.stabs	"this:P(0,185)",64,0,38,12
	.stabs	"cf:P(24,22)",64,0,38,14

.func __ZN6MAUtil10DictionaryIKNS_11BasicStringIcEENS_4PairIS3_S2_EEE4initEPFiRS3_S7_E, 2, void
	.stabs	"c:/Apps/MoSync2.4/include/MAUtil/Dictionary_impl.h",132,0,0,Ltext95
Ltext95:
	.line 38
	push rt,fr
	ld   fr,sp
	add  fr,#0x8
	ld   i2,i1
	.dlab LBB294
	.line 39
	ld   i1,#0xffffffff
	call &_dict_init ; call non-native
	.dlab LBE294
	pop  rt,fr
	ret
Lscope74:
	.stabs	"_ZN6MAUtil10DictionaryIKNS_11BasicStringIcEENS_4PairIS3_S2_EEEC2EPFiRS3_S7_Ei:f(0,6)",36,0,43,__ZN6MAUtil10DictionaryIKNS_11BasicStringIcEENS_4PairIS3_S2_EEEC2EPFiRS3_S7_Ei
	.stabs	"this:P(0,185)",64,0,43,12
	.stabs	"cf:P(24,22)",64,0,43,13
	.stabs	"keyOffset:P(0,3)",64,0,43,14

.func __ZN6MAUtil10DictionaryIKNS_11BasicStringIcEENS_4PairIS3_S2_EEEC2EPFiRS3_S7_Ei, 3, void
	.line 43
	push rt,fr
	ld   fr,sp
	add  fr,#0x8
	.dlab LBB295
	.line 44
	ld   [i0,52],i2
	.line 45
	call &__ZN6MAUtil10DictionaryIKNS_11BasicStringIcEENS_4PairIS3_S2_EEE4initEPFiRS3_S7_E ; call non-native
	.dlab LBE295
	pop  rt,fr
	ret
Lscope75:
	.stabs	"_ZN6MAUtil10DictionaryIKNS_11BasicStringIcEENS_4PairIS3_4CardEEE4initEPFiRS3_S8_E:f(0,6)",36,0,38,__ZN6MAUtil10DictionaryIKNS_11BasicStringIcEENS_4PairIS3_4CardEEE4initEPFiRS3_S8_E
	.stabs	"this:P(0,181)",64,0,38,12
	.stabs	"cf:P(24,22)",64,0,38,14

.func __ZN6MAUtil10DictionaryIKNS_11BasicStringIcEENS_4PairIS3_4CardEEE4initEPFiRS3_S8_E, 2, void
	.line 38
	push rt,fr
	ld   fr,sp
	add  fr,#0x8
	ld   i2,i1
	.dlab LBB296
	.line 39
	ld   i1,#0xffffffff
	call &_dict_init ; call non-native
	.dlab LBE296
	pop  rt,fr
	ret
Lscope76:
	.stabs	"_ZN6MAUtil10DictionaryIKNS_11BasicStringIcEENS_4PairIS3_4CardEEEC2EPFiRS3_S8_Ei:f(0,6)",36,0,43,__ZN6MAUtil10DictionaryIKNS_11BasicStringIcEENS_4PairIS3_4CardEEEC2EPFiRS3_S8_Ei
	.stabs	"this:P(0,181)",64,0,43,12
	.stabs	"cf:P(24,22)",64,0,43,13
	.stabs	"keyOffset:P(0,3)",64,0,43,14

.func __ZN6MAUtil10DictionaryIKNS_11BasicStringIcEENS_4PairIS3_4CardEEEC2EPFiRS3_S8_Ei, 3, void
	.line 43
	push rt,fr
	ld   fr,sp
	add  fr,#0x8
	.dlab LBB297
	.line 44
	ld   [i0,52],i2
	.line 45
	call &__ZN6MAUtil10DictionaryIKNS_11BasicStringIcEENS_4PairIS3_4CardEEE4initEPFiRS3_S8_E ; call non-native
	.dlab LBE297
	pop  rt,fr
	ret
Lscope77:
.data
LC23:
	.ascii "0\0"
LC24:
	.ascii "%s&heigth=%d&width=%d\0"
.code
	.stabs	"_ZN15AlbumViewScreenC1EP4Feed:F(0,6)",36,0,11,__ZN15AlbumViewScreenC1EP4Feed
	.stabs	"this:P(0,175)",64,0,11,6
	.stabs	"feed:P(23,3)",64,0,11,10
	.global	__ZN15AlbumViewScreenC1EP4Feed

.func __ZN15AlbumViewScreenC1EP4Feed, 2, void
	.stabs	"C:\\GameCards Core\\GameCards\\MobidexANC\\AlbumViewScreen.cpp",132,0,0,Ltext96
Ltext96:
	.line 11
	push rt,d7
	sub  sp,#0x40
	ld   fr,sp
	add  fr,#0x68
	ld   d2,i0
	ld   d6,i1
	.dlab LBB298
	.line 11
	call &__ZN4MAUI6ScreenC2Ev ; call non-native
	.dlab LBB299
	ld   d7,d2
	add  d7,#0x18
	.dlab LBE299
	ld   r0,#__ZTV15AlbumViewScreen+8
	ld   [d2],r0
	ld   r14,#__ZTV15AlbumViewScreen+108
	ld   [d2,4],r14
	ld   r0,#__ZTV15AlbumViewScreen+136
	ld   [d2,12],r0
	ld   r14,#__ZTV15AlbumViewScreen+160
	ld   [d2,16],r14
	ld   r0,#__ZTV15AlbumViewScreen+172
	ld   [d2,20],r0
	ld   r14,#__ZTV15AlbumViewScreen+216
	ld   [d7],r14
	ld   d5,d2
	add  d5,#0x34
	ld   i0,d5
	ld   i1,d7
	call &__ZN6MAUtil14HttpConnectionC1EPNS_22HttpConnectionListenerE ; call non-native
	ld   i0,d2
	add  i0,#0x5c
	call &__ZN13XmlConnectionC1Ev ; call non-native
	ld   i0,d2
	add  i0,#0x8ac
	call &__ZN6MAUtil11BasicStringIcEC1Ev ; call non-native
	ld   i0,d2
	add  i0,#0x8b0
	call &__ZN6MAUtil11BasicStringIcEC1Ev ; call non-native
	ld   i0,d2
	add  i0,#0x8b4
	call &__ZN6MAUtil11BasicStringIcEC1Ev ; call non-native
	ld   i0,d2
	add  i0,#0x8b8
	call &__ZN6MAUtil11BasicStringIcEC1Ev ; call non-native
	ld   r0,d2
	add  r0,#0x8bc
	ld   [fr,-88],r0
	ld   i0,r0
	call &__ZN6MAUtil11BasicStringIcEC1Ev ; call non-native
	ld   i0,d2
	add  i0,#0x8c0
	call &__ZN6MAUtil11BasicStringIcEC1Ev ; call non-native
	ld   i0,d2
	add  i0,#0x8c4
	call &__ZN6MAUtil11BasicStringIcEC1Ev ; call non-native
	ld   i0,d2
	add  i0,#0x8c8
	call &__ZN6MAUtil11BasicStringIcEC1Ev ; call non-native
	ld   r14,d2
	add  r14,#0x8cc
	ld   [fr,-92],r14
	ld   i0,r14
	call &__ZN6MAUtil11BasicStringIcEC1Ev ; call non-native
	ld   i0,d2
	add  i0,#0x8d0
	call &__ZN6MAUtil11BasicStringIcEC1Ev ; call non-native
	ld   i0,d2
	add  i0,#0x8d4
	call &__ZN6MAUtil11BasicStringIcEC1Ev ; call non-native
	ld   [d2,2280],d6
	.dlab LBB300
	.dlab LBB301
	.dlab LBB302
	.dlab LBB303
	.stabs	"c:/Apps/MoSync2.4/include/MAUtil/Map.h",132,0,0,Ltext97
Ltext97:
	.line 46
	ld   i0,d2
	add  i0,#0x8ec
	ld   i1,#__ZN6MAUtil7CompareIKNS_11BasicStringIcEEEEiRKT_S6_
	ld   i2,#0x0
	call &__ZN6MAUtil10DictionaryIKNS_11BasicStringIcEENS_4PairIS3_S2_EEEC2EPFiRS3_S7_Ei ; call non-native
	.dlab LBE303
	.dlab LBE302
	.dlab LBE301
	.dlab LBE300
	.dlab LBB304
	.dlab LBB305
	ld   i0,d2
	add  i0,#0x928
	ld   i1,#__ZN6MAUtil7CompareIKNS_11BasicStringIcEEEEiRKT_S6_
	ld   i2,#0x0
	call &__ZN6MAUtil10DictionaryIKNS_11BasicStringIcEENS_4PairIS3_4CardEEEC2EPFiRS3_S8_Ei ; call non-native
	.dlab LBE305
	.dlab LBE304
	.dlab LBB306
	ld   d0,d2
	add  d0,#0x960
	.dlab LBB307
	ld   i0,d0
	ld   i1,#__ZN6MAUtil7CompareIKNS_11BasicStringIcEEEEiRKT_S6_
	ld   i2,#0x0
	call &__ZN6MAUtil10DictionaryIKNS_11BasicStringIcEENS_4PairIS3_4CardEEEC2EPFiRS3_S8_Ei ; call non-native
	.dlab LBE307
	.dlab LBE306
	.stabs	"C:\\GameCards Core\\GameCards\\MobidexANC\\AlbumViewScreen.cpp",132,0,0,Ltext98
Ltext98:
	.line 11
	ld   i0,d2
	add  i0,#0x998
	ld   i1,d0
	call &__ZN6MAUtil10DictionaryIKNS_11BasicStringIcEENS_4PairIS3_4CardEEE3endEv ; call non-native
	.dlab LBB308
	.stabs	"c:/Apps/MoSync2.4/include/MAUtil/Vector.h",132,0,0,Ltext99
Ltext99:
	.line 104
	ld   d3,d2
	add  d3,#0x9a0
	.dlab LBB309
	.line 109
	ld   i0,#0x14
	call &__Znam ; call non-native
	ld   d4,r14
	add  d4,#0x4
	ld   r0,#0x4
	ld   [r14],r0
	ld   d0,d4
	ld   d1,#0x3
L500:
	ld   i0,d0
	call &__ZN6MAUtil11BasicStringIcEC1Ev ; call non-native
	add  d0,#0x4
	add  d1,#0xffffffff
	ld   r14,#0xffffffff
	jc   ne,d1,r14,#L500
	ld   [d3,8],d4
	.line 111
	ld   r0,#0x4
	ld   [d3,4],r0
	.line 113
	ld   r14,#0x0
	ld   [d3],r14
	.dlab LBE309
	.dlab LBE308
	.dlab LBB310
	.dlab LBB311
	.stabs	"C:\\GameCards Core\\GameCards\\MobidexANC\\AlbumViewScreen.cpp",132,0,0,Ltext100
Ltext100:
	.line 11
	ld   i0,d2
	add  i0,#0x9ac
	call &__ZN6MAUtil11BasicStringIcEC1Ev ; call non-native
	ld   i0,d2
	add  i0,#0x9b0
	call &__ZN6MAUtil11BasicStringIcEC1Ev ; call non-native
	ld   i0,d2
	add  i0,#0x9b4
	call &__ZN6MAUtil11BasicStringIcEC1Ev ; call non-native
	ld   i0,d2
	add  i0,#0x9b8
	call &__ZN6MAUtil11BasicStringIcEC1Ev ; call non-native
	ld   i0,d2
	add  i0,#0x9bc
	call &__ZN6MAUtil11BasicStringIcEC1Ev ; call non-native
	ld   i0,d2
	add  i0,#0x9c0
	call &__ZN6MAUtil11BasicStringIcEC1Ev ; call non-native
	ld   i0,d2
	add  i0,#0x9c4
	call &__ZN6MAUtil11BasicStringIcEC1Ev ; call non-native
	ld   i0,d2
	add  i0,#0x9c8
	call &__ZN6MAUtil11BasicStringIcEC1Ev ; call non-native
	.dlab LBE311
	.dlab LBE310
	.dlab LBB312
	.line 12
	ld   r0,#0x1
	ld.b [d2,2279],r0
	.line 13
	ld   i0,#0xc
	call &__Znwm ; call non-native
	ld   d0,r14
	ld   i0,r14
	call &__ZN4MAUI6ScreenC1Ev ; call non-native
	ld   [d2,28],d0
	.line 14
	ld   d3,fr
	add  d3,#0xffffffd4
	ld   i0,d3
	ld   i1,#LC20
	call &__ZN6MAUtil11BasicStringIcEC1EPKc ; call non-native
	ld   i0,[fr,-92]
	ld   i1,d3
	call &__ZN6MAUtil11BasicStringIcEaSERKS1_ ; call non-native
	ld   i0,d3
	call &__ZN6MAUtil11BasicStringIcED1Ev ; call non-native
	.line 15
	ld   i0,d3
	ld   i1,#LC23
	call &__ZN6MAUtil11BasicStringIcEC1EPKc ; call non-native
	ld   i0,[fr,-88]
	ld   i1,d3
	call &__ZN6MAUtil11BasicStringIcEaSERKS1_ ; call non-native
	ld   i0,d3
	call &__ZN6MAUtil11BasicStringIcED1Ev ; call non-native
	.line 17
	ld   i0,d6
	call &__ZN4Feed15getTouchEnabledEv ; call non-native
	and  r14,#0xff  ; zero extend
	ld   r0,#0x0
	jc   eq,r14,r0,#L503
	.line 18
	ld   i0,[&_exit]
	ld   i1,[&_tradelbl]
	ld   i2,#LC20
L520:
	.line 20
	ld   i3,#0x1
	call &__Z16createMainLayoutPKcS0_S0_b ; call non-native
	ld   i0,r14
	ld   [d2,48],r14
	.dlab LBB313
	.dlab LBB314
	.stabs	"c:/Apps/MoSync2.4/include/MAUtil/Vector.h",132,0,0,Ltext101
Ltext101:
	.line 355
	call &__ZN4MAUI6Widget11getChildrenEv ; call non-native
	.dlab LBB315
	ld   r14,[r14,8]
	.dlab LBE315
	.dlab LBE314
	ld   i0,[r14]
	call &__ZN4MAUI6Widget11getChildrenEv ; call non-native
	.dlab LBB316
	ld   r14,[r14,8]
	add  r14,#0x8
	.dlab LBE316
	.dlab LBE313
	ld   r14,[r14]
	ld   [d2,44],r14
	.dlab LBB317
	.dlab LBB318
	ld   i0,[d2,48]
	call &__ZN4MAUI6Widget11getChildrenEv ; call non-native
	.dlab LBB319
	ld   r14,[r14,8]
	.dlab LBE319
	.dlab LBE318
	ld   i0,[r14]
	call &__ZN4MAUI6Widget11getChildrenEv ; call non-native
	.dlab LBB320
	ld   r14,[r14,8]
	add  r14,#0x4
	.dlab LBE320
	.dlab LBE317
	ld   r14,[r14]
	ld   [d2,36],r14
	.stabs	"C:\\GameCards Core\\GameCards\\MobidexANC\\AlbumViewScreen.cpp",132,0,0,Ltext102
Ltext102:
	.line 24
	ld   i0,d3
	ld   i1,[&_checking_cards]
	call &__ZN6MAUtil11BasicStringIcEC1EPKc ; call non-native
	ld   i0,[d2,36]
	ld   r14,[i0]
	ld   d0,[r14,92]
	ld   i1,d3
	call d0 ; call non-native
	ld   i0,d3
	call &__ZN6MAUtil11BasicStringIcED1Ev ; call non-native
	.line 26
	ld   i0,#0x44c
	call &__Znwm ; call non-native
	ld   d0,r14
	ld   i0,r14
	call &__ZN10ImageCacheC1Ev ; call non-native
	ld   [d2,32],d0
	.line 27
	ld   i0,d2
	call &__ZN15AlbumViewScreen8loadFileEv ; call non-native
	.line 29
	ld   i0,#0x64
	call &__Znam ; call non-native
	ld   d1,r14
	.line 30
	ld   i0,r14
	ld   i1,#0x0
	ld   i2,#0x64
	call &_memset ; call non-native
	.line 31
	ld   i0,#_CARDS
	call &__ZNK6MAUtil11BasicStringIcE5c_strEv ; call non-native
	ld   [sp],r14
	ld   r14,[&_scrHeight]
	ld   [sp,4],r14
	ld   r0,[&_scrWidth]
	ld   [sp,8],r0
	ld   i0,d1
	ld   i1,#LC24
	call &_sprintf ; call non-native
	.dlab LBB321
	.line 32
	ld   d0,fr
	add  d0,#0xffffffac
	ld   i0,d0
	ld   i1,d7
	call &__ZN6MAUtil14HttpConnectionC1EPNS_22HttpConnectionListenerE ; call non-native
	.dlab LBB322
	.dlab LBB323
	.dlab LBB324
	.dlab LBB325
	.dlab LBB326
	.line 32
	ld   r14,[fr,-80]
	ld   [d5,4],r14
	.dlab LBE326
	.dlab LBE325
	ld   r0,[fr,-76]
	ld   [d5,8],r0
	ld   r14,[fr,-72]
	ld   [d5,12],r14
	ld   r0,[fr,-68]
	ld   [d5,16],r0
	ld   r14,[fr,-64]
	ld   [d5,20],r14
	ld   r0,[fr,-60]
	ld   [d5,24],r0
	ld   r14,[fr,-56]
	ld   [d5,28],r14
	ld   r14,[fr,-52]
	ld   r15,[fr,-48]
	ld   [d5,32],r14
	ld   [d5,36],r15
	.dlab LBE324
	.dlab LBE323
	.dlab LBE322
	.dlab LBE321
	.line 11
	ld   r0,#__ZTVN6MAUtil14HttpConnectionE+8
	ld   [d0],r0
	ld   i0,d0
	call &__ZN6MAUtil10ConnectionD2Ev ; call non-native
	.line 33
	ld   i0,d5
	ld   i1,d1
	ld   i2,#0x1
	call &__ZN6MAUtil14HttpConnection6createEPKci ; call non-native
	ld   d0,r14
	.line 34
	ld   i0,d3
	ld   i1,d6
	call &__ZN4Feed11getUsernameEv ; call non-native
	ld   i0,d3
	call &__ZNK6MAUtil11BasicStringIcE5c_strEv ; call non-native
	ld   i0,d5
	ld   i1,[&_auth_user]
	ld   i2,r14
	call &__ZN6MAUtil14HttpConnection16setRequestHeaderEPKcS2_ ; call non-native
	ld   i0,d3
	call &__ZN6MAUtil11BasicStringIcED1Ev ; call non-native
	.line 35
	ld   i0,d3
	ld   i1,d6
	call &__ZN4Feed10getEncryptEv ; call non-native
	ld   i0,d3
	call &__ZNK6MAUtil11BasicStringIcE5c_strEv ; call non-native
	ld   i0,d5
	ld   i1,[&_auth_pw]
	ld   i2,r14
	call &__ZN6MAUtil14HttpConnection16setRequestHeaderEPKcS2_ ; call non-native
	ld   i0,d3
	call &__ZN6MAUtil11BasicStringIcED1Ev ; call non-native
	.line 36
	ld   r14,#0x0
	jc   lt,d0,r14,#L517
	.line 39
	ld   i0,d5
	call &__ZN6MAUtil14HttpConnection6finishEv ; call non-native
L517:
	.line 41
	ld   i0,d2
	ld   i1,[d2,48]
	call &__ZN4MAUI6Screen7setMainEPNS_6WidgetE ; call non-native
	.line 43
	ld   [&_orig],d2
	.line 45
	ld   r0,#0x0
	ld   [d2,2272],r0
	.dlab LBE312
	.dlab LBE298
	add  sp,#0x40
	pop  rt,d7
	ret
L503:
	.dlab LBB327
	.dlab LBB328
	.line 20
	ld   i0,[&_exit]
	ld   i1,[&_tradelbl]
	ld   i2,[&_select]
	jp   #L520
	.dlab LBE328
	.dlab LBE327
	.stabs	"this:r(0,199)",64,0,46,4
	.stabn	192,0,0,LBB306-__ZN15AlbumViewScreenC1EP4Feed
	.stabn	224,0,0,LBE306-__ZN15AlbumViewScreenC1EP4Feed
	.stabs	"this:r(0,191)",64,0,104,7
	.stabn	192,0,0,LBB308-__ZN15AlbumViewScreenC1EP4Feed
	.stabn	224,0,0,LBE308-__ZN15AlbumViewScreenC1EP4Feed
	.stabs	"url:r(3,5)",64,0,29,5
	.stabs	"res:r(0,3)",64,0,33,4
	.stabn	192,0,0,LBB312-__ZN15AlbumViewScreenC1EP4Feed
	.stabn	224,0,0,LBE312-__ZN15AlbumViewScreenC1EP4Feed
	.stabs	"url:r(3,5)",64,0,29,5
	.stabs	"res:r(0,3)",64,0,33,4
	.stabn	192,0,0,LBB328-__ZN15AlbumViewScreenC1EP4Feed
	.stabn	224,0,0,LBE328-__ZN15AlbumViewScreenC1EP4Feed
Lscope78:
	.stabs	"_ZN15AlbumViewScreenC2EP4Feed:F(0,6)",36,0,11,__ZN15AlbumViewScreenC2EP4Feed
	.stabs	"this:P(0,175)",64,0,11,6
	.stabs	"feed:P(23,3)",64,0,11,10
	.global	__ZN15AlbumViewScreenC2EP4Feed

.func __ZN15AlbumViewScreenC2EP4Feed, 2, void
	.line 11
	push rt,d7
	sub  sp,#0x40
	ld   fr,sp
	add  fr,#0x68
	ld   d2,i0
	ld   d6,i1
	.dlab LBB329
	.line 11
	call &__ZN4MAUI6ScreenC2Ev ; call non-native
	.dlab LBB330
	ld   d7,d2
	add  d7,#0x18
	.dlab LBE330
	ld   r0,#__ZTV15AlbumViewScreen+8
	ld   [d2],r0
	ld   r14,#__ZTV15AlbumViewScreen+108
	ld   [d2,4],r14
	ld   r0,#__ZTV15AlbumViewScreen+136
	ld   [d2,12],r0
	ld   r14,#__ZTV15AlbumViewScreen+160
	ld   [d2,16],r14
	ld   r0,#__ZTV15AlbumViewScreen+172
	ld   [d2,20],r0
	ld   r14,#__ZTV15AlbumViewScreen+216
	ld   [d7],r14
	ld   d5,d2
	add  d5,#0x34
	ld   i0,d5
	ld   i1,d7
	call &__ZN6MAUtil14HttpConnectionC1EPNS_22HttpConnectionListenerE ; call non-native
	ld   i0,d2
	add  i0,#0x5c
	call &__ZN13XmlConnectionC1Ev ; call non-native
	ld   i0,d2
	add  i0,#0x8ac
	call &__ZN6MAUtil11BasicStringIcEC1Ev ; call non-native
	ld   i0,d2
	add  i0,#0x8b0
	call &__ZN6MAUtil11BasicStringIcEC1Ev ; call non-native
	ld   i0,d2
	add  i0,#0x8b4
	call &__ZN6MAUtil11BasicStringIcEC1Ev ; call non-native
	ld   i0,d2
	add  i0,#0x8b8
	call &__ZN6MAUtil11BasicStringIcEC1Ev ; call non-native
	ld   r0,d2
	add  r0,#0x8bc
	ld   [fr,-88],r0
	ld   i0,r0
	call &__ZN6MAUtil11BasicStringIcEC1Ev ; call non-native
	ld   i0,d2
	add  i0,#0x8c0
	call &__ZN6MAUtil11BasicStringIcEC1Ev ; call non-native
	ld   i0,d2
	add  i0,#0x8c4
	call &__ZN6MAUtil11BasicStringIcEC1Ev ; call non-native
	ld   i0,d2
	add  i0,#0x8c8
	call &__ZN6MAUtil11BasicStringIcEC1Ev ; call non-native
	ld   r14,d2
	add  r14,#0x8cc
	ld   [fr,-92],r14
	ld   i0,r14
	call &__ZN6MAUtil11BasicStringIcEC1Ev ; call non-native
	ld   i0,d2
	add  i0,#0x8d0
	call &__ZN6MAUtil11BasicStringIcEC1Ev ; call non-native
	ld   i0,d2
	add  i0,#0x8d4
	call &__ZN6MAUtil11BasicStringIcEC1Ev ; call non-native
	ld   [d2,2280],d6
	.dlab LBB331
	.dlab LBB332
	.dlab LBB333
	.dlab LBB334
	.stabs	"c:/Apps/MoSync2.4/include/MAUtil/Map.h",132,0,0,Ltext103
Ltext103:
	.line 46
	ld   i0,d2
	add  i0,#0x8ec
	ld   i1,#__ZN6MAUtil7CompareIKNS_11BasicStringIcEEEEiRKT_S6_
	ld   i2,#0x0
	call &__ZN6MAUtil10DictionaryIKNS_11BasicStringIcEENS_4PairIS3_S2_EEEC2EPFiRS3_S7_Ei ; call non-native
	.dlab LBE334
	.dlab LBE333
	.dlab LBE332
	.dlab LBE331
	.dlab LBB335
	.dlab LBB336
	ld   i0,d2
	add  i0,#0x928
	ld   i1,#__ZN6MAUtil7CompareIKNS_11BasicStringIcEEEEiRKT_S6_
	ld   i2,#0x0
	call &__ZN6MAUtil10DictionaryIKNS_11BasicStringIcEENS_4PairIS3_4CardEEEC2EPFiRS3_S8_Ei ; call non-native
	.dlab LBE336
	.dlab LBE335
	.dlab LBB337
	ld   d0,d2
	add  d0,#0x960
	.dlab LBB338
	ld   i0,d0
	ld   i1,#__ZN6MAUtil7CompareIKNS_11BasicStringIcEEEEiRKT_S6_
	ld   i2,#0x0
	call &__ZN6MAUtil10DictionaryIKNS_11BasicStringIcEENS_4PairIS3_4CardEEEC2EPFiRS3_S8_Ei ; call non-native
	.dlab LBE338
	.dlab LBE337
	.stabs	"C:\\GameCards Core\\GameCards\\MobidexANC\\AlbumViewScreen.cpp",132,0,0,Ltext104
Ltext104:
	.line 11
	ld   i0,d2
	add  i0,#0x998
	ld   i1,d0
	call &__ZN6MAUtil10DictionaryIKNS_11BasicStringIcEENS_4PairIS3_4CardEEE3endEv ; call non-native
	.dlab LBB339
	.stabs	"c:/Apps/MoSync2.4/include/MAUtil/Vector.h",132,0,0,Ltext105
Ltext105:
	.line 104
	ld   d3,d2
	add  d3,#0x9a0
	.dlab LBB340
	.line 109
	ld   i0,#0x14
	call &__Znam ; call non-native
	ld   d4,r14
	add  d4,#0x4
	ld   r0,#0x4
	ld   [r14],r0
	ld   d0,d4
	ld   d1,#0x3
L535:
	ld   i0,d0
	call &__ZN6MAUtil11BasicStringIcEC1Ev ; call non-native
	add  d0,#0x4
	add  d1,#0xffffffff
	ld   r14,#0xffffffff
	jc   ne,d1,r14,#L535
	ld   [d3,8],d4
	.line 111
	ld   r0,#0x4
	ld   [d3,4],r0
	.line 113
	ld   r14,#0x0
	ld   [d3],r14
	.dlab LBE340
	.dlab LBE339
	.dlab LBB341
	.dlab LBB342
	.stabs	"C:\\GameCards Core\\GameCards\\MobidexANC\\AlbumViewScreen.cpp",132,0,0,Ltext106
Ltext106:
	.line 11
	ld   i0,d2
	add  i0,#0x9ac
	call &__ZN6MAUtil11BasicStringIcEC1Ev ; call non-native
	ld   i0,d2
	add  i0,#0x9b0
	call &__ZN6MAUtil11BasicStringIcEC1Ev ; call non-native
	ld   i0,d2
	add  i0,#0x9b4
	call &__ZN6MAUtil11BasicStringIcEC1Ev ; call non-native
	ld   i0,d2
	add  i0,#0x9b8
	call &__ZN6MAUtil11BasicStringIcEC1Ev ; call non-native
	ld   i0,d2
	add  i0,#0x9bc
	call &__ZN6MAUtil11BasicStringIcEC1Ev ; call non-native
	ld   i0,d2
	add  i0,#0x9c0
	call &__ZN6MAUtil11BasicStringIcEC1Ev ; call non-native
	ld   i0,d2
	add  i0,#0x9c4
	call &__ZN6MAUtil11BasicStringIcEC1Ev ; call non-native
	ld   i0,d2
	add  i0,#0x9c8
	call &__ZN6MAUtil11BasicStringIcEC1Ev ; call non-native
	.dlab LBE342
	.dlab LBE341
	.dlab LBB343
	.line 12
	ld   r0,#0x1
	ld.b [d2,2279],r0
	.line 13
	ld   i0,#0xc
	call &__Znwm ; call non-native
	ld   d0,r14
	ld   i0,r14
	call &__ZN4MAUI6ScreenC1Ev ; call non-native
	ld   [d2,28],d0
	.line 14
	ld   d3,fr
	add  d3,#0xffffffd4
	ld   i0,d3
	ld   i1,#LC20
	call &__ZN6MAUtil11BasicStringIcEC1EPKc ; call non-native
	ld   i0,[fr,-92]
	ld   i1,d3
	call &__ZN6MAUtil11BasicStringIcEaSERKS1_ ; call non-native
	ld   i0,d3
	call &__ZN6MAUtil11BasicStringIcED1Ev ; call non-native
	.line 15
	ld   i0,d3
	ld   i1,#LC23
	call &__ZN6MAUtil11BasicStringIcEC1EPKc ; call non-native
	ld   i0,[fr,-88]
	ld   i1,d3
	call &__ZN6MAUtil11BasicStringIcEaSERKS1_ ; call non-native
	ld   i0,d3
	call &__ZN6MAUtil11BasicStringIcED1Ev ; call non-native
	.line 17
	ld   i0,d6
	call &__ZN4Feed15getTouchEnabledEv ; call non-native
	and  r14,#0xff  ; zero extend
	ld   r0,#0x0
	jc   eq,r14,r0,#L538
	.line 18
	ld   i0,[&_exit]
	ld   i1,[&_tradelbl]
	ld   i2,#LC20
L555:
	.line 20
	ld   i3,#0x1
	call &__Z16createMainLayoutPKcS0_S0_b ; call non-native
	ld   i0,r14
	ld   [d2,48],r14
	.dlab LBB344
	.dlab LBB345
	.stabs	"c:/Apps/MoSync2.4/include/MAUtil/Vector.h",132,0,0,Ltext107
Ltext107:
	.line 355
	call &__ZN4MAUI6Widget11getChildrenEv ; call non-native
	.dlab LBB346
	ld   r14,[r14,8]
	.dlab LBE346
	.dlab LBE345
	ld   i0,[r14]
	call &__ZN4MAUI6Widget11getChildrenEv ; call non-native
	.dlab LBB347
	ld   r14,[r14,8]
	add  r14,#0x8
	.dlab LBE347
	.dlab LBE344
	ld   r14,[r14]
	ld   [d2,44],r14
	.dlab LBB348
	.dlab LBB349
	ld   i0,[d2,48]
	call &__ZN4MAUI6Widget11getChildrenEv ; call non-native
	.dlab LBB350
	ld   r14,[r14,8]
	.dlab LBE350
	.dlab LBE349
	ld   i0,[r14]
	call &__ZN4MAUI6Widget11getChildrenEv ; call non-native
	.dlab LBB351
	ld   r14,[r14,8]
	add  r14,#0x4
	.dlab LBE351
	.dlab LBE348
	ld   r14,[r14]
	ld   [d2,36],r14
	.stabs	"C:\\GameCards Core\\GameCards\\MobidexANC\\AlbumViewScreen.cpp",132,0,0,Ltext108
Ltext108:
	.line 24
	ld   i0,d3
	ld   i1,[&_checking_cards]
	call &__ZN6MAUtil11BasicStringIcEC1EPKc ; call non-native
	ld   i0,[d2,36]
	ld   r14,[i0]
	ld   d0,[r14,92]
	ld   i1,d3
	call d0 ; call non-native
	ld   i0,d3
	call &__ZN6MAUtil11BasicStringIcED1Ev ; call non-native
	.line 26
	ld   i0,#0x44c
	call &__Znwm ; call non-native
	ld   d0,r14
	ld   i0,r14
	call &__ZN10ImageCacheC1Ev ; call non-native
	ld   [d2,32],d0
	.line 27
	ld   i0,d2
	call &__ZN15AlbumViewScreen8loadFileEv ; call non-native
	.line 29
	ld   i0,#0x64
	call &__Znam ; call non-native
	ld   d1,r14
	.line 30
	ld   i0,r14
	ld   i1,#0x0
	ld   i2,#0x64
	call &_memset ; call non-native
	.line 31
	ld   i0,#_CARDS
	call &__ZNK6MAUtil11BasicStringIcE5c_strEv ; call non-native
	ld   [sp],r14
	ld   r14,[&_scrHeight]
	ld   [sp,4],r14
	ld   r0,[&_scrWidth]
	ld   [sp,8],r0
	ld   i0,d1
	ld   i1,#LC24
	call &_sprintf ; call non-native
	.dlab LBB352
	.line 32
	ld   d0,fr
	add  d0,#0xffffffac
	ld   i0,d0
	ld   i1,d7
	call &__ZN6MAUtil14HttpConnectionC1EPNS_22HttpConnectionListenerE ; call non-native
	.dlab LBB353
	.dlab LBB354
	.dlab LBB355
	.dlab LBB356
	.dlab LBB357
	.line 32
	ld   r14,[fr,-80]
	ld   [d5,4],r14
	.dlab LBE357
	.dlab LBE356
	ld   r0,[fr,-76]
	ld   [d5,8],r0
	ld   r14,[fr,-72]
	ld   [d5,12],r14
	ld   r0,[fr,-68]
	ld   [d5,16],r0
	ld   r14,[fr,-64]
	ld   [d5,20],r14
	ld   r0,[fr,-60]
	ld   [d5,24],r0
	ld   r14,[fr,-56]
	ld   [d5,28],r14
	ld   r14,[fr,-52]
	ld   r15,[fr,-48]
	ld   [d5,32],r14
	ld   [d5,36],r15
	.dlab LBE355
	.dlab LBE354
	.dlab LBE353
	.dlab LBE352
	.line 11
	ld   r0,#__ZTVN6MAUtil14HttpConnectionE+8
	ld   [d0],r0
	ld   i0,d0
	call &__ZN6MAUtil10ConnectionD2Ev ; call non-native
	.line 33
	ld   i0,d5
	ld   i1,d1
	ld   i2,#0x1
	call &__ZN6MAUtil14HttpConnection6createEPKci ; call non-native
	ld   d0,r14
	.line 34
	ld   i0,d3
	ld   i1,d6
	call &__ZN4Feed11getUsernameEv ; call non-native
	ld   i0,d3
	call &__ZNK6MAUtil11BasicStringIcE5c_strEv ; call non-native
	ld   i0,d5
	ld   i1,[&_auth_user]
	ld   i2,r14
	call &__ZN6MAUtil14HttpConnection16setRequestHeaderEPKcS2_ ; call non-native
	ld   i0,d3
	call &__ZN6MAUtil11BasicStringIcED1Ev ; call non-native
	.line 35
	ld   i0,d3
	ld   i1,d6
	call &__ZN4Feed10getEncryptEv ; call non-native
	ld   i0,d3
	call &__ZNK6MAUtil11BasicStringIcE5c_strEv ; call non-native
	ld   i0,d5
	ld   i1,[&_auth_pw]
	ld   i2,r14
	call &__ZN6MAUtil14HttpConnection16setRequestHeaderEPKcS2_ ; call non-native
	ld   i0,d3
	call &__ZN6MAUtil11BasicStringIcED1Ev ; call non-native
	.line 36
	ld   r14,#0x0
	jc   lt,d0,r14,#L552
	.line 39
	ld   i0,d5
	call &__ZN6MAUtil14HttpConnection6finishEv ; call non-native
L552:
	.line 41
	ld   i0,d2
	ld   i1,[d2,48]
	call &__ZN4MAUI6Screen7setMainEPNS_6WidgetE ; call non-native
	.line 43
	ld   [&_orig],d2
	.line 45
	ld   r0,#0x0
	ld   [d2,2272],r0
	.dlab LBE343
	.dlab LBE329
	add  sp,#0x40
	pop  rt,d7
	ret
L538:
	.dlab LBB358
	.dlab LBB359
	.line 20
	ld   i0,[&_exit]
	ld   i1,[&_tradelbl]
	ld   i2,[&_select]
	jp   #L555
	.dlab LBE359
	.dlab LBE358
	.stabs	"this:r(0,199)",64,0,46,4
	.stabn	192,0,0,LBB337-__ZN15AlbumViewScreenC2EP4Feed
	.stabn	224,0,0,LBE337-__ZN15AlbumViewScreenC2EP4Feed
	.stabs	"this:r(0,191)",64,0,104,7
	.stabn	192,0,0,LBB339-__ZN15AlbumViewScreenC2EP4Feed
	.stabn	224,0,0,LBE339-__ZN15AlbumViewScreenC2EP4Feed
	.stabs	"url:r(3,5)",64,0,29,5
	.stabs	"res:r(0,3)",64,0,33,4
	.stabn	192,0,0,LBB343-__ZN15AlbumViewScreenC2EP4Feed
	.stabn	224,0,0,LBE343-__ZN15AlbumViewScreenC2EP4Feed
	.stabs	"url:r(3,5)",64,0,29,5
	.stabs	"res:r(0,3)",64,0,33,4
	.stabn	192,0,0,LBB359-__ZN15AlbumViewScreenC2EP4Feed
	.stabn	224,0,0,LBE359-__ZN15AlbumViewScreenC2EP4Feed
Lscope79:
.data
LC25:
	.ascii "ABCDEFGHIJKLMNOPQRSTUVWXYZabcdefghijklmnopqrstuvwxyz0123456789+/\0"
LC26:
	.ascii "http://mobidex.mytcg.net/_phone/\0"
LC27:
	.ascii "?userdetails=1\0"
LC28:
	.ascii "?usercategories=1\0"
LC29:
	.ascii "?getcards=1\0"
LC30:
	.ascii "?tradecard=1\0"
.code
	.stabs	"_Z41__static_initialization_and_destruction_0ii:f(0,6)",36,0,321,__Z41__static_initialization_and_destruction_0ii
	.stabs	"__initialize_p:P(0,3)",64,0,321,12
	.stabs	"__priority:P(0,3)",64,0,321,13

.func __Z41__static_initialization_and_destruction_0ii, 2, void
	.line 321
	push rt,d0
	sub  sp,#0x4
	ld   fr,sp
	add  fr,#0x10
	.stabs	"C:\\GameCards Core\\GameCards\\MobidexANC\\/Util.h",132,0,0,Ltext109
Ltext109:
	.line 60
	ld   r14,#0xffff
	jc   eq,i1,r14,#L592
L556:
	.stabs	"C:\\GameCards Core\\GameCards\\MobidexANC\\AlbumViewScreen.cpp",132,0,0,Ltext110
Ltext110:
	.line 321
	add  sp,#0x4
	pop  rt,d0
	ret
L592:
	.stabs	"C:\\GameCards Core\\GameCards\\MobidexANC\\/Util.h",132,0,0,Ltext111
Ltext111:
	.line 60
	ld   r14,#0x1
	jc   eq,i0,r14,#L593
	.line 76
	ld   r14,#0x0
	jc   ne,i0,r14,#L556
	ld   i0,#_TRADE
	call &__ZN6MAUtil11BasicStringIcED1Ev ; call non-native
	.line 74
	ld   i0,#_CARDS
	call &__ZN6MAUtil11BasicStringIcED1Ev ; call non-native
	.line 72
	ld   i0,#_ALBUMS
	call &__ZN6MAUtil11BasicStringIcED1Ev ; call non-native
	.line 70
	ld   i0,#_USER
	call &__ZN6MAUtil11BasicStringIcED1Ev ; call non-native
	.line 68
	ld   i0,#_URL
	call &__ZN6MAUtil11BasicStringIcED1Ev ; call non-native
	.line 60
	ld   i0,#_base64_chars
	call &__ZN6MAUtil11BasicStringIcED1Ev ; call non-native
L594:
	.stabs	"C:\\GameCards Core\\GameCards\\MobidexANC\\AlbumViewScreen.cpp",132,0,0,Ltext112
Ltext112:
	.line 321
	add  sp,#0x4
	pop  rt,d0
	ret
L593:
	.stabs	"C:\\GameCards Core\\GameCards\\MobidexANC\\/Util.h",132,0,0,Ltext113
Ltext113:
	.line 64
	ld   i0,#_base64_chars
	ld   i1,#LC25
	call &__ZN6MAUtil11BasicStringIcEC1EPKc ; call non-native
	.line 68
	ld   i0,#_URL
	ld   i1,#LC26
	call &__ZN6MAUtil11BasicStringIcEC1EPKc ; call non-native
	.line 70
	ld   d0,fr
	add  d0,#0xfffffff0
	ld   i0,d0
	ld   i1,#LC27
	call &__ZN6MAUtil11BasicStringIcEC1EPKc ; call non-native
	ld   i0,#_USER
	ld   i1,#_URL
	ld   i2,d0
	call &__ZNK6MAUtil11BasicStringIcEplERKS1_ ; call non-native
	ld   i0,d0
	call &__ZN6MAUtil11BasicStringIcED1Ev ; call non-native
	.line 72
	ld   i0,d0
	ld   i1,#LC28
	call &__ZN6MAUtil11BasicStringIcEC1EPKc ; call non-native
	ld   i0,#_ALBUMS
	ld   i1,#_URL
	ld   i2,d0
	call &__ZNK6MAUtil11BasicStringIcEplERKS1_ ; call non-native
	ld   i0,d0
	call &__ZN6MAUtil11BasicStringIcED1Ev ; call non-native
	.line 74
	ld   i0,d0
	ld   i1,#LC29
	call &__ZN6MAUtil11BasicStringIcEC1EPKc ; call non-native
	ld   i0,#_CARDS
	ld   i1,#_URL
	ld   i2,d0
	call &__ZNK6MAUtil11BasicStringIcEplERKS1_ ; call non-native
	ld   i0,d0
	call &__ZN6MAUtil11BasicStringIcED1Ev ; call non-native
	.line 76
	ld   i0,d0
	ld   i1,#LC30
	call &__ZN6MAUtil11BasicStringIcEC1EPKc ; call non-native
	ld   i0,#_TRADE
	ld   i1,#_URL
	ld   i2,d0
	call &__ZNK6MAUtil11BasicStringIcEplERKS1_ ; call non-native
	ld   i0,d0
	.line 60
	call &__ZN6MAUtil11BasicStringIcED1Ev ; call non-native
	jp   #L594
Lscope80:
	.stabs	"_GLOBAL__I__ZN15AlbumViewScreenC2EP4Feed:f(0,6)",36,0,322,__GLOBAL__I__ZN15AlbumViewScreenC2EP4Feed

.func __GLOBAL__I__ZN15AlbumViewScreenC2EP4Feed, 0, void
	.stabs	"C:\\GameCards Core\\GameCards\\MobidexANC\\AlbumViewScreen.cpp",132,0,0,Ltext114
Ltext114:
	.line 322
	push rt,fr
	ld   fr,sp
	add  fr,#0x8
	.line 322
	ld   i0,#0x1
	ld   i1,#0xffff
	call &__Z41__static_initialization_and_destruction_0ii ; call non-native
	pop  rt,fr
	ret
Lscope81:
	.stabs	"_GLOBAL__D__ZN15AlbumViewScreenC2EP4Feed:f(0,6)",36,0,323,__GLOBAL__D__ZN15AlbumViewScreenC2EP4Feed

.func __GLOBAL__D__ZN15AlbumViewScreenC2EP4Feed, 0, void
	.line 323
	push rt,fr
	ld   fr,sp
	add  fr,#0x8
	.line 323
	ld   i0,#0x0
	ld   i1,#0xffff
	call &__Z41__static_initialization_and_destruction_0ii ; call non-native
	pop  rt,fr
	ret
Lscope82:
	.stabs	"base64_chars:S(24,12)",40,0,60,_base64_chars
	.stabs	"URL:S(10,1)",40,0,68,_URL
	.stabs	"USER:S(10,1)",40,0,70,_USER
	.stabs	"ALBUMS:S(10,1)",40,0,72,_ALBUMS
	.stabs	"CARDS:S(10,1)",40,0,74,_CARDS
	.stabs	"TRADE:S(10,1)",40,0,76,_TRADE
	.stabs	"delim:S(19,27)",38,0,78,_delim
	.stabs	"newline:S(19,27)",38,0,80,_newline
	.stabs	"empty:S(19,27)",38,0,85,_empty
	.stabs	"select:S(19,27)",38,0,89,_select
	.stabs	"exit:S(19,27)",38,0,96,_exit
	.stabs	"tradelbl:S(19,27)",38,0,105,_tradelbl
	.stabs	"checking_cards:S(19,27)",38,0,113,_checking_cards
	.stabs	"auth_user:S(19,27)",38,0,115,_auth_user
	.stabs	"auth_pw:S(19,27)",38,0,116,_auth_pw
	.stabs	"truesz:S(19,27)",38,0,117,_truesz
	.stabs	"xml_cardid:S(19,27)",38,0,133,_xml_cardid
	.stabs	"xml_carddescription:S(19,27)",38,0,134,_xml_carddescription
	.stabs	"xml_thumburl:S(19,27)",38,0,136,_xml_thumburl
	.stabs	"xml_fronturl:S(19,27)",38,0,137,_xml_fronturl
	.stabs	"xml_backurl:S(19,27)",38,0,138,_xml_backurl
	.stabs	"xml_rate:S(19,27)",38,0,139,_xml_rate
	.stabs	"xml_value:S(19,27)",38,0,140,_xml_value
	.stabs	"xml_carddone:S(19,27)",38,0,141,_xml_carddone
	.stabs	"xml_error:S(19,27)",38,0,147,_xml_error
	.stabs	"FEED:S(19,27)",38,0,151,_FEED
	.text
	.stabs "",100,0,0,Letext
Letext:
