.model full
	.sourcedir 'E:\My Dropbox\workspace\GameCards\MobidexANC/'
	.sourcefile 'E:\My Dropbox\workspace\GameCards\MobidexANC\UI\MobKeyboard.cpp'
	.stabs	"gcc2_compiled.",60,0,0,0
	.stabs	"__vtbl_ptr_type:t(0,1)=*(0,2)=f(0,3)=r(0,3);-2147483648;2147483647;",128,0,0,0
	.stabs	"bool:t(0,4)=@s8;-16;",128,0,0,0
	.stabs	"wchar_t:t(0,5)=@s16;r(0,5);0;65535;",128,0,0,0
	.stabs	"void:t(0,6)=(0,6)",128,0,0,0
	.stabs	"long double:t(0,7)=r(0,3);8;0;",128,0,0,0
	.stabs	"double:t(0,8)=r(0,3);8;0;",128,0,0,0
	.stabs	"float:t(0,9)=r(0,3);4;0;",128,0,0,0
	.stabs	"unsigned char:t(0,10)=@s8;r(0,10);0;255;",128,0,0,0
	.stabs	"signed char:t(0,11)=@s8;r(0,11);-128;127;",128,0,0,0
	.stabs	"short unsigned int:t(0,12)=@s16;r(0,12);0;65535;",128,0,0,0
	.stabs	"short int:t(0,13)=@s16;r(0,13);-32768;32767;",128,0,0,0
	.stabs	"long long unsigned int:t(0,14)=@s64;r(0,14);0000000000000;01777777777777777777777;",128,0,0,0
	.stabs	"long long int:t(0,15)=@s64;r(0,15);01000000000000000000000;0777777777777777777777;",128,0,0,0
	.stabs	"long unsigned int:t(0,16)=r(0,16);0000000000000;0037777777777;",128,0,0,0
	.stabs	"unsigned int:t(0,17)=r(0,17);0000000000000;0037777777777;",128,0,0,0
	.stabs	"long int:t(0,18)=r(0,18);-2147483648;2147483647;",128,0,0,0
	.stabs	"int:t(0,3)",128,0,0,0
	.stabs	"char:t(0,19)=r(0,19);0;127;",128,0,0,0
	.stabs	"__builtin_va_list:t(0,20)=*(0,6)",128,0,0,0
	.stabs	"complex long double:t(0,21)=R3;16;0;",128,0,0,0
	.stabs	"complex double:t(0,22)=R3;16;0;",128,0,0,0
	.stabs	"complex float:t(0,23)=R3;8;0;",128,0,0,0
	.stabs	"complex int:t(0,24)=s8real:(0,3),0,32;imag:(0,3),32,32;;",128,0,0,0
	.stabs	"c:/MoSync/include/MAUtil/Moblet.h",130,0,0,0
	.stabs	"c:/MoSync/include/ma.h",130,0,0,0
	.stabs	"c:/MoSync/include/maapi.h",130,0,0,0
	.stabs	"c:/MoSync/include/maapi_defs.h",130,0,0,0
	.stabs	"MA_DV:Tt(4,1)=u8:(4,2)=s8hi:(0,3),0,32;lo:(0,3),32,32;;,0,64;ll:(0,15),0,64;d:(0,8),0,64;operator=::(4,3)=#(4,1),(4,4)=&(4,1),(4,5)=*(4,1),(4,6)=&(4,7)=k(4,1),(0,6);:_ZN5MA_DVaSERKS_;2A.;__base_ctor::(4,8)=#(4,1),(0,6),(4,5),(4,6),(0,6);:_ZN5MA_DVC2ERKS_;2A.;__comp_ctor::(4,8):_ZN5MA_DVC1ERKS_;2A.;__base_ctor::(4,9)=#(4,1),(0,6),(4,5),(0,6);:_ZN5MA_DVC2Ev;2A.;__comp_ctor::(4,9):_ZN5MA_DVC1Ev;2A.;;",128,0,54,0
	.stabs	"MA_FV:Tt(4,10)=u4f:(0,9),0,32;i:(0,3),0,32;operator=::(4,11)=#(4,10),(4,12)=&(4,10),(4,13)=*(4,10),(4,14)=&(4,15)=k(4,10),(0,6);:_ZN5MA_FVaSERKS_;2A.;__base_ctor::(4,16)=#(4,10),(0,6),(4,13),(4,14),(0,6);:_ZN5MA_FVC2ERKS_;2A.;__comp_ctor::(4,16):_ZN5MA_FVC1ERKS_;2A.;__base_ctor::(4,17)=#(4,10),(0,6),(4,13),(0,6);:_ZN5MA_FVC2Ev;2A.;__comp_ctor::(4,17):_ZN5MA_FVC1Ev;2A.;;",128,0,72,0
	.stabn	162,0,0,0
	.stabs	"wchar:t(3,1)=(0,5)",128,0,84,0
	.stabs	"ushort:t(3,2)=(0,12)",128,0,96,0
	.stabs	"uint:t(3,3)=(0,17)",128,0,97,0
	.stabs	"MAString:t(3,4)=(3,5)=*(0,19)",128,0,100,0
	.stabs	"MAWString:t(3,6)=(3,7)=*(3,1)",128,0,101,0
	.stabs	"MAAddress:t(3,8)=(3,9)=*(0,6)",128,0,102,0
	.stabs	"MAHandle:t(3,10)=(0,3)",128,0,103,0
	.stabs	"MAExtent:t(3,11)=(0,3)",128,0,104,0
	.stabs	"byte:t(3,12)=(0,10)",128,0,105,0
	.stabs	"ulong:t(3,13)=(0,16)",128,0,106,0
	.stabs	"longlong:t(3,14)=(0,15)",128,0,107,0
	.stabs	"MAPoint2d:Tt(3,15)=s8x:(0,3),0,32;y:(0,3),32,32;operator=::(3,16)=#(3,15),(3,17)=&(3,15),(3,18)=*(3,15),(3,19)=&(3,20)=k(3,15),(0,6);:_ZN9MAPoint2daSERKS_;2A.;__base_ctor::(3,21)=#(3,15),(0,6),(3,18),(3,19),(0,6);:_ZN9MAPoint2dC2ERKS_;2A.;__comp_ctor::(3,21):_ZN9MAPoint2dC1ERKS_;2A.;__base_ctor::(3,22)=#(3,15),(0,6),(3,18),(0,6);:_ZN9MAPoint2dC2Ev;2A.;__comp_ctor::(3,22):_ZN9MAPoint2dC1Ev;2A.;;",128,0,626,0
	.stabs	"MAPoint2d:t(3,23)=(3,15)",128,0,629,0
	.stabs	"MARect:Tt(3,24)=s16left:(0,3),0,32;top:(0,3),32,32;width:(0,3),64,32;height:(0,3),96,32;operator=::(3,25)=#(3,24),(3,26)=&(3,24),(3,27)=*(3,24),(3,28)=&(3,29)=k(3,24),(0,6);:_ZN6MARectaSERKS_;2A.;__base_ctor::(3,30)=#(3,24),(0,6),(3,27),(3,28),(0,6);:_ZN6MARectC2ERKS_;2A.;__comp_ctor::(3,30):_ZN6MARectC1ERKS_;2A.;__base_ctor::(3,31)=#(3,24),(0,6),(3,27),(0,6);:_ZN6MARectC2Ev;2A.;__comp_ctor::(3,31):_ZN6MARectC1Ev;2A.;;",128,0,637,0
	.stabs	"MARect:t(3,32)=(3,24)",128,0,642,0
	.stabs	"MACopyData:Tt(3,33)=s20dst:(3,10),0,32;dstOffset:(0,3),32,32;src:(3,10),64,32;srcOffset:(0,3),96,32;size:(0,3),128,32;operator=::(3,34)=#(3,33),(3,35)=&(3,33),(3,36)=*(3,33),(3,37)=&(3,38)=k(3,33),(0,6);:_ZN10MACopyDataaSERKS_;2A.;__base_ctor::(3,39)=#(3,33),(0,6),(3,36),(3,37),(0,6);:_ZN10MACopyDataC2ERKS_;2A.;__comp_ctor::(3,39):_ZN10MACopyDataC1ERKS_;2A.;__base_ctor::(3,40)=#(3,33),(0,6),(3,36),(0,6);:_ZN10MACopyDataC2Ev;2A.;__comp_ctor::(3,40):_ZN10MACopyDataC1Ev;2A.;;",128,0,647,0
	.stabs	"MACopyData:t(3,41)=(3,33)",128,0,653,0
	.stabs	"MAConnAddrInet4:Tt(3,42)=s8addr:(0,3),0,32;port:(0,3),32,32;operator=::(3,43)=#(3,42),(3,44)=&(3,42),(3,45)=*(3,42),(3,46)=&(3,47)=k(3,42),(0,6);:_ZN15MAConnAddrInet4aSERKS_;2A.;__base_ctor::(3,48)=#(3,42),(0,6),(3,45),(3,46),(0,6);:_ZN15MAConnAddrInet4C2ERKS_;2A.;__comp_ctor::(3,48):_ZN15MAConnAddrInet4C1ERKS_;2A.;__base_ctor::(3,49)=#(3,42),(0,6),(3,45),(0,6);:_ZN15MAConnAddrInet4C2Ev;2A.;__comp_ctor::(3,49):_ZN15MAConnAddrInet4C1Ev;2A.;;",128,0,658,0
	.stabs	"MAConnAddrInet4:t(3,50)=(3,42)",128,0,661,0
	.stabs	"MABtAddr:Tt(3,51)=s6a:(3,52)=ar(3,53)=r(3,53);0000000000000;0037777777777;;0;5;(3,12),0,48;operator=::(3,54)=#(3,51),(3,55)=&(3,51),(3,56)=*(3,51),(3,57)=&(3,58)=k(3,51),(0,6);:_ZN8MABtAddraSERKS_;2A.;__base_ctor::(3,59)=#(3,51),(0,6),(3,56),(3,57),(0,6);:_ZN8MABtAddrC2ERKS_;2A.;__comp_ctor::(3,59):_ZN8MABtAddrC1ERKS_;2A.;__base_ctor::(3,60)=#(3,51),(0,6),(3,56),(0,6);:_ZN8MABtAddrC2Ev;2A.;__comp_ctor::(3,60):_ZN8MABtAddrC1Ev;2A.;;",128,0,666,0
	.stabs	"MABtAddr:t(3,61)=(3,51)",128,0,668,0
	.stabs	"MAConnAddrBt:Tt(3,62)=s12port:(0,3),0,32;addr:(3,61),32,48;operator=::(3,63)=#(3,62),(3,64)=&(3,62),(3,65)=*(3,62),(3,66)=&(3,67)=k(3,62),(0,6);:_ZN12MAConnAddrBtaSERKS_;2A.;__base_ctor::(3,68)=#(3,62),(0,6),(3,65),(3,66),(0,6);:_ZN12MAConnAddrBtC2ERKS_;2A.;__comp_ctor::(3,68):_ZN12MAConnAddrBtC1ERKS_;2A.;__base_ctor::(3,69)=#(3,62),(0,6),(3,65),(0,6);:_ZN12MAConnAddrBtC2Ev;2A.;__comp_ctor::(3,69):_ZN12MAConnAddrBtC1Ev;2A.;;",128,0,673,0
	.stabs	"MAConnAddrBt:t(3,70)=(3,62)",128,0,676,0
	.stabs	"MAConnAddr:Tt(3,71)=s16family:(0,3),0,32;:(3,72)=u12inet4:(3,50),0,64;bt:(3,70),0,96;;,32,96;operator=::(3,73)=#(3,71),(3,74)=&(3,71),(3,75)=*(3,71),(3,76)=&(3,77)=k(3,71),(0,6);:_ZN10MAConnAddraSERKS_;2A.;__base_ctor::(3,78)=#(3,71),(0,6),(3,75),(3,76),(0,6);:_ZN10MAConnAddrC2ERKS_;2A.;__comp_ctor::(3,78):_ZN10MAConnAddrC1ERKS_;2A.;__base_ctor::(3,79)=#(3,71),(0,6),(3,75),(0,6);:_ZN10MAConnAddrC2Ev;2A.;__comp_ctor::(3,79):_ZN10MAConnAddrC1Ev;2A.;;",128,0,681,0
	.stabs	"MAConnAddr:t(3,80)=(3,71)",128,0,690,0
	.stabs	"MAConnEventData:Tt(3,81)=s12handle:(3,10),0,32;opType:(0,3),32,32;result:(0,3),64,32;operator=::(3,82)=#(3,81),(3,83)=&(3,81),(3,84)=*(3,81),(3,85)=&(3,86)=k(3,81),(0,6);:_ZN15MAConnEventDataaSERKS_;2A.;__base_ctor::(3,87)=#(3,81),(0,6),(3,84),(3,85),(0,6);:_ZN15MAConnEventDataC2ERKS_;2A.;__comp_ctor::(3,87):_ZN15MAConnEventDataC1ERKS_;2A.;__base_ctor::(3,88)=#(3,81),(0,6),(3,84),(0,6);:_ZN15MAConnEventDataC2Ev;2A.;__comp_ctor::(3,88):_ZN15MAConnEventDataC1Ev;2A.;;",128,0,695,0
	.stabs	"MAConnEventData:t(3,89)=(3,81)",128,0,704,0
	.stabs	"MAEvent:Tt(3,90)=s16type:(0,3),0,32;:(3,91)=u12:(3,92)=s8key:(0,3),0,32;nativeKey:(0,3),32,32;;,0,64;character:(3,3),0,32;:(3,93)=s12point:(3,23),0,64;touchId:(0,3),64,32;;,0,96;state:(0,3),0,32;conn:(3,89),0,96;:(3,94)=s8textboxResult:(0,3),0,32;textboxLength:(0,3),32,32;;,0,64;data:(3,9),0,32;;,32,96;operator=::(3,95)=#(3,90),(3,96)=&(3,90),(3,97)=*(3,90),(3,98)=&(3,99)=k(3,90),(0,6);:_ZN7MAEventaSERKS_;2A.;__base_ctor::(3,100)=#(3,90),(0,6),(3,97),(3,98),(0,6);:_ZN7MAEventC2ERKS_;2A.;__comp_ctor::(3,100):_ZN7MAEventC1ERKS_;2A.;__base_ctor::(3,101)=#(3,90),(0,6),(3,97),(0,6);:_ZN7MAEventC2Ev;2A.;__comp_ctor::(3,101):_ZN7MAEventC1Ev;2A.;;",128,0,709,0
	.stabs	"MAEvent:t(3,102)=(3,90)",128,0,774,0
	.stabs	"MAPanicReport:Tt(3,103)=s24runtimeId:(0,3),0,32;reportType:(0,3),32,32;time:(0,3),64,32;ip:(0,3),96,32;code:(0,3),128,32;string:(3,104)=ar(3,53);0;0;(0,19),160,8;operator=::(3,105)=#(3,103),(3,106)=&(3,103),(3,107)=*(3,103),(3,108)=&(3,109)=k(3,103),(0,6);:_ZN13MAPanicReportaSERKS_;2A.;__base_ctor::(3,110)=#(3,103),(0,6),(3,107),(3,108),(0,6);:_ZN13MAPanicReportC2ERKS_;2A.;__comp_ctor::(3,110):_ZN13MAPanicReportC1ERKS_;2A.;__base_ctor::(3,111)=#(3,103),(0,6),(3,107),(0,6);:_ZN13MAPanicReportC2Ev;2A.;__comp_ctor::(3,111):_ZN13MAPanicReportC1Ev;2A.;;",128,0,795,0
	.stabs	"MAPanicReport:t(3,112)=(3,103)",128,0,817,0
	.stabs	"MABtDevice:Tt(3,113)=s20name:(3,5),0,32;nameBufSize:(0,3),32,32;actualNameLength:(0,3),64,32;address:(3,61),96,48;operator=::(3,114)=#(3,113),(3,115)=&(3,113),(3,116)=*(3,113),(3,117)=&(3,118)=k(3,113),(0,6);:_ZN10MABtDeviceaSERKS_;2A.;__base_ctor::(3,119)=#(3,113),(0,6),(3,116),(3,117),(0,6);:_ZN10MABtDeviceC2ERKS_;2A.;__comp_ctor::(3,119):_ZN10MABtDeviceC1ERKS_;2A.;__base_ctor::(3,120)=#(3,113),(0,6),(3,116),(0,6);:_ZN10MABtDeviceC2Ev;2A.;__comp_ctor::(3,120):_ZN10MABtDeviceC1Ev;2A.;;",128,0,822,0
	.stabs	"MABtDevice:t(3,121)=(3,113)",128,0,834,0
	.stabs	"MAUUID:Tt(3,122)=s16i:(3,123)=ar(3,53);0;3;(0,3),0,128;operator=::(3,124)=#(3,122),(3,125)=&(3,122),(3,126)=*(3,122),(3,127)=&(3,128)=k(3,122),(0,6);:_ZN6MAUUIDaSERKS_;2A.;__base_ctor::(3,129)=#(3,122),(0,6),(3,126),(3,127),(0,6);:_ZN6MAUUIDC2ERKS_;2A.;__comp_ctor::(3,129):_ZN6MAUUIDC1ERKS_;2A.;__base_ctor::(3,130)=#(3,122),(0,6),(3,126),(0,6);:_ZN6MAUUIDC2Ev;2A.;__comp_ctor::(3,130):_ZN6MAUUIDC1Ev;2A.;;",128,0,841,0
	.stabs	"MAUUID:t(3,131)=(3,122)",128,0,843,0
	.stabs	"MABtServiceSize:Tt(3,132)=s8nameBufSize:(0,3),0,32;nUuids:(0,3),32,32;operator=::(3,133)=#(3,132),(3,134)=&(3,132),(3,135)=*(3,132),(3,136)=&(3,137)=k(3,132),(0,6);:_ZN15MABtServiceSizeaSERKS_;2A.;__base_ctor::(3,138)=#(3,132),(0,6),(3,135),(3,136),(0,6);:_ZN15MABtServiceSizeC2ERKS_;2A.;__comp_ctor::(3,138):_ZN15MABtServiceSizeC1ERKS_;2A.;__base_ctor::(3,139)=#(3,132),(0,6),(3,135),(0,6);:_ZN15MABtServiceSizeC2Ev;2A.;__comp_ctor::(3,139):_ZN15MABtServiceSizeC1Ev;2A.;;",128,0,848,0
	.stabs	"MABtServiceSize:t(3,140)=(3,132)",128,0,859,0
	.stabs	"MABtService:Tt(3,141)=s16port:(0,3),0,32;name:(3,5),32,32;nameBufSize:(0,3),64,32;uuids:(3,142)=*(3,131),96,32;operator=::(3,143)=#(3,141),(3,144)=&(3,141),(3,145)=*(3,141),(3,146)=&(3,147)=k(3,141),(0,6);:_ZN11MABtServiceaSERKS_;2A.;__base_ctor::(3,148)=#(3,141),(0,6),(3,145),(3,146),(0,6);:_ZN11MABtServiceC2ERKS_;2A.;__comp_ctor::(3,148):_ZN11MABtServiceC1ERKS_;2A.;__base_ctor::(3,149)=#(3,141),(0,6),(3,145),(0,6);:_ZN11MABtServiceC2Ev;2A.;__comp_ctor::(3,149):_ZN11MABtServiceC1Ev;2A.;;",128,0,864,0
	.stabs	"MABtService:t(3,150)=(3,141)",128,0,887,0
	.stabs	"MALocation:Tt(3,151)=s40state:(0,3),0,32;lat:(0,8),32,64;lon:(0,8),96,64;horzAcc:(0,8),160,64;vertAcc:(0,8),224,64;alt:(0,9),288,32;operator=::(3,152)=#(3,151),(3,153)=&(3,151),(3,154)=*(3,151),(3,155)=&(3,156)=k(3,151),(0,6);:_ZN10MALocationaSERKS_;2A.;__base_ctor::(3,157)=#(3,151),(0,6),(3,154),(3,155),(0,6);:_ZN10MALocationC2ERKS_;2A.;__comp_ctor::(3,157):_ZN10MALocationC1ERKS_;2A.;__base_ctor::(3,158)=#(3,151),(0,6),(3,154),(0,6);:_ZN10MALocationC2Ev;2A.;__comp_ctor::(3,158):_ZN10MALocationC1Ev;2A.;;",128,0,907,0
	.stabs	"MALocation:t(3,159)=(3,151)",128,0,923,0
	.stabs	"MAFrameBufferInfo:Tt(3,160)=s64sizeInBytes:(0,3),0,32;bytesPerPixel:(0,3),32,32;bitsPerPixel:(0,3),64,32;redMask:(0,3),96,32;redShift:(0,3),128,32;redBits:(0,3),160,32;greenMask:(0,3),192,32;greenShift:(0,3),224,32;greenBits:(0,3),256,32;blueMask:(0,3),288,32;blueShift:(0,3),320,32;blueBits:(0,3),352,32;width:(0,3),384,32;height:(0,3),416,32;pitch:(0,3),448,32;supportsGfxSyscalls:(0,3),480,32;operator=::(3,161)=#(3,160),(3,162)=&(3,160),(3,163)=*(3,160),(3,164)=&(3,165)=k(3,160),(0,6);:_ZN17MAFrameBufferInfoaSERKS_;2A.;__base_ctor::(3,166)=#(3,160),(0,6),(3,163),(3,164),(0,6);:_ZN17MAFrameBufferInfoC2ERKS_;2A.;__comp_ctor::(3,166):_ZN17MAFrameBufferInfoC1ERKS_;2A.;__base_ctor::(3,167)=#(3,160),(0,6),(3,163),(0,6);:_ZN17MAFrameBufferInfoC2Ev;2A.;__comp_ctor::(3,167):_ZN17MAFrameBufferInfoC1Ev;2A.;;",128,0,930,0
	.stabs	"MAFrameBufferInfo:t(3,168)=(3,160)",128,0,947,0
	.stabs	"MA_CAMERA_FORMAT:Tt(3,169)=s8width:(0,3),0,32;height:(0,3),32,32;operator=::(3,170)=#(3,169),(3,171)=&(3,169),(3,172)=*(3,169),(3,173)=&(3,174)=k(3,169),(0,6);:_ZN16MA_CAMERA_FORMATaSERKS_;2A.;__base_ctor::(3,175)=#(3,169),(0,6),(3,172),(3,173),(0,6);:_ZN16MA_CAMERA_FORMATC2ERKS_;2A.;__comp_ctor::(3,175):_ZN16MA_CAMERA_FORMATC1ERKS_;2A.;__base_ctor::(3,176)=#(3,169),(0,6),(3,172),(0,6);:_ZN16MA_CAMERA_FORMATC2Ev;2A.;__comp_ctor::(3,176):_ZN16MA_CAMERA_FORMATC1Ev;2A.;;",128,0,952,0
	.stabs	"MA_CAMERA_FORMAT:t(3,177)=(3,169)",128,0,955,0
	.stabn	162,0,0,0
	.stabs	"size_t:t(2,1)=(0,16)",128,0,32,0
	.stabn	162,0,0,0
	.stabs	"c:/MoSync/include/MAUtil/Environment.h",130,0,0,0
	.stabs	"Environment::TimerEventInstance:Tt(5,1)=s20e:(5,2)=*(5,3)=xsTimerListener:,0,32;addTime:(0,3),32,32;period:(0,3),64,32;numTimes:(0,3),96,32;nextInvoke:(0,3),128,32;__base_ctor::(5,4)=#(5,1),(0,6),(5,5)=*(5,1),(5,2),(0,3),(0,3),(0,6);:_ZN6MAUtil11Environment18TimerEventInstanceC2EPNS_13TimerListenerEii;2A.;__comp_ctor::(5,4):_ZN6MAUtil11Environment18TimerEventInstanceC1EPNS_13TimerListenerEii;2A.;operator=::(5,6)=#(5,1),(5,7)=&(5,1),(5,5),(5,8)=&(5,9)=k(5,1),(0,6);:_ZN6MAUtil11Environment18TimerEventInstanceaSERKS1_;2A.;__base_ctor::(5,10)=#(5,1),(0,6),(5,5),(5,8),(0,6);:_ZN6MAUtil11Environment18TimerEventInstanceC2ERKS1_;2A.;__comp_ctor::(5,10):_ZN6MAUtil11Environment18TimerEventInstanceC1ERKS1_;2A.;;",128,0,409,0
	.stabs	"Vector<MAUtil::ListenerSet<MAUtil::KeyListener>::Combo>:Tt(5,11)=s12mSize:/1(0,3),0,32;mCapacity:/1(0,3),32,32;mData:/1(5,12)=*(5,13)=xsCombo:,64,32;__base_ctor::(5,14)=#(5,11),(0,6),(5,15)=*(5,11),(0,3),(0,6);:_ZN6MAUtil6VectorINS_11ListenerSetINS_11KeyListenerEE5ComboEEC2Ei;2A.;__comp_ctor::(5,14):_ZN6MAUtil6VectorINS_11ListenerSetINS_11KeyListenerEE5ComboEEC1Ei;2A.;__base_ctor::(5,16)=#(5,11),(0,6),(5,15),(5,17)=*(5,18)=k(5,13),(0,3),(0,6);:_ZN6MAUtil6VectorINS_11ListenerSetINS_11KeyListenerEE5ComboEEC2EPKS4_i;2A.;__comp_ctor::(5,16):_ZN6MAUtil6VectorINS_11ListenerSetINS_11KeyListenerEE5ComboEEC1EPKS4_i;2A.;__base_ctor::(5,19)=#(5,11),(0,6),(5,15),(5,20)=&(5,21)=k(5,11),(0,6);:_ZN6MAUtil6VectorINS_11ListenerSetINS_11KeyListenerEE5ComboEEC2ERKS5_;2A.;__comp_ctor::(5,19):_ZN6MAUtil6VectorINS_11ListenerSetINS_11KeyListenerEE5ComboEEC1ERKS5_;2A.;__base_dtor::(5,22)=#(5,11),(0,6),(5,15),(0,6);:_ZN6MAUtil6VectorINS_11ListenerSetINS_11KeyListenerEE5ComboEED2Ev;2A.;__comp_dtor::(5,22):_ZN6MAUtil6VectorINS_11ListenerSetINS_11KeyListenerEE5ComboEED1Ev;2A.;operator=::(5,23)=#(5,11),(5,24)=&(5,11),(5,15),(5,20),(0,6);:_ZN6MAUtil6VectorINS_11ListenerSetINS_11KeyListenerEE5ComboEEaSERKS5_;2A.;add::(5,25)=#(5,11),(0,6),(5,15),(5,26)=&(5,18),(0,6);:_ZN6MAUtil6VectorINS_11ListenerSetINS_11KeyListenerEE5ComboEE3addERKS4_;2A.(5,16):_ZN6MAUtil6VectorINS_11ListenerSetINS_11KeyListenerEE5ComboEE3addEPKS4_i;2A.;remove::(5,27)=#(5,11),(0,6),(5,15),(5,12),(0,6);:_ZN6MAUtil6VectorINS_11ListenerSetINS_11KeyListenerEE5ComboEE6removeEPS4_;2A.(5,28)=#(5,11),(0,6),(5,15),(0,3),(0,6);:_ZN6MAUtil6VectorINS_11ListenerSetINS_11KeyListenerEE5ComboEE6removeEi;2A.(5,29)=#(5,11),(0,6),(5,15),(0,3),(0,3),(0,6);:_ZN6MAUtil6VectorINS_11ListenerSetINS_11KeyListenerEE5ComboEE6removeEii;2A.;insert::(5,30)=#(5,11),(0,6),(5,15),(0,3),(5,13),(0,6);:_ZN6MAUtil6VectorINS_11ListenerSetINS_11KeyListenerEE5ComboEE6insertEiS4_;2A.;size::(5,31)=#(5,11),(0,3),(5,32)=*(5,21),(0,6);:_ZNK6MAUtil6VectorINS_11ListenerSetINS_11KeyListenerEE5ComboEE4sizeEv;2B.;resize::(5,28):_ZN6MAUtil6VectorINS_11ListenerSetINS_11KeyListenerEE5ComboEE6resizeEi;2A.;reserve::(5,28):_ZN6MAUtil6VectorINS_11ListenerSetINS_11KeyListenerEE5ComboEE7reserveEi;2A.;clear::(5,22):_ZN6MAUtil6VectorINS_11ListenerSetINS_11KeyListenerEE5ComboEE5clearEv;2A.;empty::(5,33)=#(5,11),(0,4),(5,32),(0,6);:_ZNK6MAUtil6VectorINS_11ListenerSetINS_11KeyListenerEE5ComboEE5emptyEv;2B.;capacity::(5,31):_ZNK6MAUtil6VectorINS_11ListenerSetINS_11KeyListenerEE5ComboEE8capacityEv;2B.;begin::(5,34)=#(5,11),(5,12),(5,15),(0,6);:_ZN6MAUtil6VectorINS_11ListenerSetINS_11KeyListenerEE5ComboEE5beginEv;2A.;end::(5,34):_ZN6MAUtil6VectorINS_11ListenerSetINS_11KeyListenerEE5ComboEE3endEv;2A.;begin::(5,35)=#(5,11),(5,17),(5,32),(0,6);:_ZNK6MAUtil6VectorINS_11ListenerSetINS_11KeyListenerEE5ComboEE5beginEv;2B.;end::(5,35):_ZNK6MAUtil6VectorINS_11ListenerSetINS_11KeyListenerEE5ComboEE3endEv;2B.;operator[]::(5,36)=#(5,11),(5,37)=&(5,13),(5,15),(0,3),(0,6);:_ZN6MAUtil6VectorINS_11ListenerSetINS_11KeyListenerEE5ComboEEixEi;2A.(5,38)=#(5,11),(5,26),(5,32),(0,3),(0,6);:_ZNK6MAUtil6VectorINS_11ListenerSetINS_11KeyListenerEE5ComboEEixEi;2B.;pointer::(5,35):_ZNK6MAUtil6VectorINS_11ListenerSetINS_11KeyListenerEE5ComboEE7pointerEv;2B.(5,34):_ZN6MAUtil6VectorINS_11ListenerSetINS_11KeyListenerEE5ComboEE7pointerEv;2A.;;",128,0,94,0
	.stabs	"ListenerSet<MAUtil::KeyListener>:Tt(5,39)=s16mRunning:/0(0,4),0,8;mUpdateRequired:/0(0,4),8,8;mShouldDelete:/0(0,4),16,8;mVec:/0(5,11),32,96;__base_ctor::(5,40)=#(5,39),(0,6),(5,41)=*(5,39),(0,4),(0,6);:_ZN6MAUtil11ListenerSetINS_11KeyListenerEEC2Eb;2A.;__comp_ctor::(5,40):_ZN6MAUtil11ListenerSetINS_11KeyListenerEEC1Eb;2A.;begin::(5,42)=#(5,39),(5,43)=xsiterator:,(5,41),(0,6);:_ZN6MAUtil11ListenerSetINS_11KeyListenerEE5beginEv;2A.;add::(5,44)=#(5,39),(0,6),(5,41),(5,45)=*(5,46)=xsKeyListener:,(0,6);:_ZN6MAUtil11ListenerSetINS_11KeyListenerEE3addEPS1_;2A.;remove::(5,44):_ZN6MAUtil11ListenerSetINS_11KeyListenerEE6removeEPS1_;2A.;contains::(5,47)=#(5,39),(0,4),(5,41),(5,45),(0,6);:_ZN6MAUtil11ListenerSetINS_11KeyListenerEE8containsEPS1_;2A.;setRunning::(5,48)=#(5,39),(0,6),(5,41),(0,4),(0,6);:_ZN6MAUtil11ListenerSetINS_11KeyListenerEE10setRunningEb;2A.;size::(5,49)=#(5,39),(0,3),(5,50)=*(5,51)=k(5,39),(0,6);:_ZNK6MAUtil11ListenerSetINS_11KeyListenerEE4sizeEv;2B.;operator=::(5,52)=#(5,39),(5,53)=&(5,39),(5,41),(5,54)=&(5,51),(0,6);:_ZN6MAUtil11ListenerSetINS_11KeyListenerEEaSERKS2_;2A.;__base_ctor::(5,55)=#(5,39),(0,6),(5,41),(5,54),(0,6);:_ZN6MAUtil11ListenerSetINS_11KeyListenerEEC2ERKS2_;2A.;__comp_ctor::(5,55):_ZN6MAUtil11ListenerSetINS_11KeyListenerEEC1ERKS2_;2A.;__base_dtor::(5,56)=#(5,39),(0,6),(5,41),(0,6);:_ZN6MAUtil11ListenerSetINS_11KeyListenerEED2Ev;2A.;__comp_dtor::(5,56):_ZN6MAUtil11ListenerSetINS_11KeyListenerEED1Ev;2A.;;",128,0,46,0
	.stabs	"Vector<MAUtil::ListenerSet<MAUtil::PointerListener>::Combo>:Tt(5,57)=s12mSize:/1(0,3),0,32;mCapacity:/1(0,3),32,32;mData:/1(5,58)=*(5,59)=xsCombo:,64,32;__base_ctor::(5,60)=#(5,57),(0,6),(5,61)=*(5,57),(0,3),(0,6);:_ZN6MAUtil6VectorINS_11ListenerSetINS_15PointerListenerEE5ComboEEC2Ei;2A.;__comp_ctor::(5,60):_ZN6MAUtil6VectorINS_11ListenerSetINS_15PointerListenerEE5ComboEEC1Ei;2A.;__base_ctor::(5,62)=#(5,57),(0,6),(5,61),(5,63)=*(5,64)=k(5,59),(0,3),(0,6);:_ZN6MAUtil6VectorINS_11ListenerSetINS_15PointerListenerEE5ComboEEC2EPKS4_i;2A.;__comp_ctor::(5,62):_ZN6MAUtil6VectorINS_11ListenerSetINS_15PointerListenerEE5ComboEEC1EPKS4_i;2A.;__base_ctor::(5,65)=#(5,57),(0,6),(5,61),(5,66)=&(5,67)=k(5,57),(0,6);:_ZN6MAUtil6VectorINS_11ListenerSetINS_15PointerListenerEE5ComboEEC2ERKS5_;2A.;__comp_ctor::(5,65):_ZN6MAUtil6VectorINS_11ListenerSetINS_15PointerListenerEE5ComboEEC1ERKS5_;2A.;__base_dtor::(5,68)=#(5,57),(0,6),(5,61),(0,6);:_ZN6MAUtil6VectorINS_11ListenerSetINS_15PointerListenerEE5ComboEED2Ev;2A.;__comp_dtor::(5,68):_ZN6MAUtil6VectorINS_11ListenerSetINS_15PointerListenerEE5ComboEED1Ev;2A.;operator=::(5,69)=#(5,57),(5,70)=&(5,57),(5,61),(5,66),(0,6);:_ZN6MAUtil6VectorINS_11ListenerSetINS_15PointerListenerEE5ComboEEaSERKS5_;2A.;add::(5,71)=#(5,57),(0,6),(5,61),(5,72)=&(5,64),(0,6);:_ZN6MAUtil6VectorINS_11ListenerSetINS_15PointerListenerEE5ComboEE3addERKS4_;2A.(5,62):_ZN6MAUtil6VectorINS_11ListenerSetINS_15PointerListenerEE5ComboEE3addEPKS4_i;2A.;remove::(5,73)=#(5,57),(0,6),(5,61),(5,58),(0,6);:_ZN6MAUtil6VectorINS_11ListenerSetINS_15PointerListenerEE5ComboEE6removeEPS4_;2A.(5,74)=#(5,57),(0,6),(5,61),(0,3),(0,6);:_ZN6MAUtil6VectorINS_11ListenerSetINS_15PointerListenerEE5ComboEE6removeEi;2A.(5,75)=#(5,57),(0,6),(5,61),(0,3),(0,3),(0,6);:_ZN6MAUtil6VectorINS_11ListenerSetINS_15PointerListenerEE5ComboEE6removeEii;2A.;insert::(5,76)=#(5,57),(0,6),(5,61),(0,3),(5,59),(0,6);:_ZN6MAUtil6VectorINS_11ListenerSetINS_15PointerListenerEE5ComboEE6insertEiS4_;2A.;size::(5,77)=#(5,57),(0,3),(5,78)=*(5,67),(0,6);:_ZNK6MAUtil6VectorINS_11ListenerSetINS_15PointerListenerEE5ComboEE4sizeEv;2B.;resize::(5,74):_ZN6MAUtil6VectorINS_11ListenerSetINS_15PointerListenerEE5ComboEE6resizeEi;2A.;reserve::(5,74):_ZN6MAUtil6VectorINS_11ListenerSetINS_15PointerListenerEE5ComboEE7reserveEi;2A.;clear::(5,68):_ZN6MAUtil6VectorINS_11ListenerSetINS_15PointerListenerEE5ComboEE5clearEv;2A.;empty::(5,79)=#(5,57),(0,4),(5,78),(0,6);:_ZNK6MAUtil6VectorINS_11ListenerSetINS_15PointerListenerEE5ComboEE5emptyEv;2B.;capacity::(5,77):_ZNK6MAUtil6VectorINS_11ListenerSetINS_15PointerListenerEE5ComboEE8capacityEv;2B.;begin::(5,80)=#(5,57),(5,58),(5,61),(0,6);:_ZN6MAUtil6VectorINS_11ListenerSetINS_15PointerListenerEE5ComboEE5beginEv;2A.;end::(5,80):_ZN6MAUtil6VectorINS_11ListenerSetINS_15PointerListenerEE5ComboEE3endEv;2A.;begin::(5,81)=#(5,57),(5,63),(5,78),(0,6);:_ZNK6MAUtil6VectorINS_11ListenerSetINS_15PointerListenerEE5ComboEE5beginEv;2B.;end::(5,81):_ZNK6MAUtil6VectorINS_11ListenerSetINS_15PointerListenerEE5ComboEE3endEv;2B.;operator[]::(5,82)=#(5,57),(5,83)=&(5,59),(5,61),(0,3),(0,6);:_ZN6MAUtil6VectorINS_11ListenerSetINS_15PointerListenerEE5ComboEEixEi;2A.(5,84)=#(5,57),(5,72),(5,78),(0,3),(0,6);:_ZNK6MAUtil6VectorINS_11ListenerSetINS_15PointerListenerEE5ComboEEixEi;2B.;pointer::(5,81):_ZNK6MAUtil6VectorINS_11ListenerSetINS_15PointerListenerEE5ComboEE7pointerEv;2B.(5,80):_ZN6MAUtil6VectorINS_11ListenerSetINS_15PointerListenerEE5ComboEE7pointerEv;2A.;;",128,0,94,0
	.stabs	"ListenerSet<MAUtil::PointerListener>:Tt(5,85)=s16mRunning:/0(0,4),0,8;mUpdateRequired:/0(0,4),8,8;mShouldDelete:/0(0,4),16,8;mVec:/0(5,57),32,96;__base_ctor::(5,86)=#(5,85),(0,6),(5,87)=*(5,85),(0,4),(0,6);:_ZN6MAUtil11ListenerSetINS_15PointerListenerEEC2Eb;2A.;__comp_ctor::(5,86):_ZN6MAUtil11ListenerSetINS_15PointerListenerEEC1Eb;2A.;begin::(5,88)=#(5,85),(5,89)=xsiterator:,(5,87),(0,6);:_ZN6MAUtil11ListenerSetINS_15PointerListenerEE5beginEv;2A.;add::(5,90)=#(5,85),(0,6),(5,87),(5,91)=*(5,92)=xsPointerListener:,(0,6);:_ZN6MAUtil11ListenerSetINS_15PointerListenerEE3addEPS1_;2A.;remove::(5,90):_ZN6MAUtil11ListenerSetINS_15PointerListenerEE6removeEPS1_;2A.;contains::(5,93)=#(5,85),(0,4),(5,87),(5,91),(0,6);:_ZN6MAUtil11ListenerSetINS_15PointerListenerEE8containsEPS1_;2A.;setRunning::(5,94)=#(5,85),(0,6),(5,87),(0,4),(0,6);:_ZN6MAUtil11ListenerSetINS_15PointerListenerEE10setRunningEb;2A.;size::(5,95)=#(5,85),(0,3),(5,96)=*(5,97)=k(5,85),(0,6);:_ZNK6MAUtil11ListenerSetINS_15PointerListenerEE4sizeEv;2B.;operator=::(5,98)=#(5,85),(5,99)=&(5,85),(5,87),(5,100)=&(5,97),(0,6);:_ZN6MAUtil11ListenerSetINS_15PointerListenerEEaSERKS2_;2A.;__base_ctor::(5,101)=#(5,85),(0,6),(5,87),(5,100),(0,6);:_ZN6MAUtil11ListenerSetINS_15PointerListenerEEC2ERKS2_;2A.;__comp_ctor::(5,101):_ZN6MAUtil11ListenerSetINS_15PointerListenerEEC1ERKS2_;2A.;__base_dtor::(5,102)=#(5,85),(0,6),(5,87),(0,6);:_ZN6MAUtil11ListenerSetINS_15PointerListenerEED2Ev;2A.;__comp_dtor::(5,102):_ZN6MAUtil11ListenerSetINS_15PointerListenerEED1Ev;2A.;;",128,0,46,0
	.stabs	"Vector<MAUtil::CloseListener*>:Tt(5,103)=s12mSize:/1(0,3),0,32;mCapacity:/1(0,3),32,32;mData:/1(5,104)=*(5,105)=*(5,106)=xsCloseListener:,64,32;__base_ctor::(5,107)=#(5,103),(0,6),(5,108)=*(5,103),(0,3),(0,6);:_ZN6MAUtil6VectorIPNS_13CloseListenerEEC2Ei;2A.;__comp_ctor::(5,107):_ZN6MAUtil6VectorIPNS_13CloseListenerEEC1Ei;2A.;__base_ctor::(5,109)=#(5,103),(0,6),(5,108),(5,110)=*(5,111)=k(5,105),(0,3),(0,6);:_ZN6MAUtil6VectorIPNS_13CloseListenerEEC2EPKS2_i;2A.;__comp_ctor::(5,109):_ZN6MAUtil6VectorIPNS_13CloseListenerEEC1EPKS2_i;2A.;__base_ctor::(5,112)=#(5,103),(0,6),(5,108),(5,113)=&(5,114)=k(5,103),(0,6);:_ZN6MAUtil6VectorIPNS_13CloseListenerEEC2ERKS3_;2A.;__comp_ctor::(5,112):_ZN6MAUtil6VectorIPNS_13CloseListenerEEC1ERKS3_;2A.;__base_dtor::(5,115)=#(5,103),(0,6),(5,108),(0,6);:_ZN6MAUtil6VectorIPNS_13CloseListenerEED2Ev;2A.;__comp_dtor::(5,115):_ZN6MAUtil6VectorIPNS_13CloseListenerEED1Ev;2A.;operator=::(5,116)=#(5,103),(5,117)=&(5,103),(5,108),(5,113),(0,6);:_ZN6MAUtil6VectorIPNS_13CloseListenerEEaSERKS3_;2A.;add::(5,118)=#(5,103),(0,6),(5,108),(5,119)=&(5,111),(0,6);:_ZN6MAUtil6VectorIPNS_13CloseListenerEE3addERKS2_;2A.(5,109):_ZN6MAUtil6VectorIPNS_13CloseListenerEE3addEPKS2_i;2A.;remove::(5,120)=#(5,103),(0,6),(5,108),(5,104),(0,6);:_ZN6MAUtil6VectorIPNS_13CloseListenerEE6removeEPS2_;2A.(5,121)=#(5,103),(0,6),(5,108),(0,3),(0,6);:_ZN6MAUtil6VectorIPNS_13CloseListenerEE6removeEi;2A.(5,122)=#(5,103),(0,6),(5,108),(0,3),(0,3),(0,6);:_ZN6MAUtil6VectorIPNS_13CloseListenerEE6removeEii;2A.;insert::(5,123)=#(5,103),(0,6),(5,108),(0,3),(5,105),(0,6);:_ZN6MAUtil6VectorIPNS_13CloseListenerEE6insertEiS2_;2A.;size::(5,124)=#(5,103),(0,3),(5,125)=*(5,114),(0,6);:_ZNK6MAUtil6VectorIPNS_13CloseListenerEE4sizeEv;2B.;resize::(5,121):_ZN6MAUtil6VectorIPNS_13CloseListenerEE6resizeEi;2A.;reserve::(5,121):_ZN6MAUtil6VectorIPNS_13CloseListenerEE7reserveEi;2A.;clear::(5,115):_ZN6MAUtil6VectorIPNS_13CloseListenerEE5clearEv;2A.;empty::(5,126)=#(5,103),(0,4),(5,125),(0,6);:_ZNK6MAUtil6VectorIPNS_13CloseListenerEE5emptyEv;2B.;capacity::(5,124):_ZNK6MAUtil6VectorIPNS_13CloseListenerEE8capacityEv;2B.;begin::(5,127)=#(5,103),(5,104),(5,108),(0,6);:_ZN6MAUtil6VectorIPNS_13CloseListenerEE5beginEv;2A.;end::(5,127):_ZN6MAUtil6VectorIPNS_13CloseListenerEE3endEv;2A.;begin::(5,128)=#(5,103),(5,110),(5,125),(0,6);:_ZNK6MAUtil6VectorIPNS_13CloseListenerEE5beginEv;2B.;end::(5,128):_ZNK6MAUtil6VectorIPNS_13CloseListenerEE3endEv;2B.;operator[]::(5,129)=#(5,103),(5,130)=&(5,105),(5,108),(0,3),(0,6);:_ZN6MAUtil6VectorIPNS_13CloseListenerEEixEi;2A.(5,131)=#(5,103),(5,119),(5,125),(0,3),(0,6);:_ZNK6MAUtil6VectorIPNS_13CloseListenerEEixEi;2B.;pointer::(5,128):_ZNK6MAUtil6VectorIPNS_13CloseListenerEE7pointerEv;2B.(5,127):_ZN6MAUtil6VectorIPNS_13CloseListenerEE7pointerEv;2A.;;",128,0,94,0
	.stabs	"Vector<MAUtil::ListenerSet<MAUtil::ConnListener>::Combo>:Tt(5,132)=s12mSize:/1(0,3),0,32;mCapacity:/1(0,3),32,32;mData:/1(5,133)=*(5,134)=xsCombo:,64,32;__base_ctor::(5,135)=#(5,132),(0,6),(5,136)=*(5,132),(0,3),(0,6);:_ZN6MAUtil6VectorINS_11ListenerSetINS_12ConnListenerEE5ComboEEC2Ei;2A.;__comp_ctor::(5,135):_ZN6MAUtil6VectorINS_11ListenerSetINS_12ConnListenerEE5ComboEEC1Ei;2A.;__base_ctor::(5,137)=#(5,132),(0,6),(5,136),(5,138)=*(5,139)=k(5,134),(0,3),(0,6);:_ZN6MAUtil6VectorINS_11ListenerSetINS_12ConnListenerEE5ComboEEC2EPKS4_i;2A.;__comp_ctor::(5,137):_ZN6MAUtil6VectorINS_11ListenerSetINS_12ConnListenerEE5ComboEEC1EPKS4_i;2A.;__base_ctor::(5,140)=#(5,132),(0,6),(5,136),(5,141)=&(5,142)=k(5,132),(0,6);:_ZN6MAUtil6VectorINS_11ListenerSetINS_12ConnListenerEE5ComboEEC2ERKS5_;2A.;__comp_ctor::(5,140):_ZN6MAUtil6VectorINS_11ListenerSetINS_12ConnListenerEE5ComboEEC1ERKS5_;2A.;__base_dtor::(5,143)=#(5,132),(0,6),(5,136),(0,6);:_ZN6MAUtil6VectorINS_11ListenerSetINS_12ConnListenerEE5ComboEED2Ev;2A.;__comp_dtor::(5,143):_ZN6MAUtil6VectorINS_11ListenerSetINS_12ConnListenerEE5ComboEED1Ev;2A.;operator=::(5,144)=#(5,132),(5,145)=&(5,132),(5,136),(5,141),(0,6);:_ZN6MAUtil6VectorINS_11ListenerSetINS_12ConnListenerEE5ComboEEaSERKS5_;2A.;add::(5,146)=#(5,132),(0,6),(5,136),(5,147)=&(5,139),(0,6);:_ZN6MAUtil6VectorINS_11ListenerSetINS_12ConnListenerEE5ComboEE3addERKS4_;2A.(5,137):_ZN6MAUtil6VectorINS_11ListenerSetINS_12ConnListenerEE5ComboEE3addEPKS4_i;2A.;remove::(5,148)=#(5,132),(0,6),(5,136),(5,133),(0,6);:_ZN6MAUtil6VectorINS_11ListenerSetINS_12ConnListenerEE5ComboEE6removeEPS4_;2A.(5,149)=#(5,132),(0,6),(5,136),(0,3),(0,6);:_ZN6MAUtil6VectorINS_11ListenerSetINS_12ConnListenerEE5ComboEE6removeEi;2A.(5,150)=#(5,132),(0,6),(5,136),(0,3),(0,3),(0,6);:_ZN6MAUtil6VectorINS_11ListenerSetINS_12ConnListenerEE5ComboEE6removeEii;2A.;insert::(5,151)=#(5,132),(0,6),(5,136),(0,3),(5,134),(0,6);:_ZN6MAUtil6VectorINS_11ListenerSetINS_12ConnListenerEE5ComboEE6insertEiS4_;2A.;size::(5,152)=#(5,132),(0,3),(5,153)=*(5,142),(0,6);:_ZNK6MAUtil6VectorINS_11ListenerSetINS_12ConnListenerEE5ComboEE4sizeEv;2B.;resize::(5,149):_ZN6MAUtil6VectorINS_11ListenerSetINS_12ConnListenerEE5ComboEE6resizeEi;2A.;reserve::(5,149):_ZN6MAUtil6VectorINS_11ListenerSetINS_12ConnListenerEE5ComboEE7reserveEi;2A.;clear::(5,143):_ZN6MAUtil6VectorINS_11ListenerSetINS_12ConnListenerEE5ComboEE5clearEv;2A.;empty::(5,154)=#(5,132),(0,4),(5,153),(0,6);:_ZNK6MAUtil6VectorINS_11ListenerSetINS_12ConnListenerEE5ComboEE5emptyEv;2B.;capacity::(5,152):_ZNK6MAUtil6VectorINS_11ListenerSetINS_12ConnListenerEE5ComboEE8capacityEv;2B.;begin::(5,155)=#(5,132),(5,133),(5,136),(0,6);:_ZN6MAUtil6VectorINS_11ListenerSetINS_12ConnListenerEE5ComboEE5beginEv;2A.;end::(5,155):_ZN6MAUtil6VectorINS_11ListenerSetINS_12ConnListenerEE5ComboEE3endEv;2A.;begin::(5,156)=#(5,132),(5,138),(5,153),(0,6);:_ZNK6MAUtil6VectorINS_11ListenerSetINS_12ConnListenerEE5ComboEE5beginEv;2B.;end::(5,156):_ZNK6MAUtil6VectorINS_11ListenerSetINS_12ConnListenerEE5ComboEE3endEv;2B.;operator[]::(5,157)=#(5,132),(5,158)=&(5,134),(5,136),(0,3),(0,6);:_ZN6MAUtil6VectorINS_11ListenerSetINS_12ConnListenerEE5ComboEEixEi;2A.(5,159)=#(5,132),(5,147),(5,153),(0,3),(0,6);:_ZNK6MAUtil6VectorINS_11ListenerSetINS_12ConnListenerEE5ComboEEixEi;2B.;pointer::(5,156):_ZNK6MAUtil6VectorINS_11ListenerSetINS_12ConnListenerEE5ComboEE7pointerEv;2B.(5,155):_ZN6MAUtil6VectorINS_11ListenerSetINS_12ConnListenerEE5ComboEE7pointerEv;2A.;;",128,0,94,0
	.stabs	"ListenerSet<MAUtil::ConnListener>:Tt(5,160)=s16mRunning:/0(0,4),0,8;mUpdateRequired:/0(0,4),8,8;mShouldDelete:/0(0,4),16,8;mVec:/0(5,132),32,96;__base_ctor::(5,161)=#(5,160),(0,6),(5,162)=*(5,160),(0,4),(0,6);:_ZN6MAUtil11ListenerSetINS_12ConnListenerEEC2Eb;2A.;__comp_ctor::(5,161):_ZN6MAUtil11ListenerSetINS_12ConnListenerEEC1Eb;2A.;begin::(5,163)=#(5,160),(5,164)=xsiterator:,(5,162),(0,6);:_ZN6MAUtil11ListenerSetINS_12ConnListenerEE5beginEv;2A.;add::(5,165)=#(5,160),(0,6),(5,162),(5,166)=*(5,167)=xsConnListener:,(0,6);:_ZN6MAUtil11ListenerSetINS_12ConnListenerEE3addEPS1_;2A.;remove::(5,165):_ZN6MAUtil11ListenerSetINS_12ConnListenerEE6removeEPS1_;2A.;contains::(5,168)=#(5,160),(0,4),(5,162),(5,166),(0,6);:_ZN6MAUtil11ListenerSetINS_12ConnListenerEE8containsEPS1_;2A.;setRunning::(5,169)=#(5,160),(0,6),(5,162),(0,4),(0,6);:_ZN6MAUtil11ListenerSetINS_12ConnListenerEE10setRunningEb;2A.;size::(5,170)=#(5,160),(0,3),(5,171)=*(5,172)=k(5,160),(0,6);:_ZNK6MAUtil11ListenerSetINS_12ConnListenerEE4sizeEv;2B.;operator=::(5,173)=#(5,160),(5,174)=&(5,160),(5,162),(5,175)=&(5,172),(0,6);:_ZN6MAUtil11ListenerSetINS_12ConnListenerEEaSERKS2_;2A.;__base_ctor::(5,176)=#(5,160),(0,6),(5,162),(5,175),(0,6);:_ZN6MAUtil11ListenerSetINS_12ConnListenerEEC2ERKS2_;2A.;__comp_ctor::(5,176):_ZN6MAUtil11ListenerSetINS_12ConnListenerEEC1ERKS2_;2A.;__base_dtor::(5,177)=#(5,160),(0,6),(5,162),(0,6);:_ZN6MAUtil11ListenerSetINS_12ConnListenerEED2Ev;2A.;__comp_dtor::(5,177):_ZN6MAUtil11ListenerSetINS_12ConnListenerEED1Ev;2A.;;",128,0,46,0
	.stabs	"Vector<MAUtil::ListenerSet<MAUtil::IdleListener>::Combo>:Tt(5,178)=s12mSize:/1(0,3),0,32;mCapacity:/1(0,3),32,32;mData:/1(5,179)=*(5,180)=xsCombo:,64,32;__base_ctor::(5,181)=#(5,178),(0,6),(5,182)=*(5,178),(0,3),(0,6);:_ZN6MAUtil6VectorINS_11ListenerSetINS_12IdleListenerEE5ComboEEC2Ei;2A.;__comp_ctor::(5,181):_ZN6MAUtil6VectorINS_11ListenerSetINS_12IdleListenerEE5ComboEEC1Ei;2A.;__base_ctor::(5,183)=#(5,178),(0,6),(5,182),(5,184)=*(5,185)=k(5,180),(0,3),(0,6);:_ZN6MAUtil6VectorINS_11ListenerSetINS_12IdleListenerEE5ComboEEC2EPKS4_i;2A.;__comp_ctor::(5,183):_ZN6MAUtil6VectorINS_11ListenerSetINS_12IdleListenerEE5ComboEEC1EPKS4_i;2A.;__base_ctor::(5,186)=#(5,178),(0,6),(5,182),(5,187)=&(5,188)=k(5,178),(0,6);:_ZN6MAUtil6VectorINS_11ListenerSetINS_12IdleListenerEE5ComboEEC2ERKS5_;2A.;__comp_ctor::(5,186):_ZN6MAUtil6VectorINS_11ListenerSetINS_12IdleListenerEE5ComboEEC1ERKS5_;2A.;__base_dtor::(5,189)=#(5,178),(0,6),(5,182),(0,6);:_ZN6MAUtil6VectorINS_11ListenerSetINS_12IdleListenerEE5ComboEED2Ev;2A.;__comp_dtor::(5,189):_ZN6MAUtil6VectorINS_11ListenerSetINS_12IdleListenerEE5ComboEED1Ev;2A.;operator=::(5,190)=#(5,178),(5,191)=&(5,178),(5,182),(5,187),(0,6);:_ZN6MAUtil6VectorINS_11ListenerSetINS_12IdleListenerEE5ComboEEaSERKS5_;2A.;add::(5,192)=#(5,178),(0,6),(5,182),(5,193)=&(5,185),(0,6);:_ZN6MAUtil6VectorINS_11ListenerSetINS_12IdleListenerEE5ComboEE3addERKS4_;2A.(5,183):_ZN6MAUtil6VectorINS_11ListenerSetINS_12IdleListenerEE5ComboEE3addEPKS4_i;2A.;remove::(5,194)=#(5,178),(0,6),(5,182),(5,179),(0,6);:_ZN6MAUtil6VectorINS_11ListenerSetINS_12IdleListenerEE5ComboEE6removeEPS4_;2A.(5,195)=#(5,178),(0,6),(5,182),(0,3),(0,6);:_ZN6MAUtil6VectorINS_11ListenerSetINS_12IdleListenerEE5ComboEE6removeEi;2A.(5,196)=#(5,178),(0,6),(5,182),(0,3),(0,3),(0,6);:_ZN6MAUtil6VectorINS_11ListenerSetINS_12IdleListenerEE5ComboEE6removeEii;2A.;insert::(5,197)=#(5,178),(0,6),(5,182),(0,3),(5,180),(0,6);:_ZN6MAUtil6VectorINS_11ListenerSetINS_12IdleListenerEE5ComboEE6insertEiS4_;2A.;size::(5,198)=#(5,178),(0,3),(5,199)=*(5,188),(0,6);:_ZNK6MAUtil6VectorINS_11ListenerSetINS_12IdleListenerEE5ComboEE4sizeEv;2B.;resize::(5,195):_ZN6MAUtil6VectorINS_11ListenerSetINS_12IdleListenerEE5ComboEE6resizeEi;2A.;reserve::(5,195):_ZN6MAUtil6VectorINS_11ListenerSetINS_12IdleListenerEE5ComboEE7reserveEi;2A.;clear::(5,189):_ZN6MAUtil6VectorINS_11ListenerSetINS_12IdleListenerEE5ComboEE5clearEv;2A.;empty::(5,200)=#(5,178),(0,4),(5,199),(0,6);:_ZNK6MAUtil6VectorINS_11ListenerSetINS_12IdleListenerEE5ComboEE5emptyEv;2B.;capacity::(5,198):_ZNK6MAUtil6VectorINS_11ListenerSetINS_12IdleListenerEE5ComboEE8capacityEv;2B.;begin::(5,201)=#(5,178),(5,179),(5,182),(0,6);:_ZN6MAUtil6VectorINS_11ListenerSetINS_12IdleListenerEE5ComboEE5beginEv;2A.;end::(5,201):_ZN6MAUtil6VectorINS_11ListenerSetINS_12IdleListenerEE5ComboEE3endEv;2A.;begin::(5,202)=#(5,178),(5,184),(5,199),(0,6);:_ZNK6MAUtil6VectorINS_11ListenerSetINS_12IdleListenerEE5ComboEE5beginEv;2B.;end::(5,202):_ZNK6MAUtil6VectorINS_11ListenerSetINS_12IdleListenerEE5ComboEE3endEv;2B.;operator[]::(5,203)=#(5,178),(5,204)=&(5,180),(5,182),(0,3),(0,6);:_ZN6MAUtil6VectorINS_11ListenerSetINS_12IdleListenerEE5ComboEEixEi;2A.(5,205)=#(5,178),(5,193),(5,199),(0,3),(0,6);:_ZNK6MAUtil6VectorINS_11ListenerSetINS_12IdleListenerEE5ComboEEixEi;2B.;pointer::(5,202):_ZNK6MAUtil6VectorINS_11ListenerSetINS_12IdleListenerEE5ComboEE7pointerEv;2B.(5,201):_ZN6MAUtil6VectorINS_11ListenerSetINS_12IdleListenerEE5ComboEE7pointerEv;2A.;;",128,0,94,0
	.stabs	"ListenerSet<MAUtil::IdleListener>:Tt(5,206)=s16mRunning:/0(0,4),0,8;mUpdateRequired:/0(0,4),8,8;mShouldDelete:/0(0,4),16,8;mVec:/0(5,178),32,96;__base_ctor::(5,207)=#(5,206),(0,6),(5,208)=*(5,206),(0,4),(0,6);:_ZN6MAUtil11ListenerSetINS_12IdleListenerEEC2Eb;2A.;__comp_ctor::(5,207):_ZN6MAUtil11ListenerSetINS_12IdleListenerEEC1Eb;2A.;begin::(5,209)=#(5,206),(5,210)=xsiterator:,(5,208),(0,6);:_ZN6MAUtil11ListenerSetINS_12IdleListenerEE5beginEv;2A.;add::(5,211)=#(5,206),(0,6),(5,208),(5,212)=*(5,213)=xsIdleListener:,(0,6);:_ZN6MAUtil11ListenerSetINS_12IdleListenerEE3addEPS1_;2A.;remove::(5,211):_ZN6MAUtil11ListenerSetINS_12IdleListenerEE6removeEPS1_;2A.;contains::(5,214)=#(5,206),(0,4),(5,208),(5,212),(0,6);:_ZN6MAUtil11ListenerSetINS_12IdleListenerEE8containsEPS1_;2A.;setRunning::(5,215)=#(5,206),(0,6),(5,208),(0,4),(0,6);:_ZN6MAUtil11ListenerSetINS_12IdleListenerEE10setRunningEb;2A.;size::(5,216)=#(5,206),(0,3),(5,217)=*(5,218)=k(5,206),(0,6);:_ZNK6MAUtil11ListenerSetINS_12IdleListenerEE4sizeEv;2B.;operator=::(5,219)=#(5,206),(5,220)=&(5,206),(5,208),(5,221)=&(5,218),(0,6);:_ZN6MAUtil11ListenerSetINS_12IdleListenerEEaSERKS2_;2A.;__base_ctor::(5,222)=#(5,206),(0,6),(5,208),(5,221),(0,6);:_ZN6MAUtil11ListenerSetINS_12IdleListenerEEC2ERKS2_;2A.;__comp_ctor::(5,222):_ZN6MAUtil11ListenerSetINS_12IdleListenerEEC1ERKS2_;2A.;__base_dtor::(5,223)=#(5,206),(0,6),(5,208),(0,6);:_ZN6MAUtil11ListenerSetINS_12IdleListenerEED2Ev;2A.;__comp_dtor::(5,223):_ZN6MAUtil11ListenerSetINS_12IdleListenerEED1Ev;2A.;;",128,0,46,0
	.stabs	"Vector<MAUtil::ListenerSet<MAUtil::Environment::TimerEventInstance>::Combo>:Tt(5,224)=s12mSize:/1(0,3),0,32;mCapacity:/1(0,3),32,32;mData:/1(5,225)=*(5,226)=xsCombo:,64,32;__base_ctor::(5,227)=#(5,224),(0,6),(5,228)=*(5,224),(0,3),(0,6);:_ZN6MAUtil6VectorINS_11ListenerSetINS_11Environment18TimerEventInstanceEE5ComboEEC2Ei;2A.;__comp_ctor::(5,227):_ZN6MAUtil6VectorINS_11ListenerSetINS_11Environment18TimerEventInstanceEE5ComboEEC1Ei;2A.;__base_ctor::(5,229)=#(5,224),(0,6),(5,228),(5,230)=*(5,231)=k(5,226),(0,3),(0,6);:_ZN6MAUtil6VectorINS_11ListenerSetINS_11Environment18TimerEventInstanceEE5ComboEEC2EPKS5_i;2A.;__comp_ctor::(5,229):_ZN6MAUtil6VectorINS_11ListenerSetINS_11Environment18TimerEventInstanceEE5ComboEEC1EPKS5_i;2A.;__base_ctor::(5,232)=#(5,224),(0,6),(5,228),(5,233)=&(5,234)=k(5,224),(0,6);:_ZN6MAUtil6VectorINS_11ListenerSetINS_11Environment18TimerEventInstanceEE5ComboEEC2ERKS6_;2A.;__comp_ctor::(5,232):_ZN6MAUtil6VectorINS_11ListenerSetINS_11Environment18TimerEventInstanceEE5ComboEEC1ERKS6_;2A.;__base_dtor::(5,235)=#(5,224),(0,6),(5,228),(0,6);:_ZN6MAUtil6VectorINS_11ListenerSetINS_11Environment18TimerEventInstanceEE5ComboEED2Ev;2A.;__comp_dtor::(5,235):_ZN6MAUtil6VectorINS_11ListenerSetINS_11Environment18TimerEventInstanceEE5ComboEED1Ev;2A.;operator=::(5,236)=#(5,224),(5,237)=&(5,224),(5,228),(5,233),(0,6);:_ZN6MAUtil6VectorINS_11ListenerSetINS_11Environment18TimerEventInstanceEE5ComboEEaSERKS6_;2A.;add::(5,238)=#(5,224),(0,6),(5,228),(5,239)=&(5,231),(0,6);:_ZN6MAUtil6VectorINS_11ListenerSetINS_11Environment18TimerEventInstanceEE5ComboEE3addERKS5_;2A.(5,229):_ZN6MAUtil6VectorINS_11ListenerSetINS_11Environment18TimerEventInstanceEE5ComboEE3addEPKS5_i;2A.;remove::(5,240)=#(5,224),(0,6),(5,228),(5,225),(0,6);:_ZN6MAUtil6VectorINS_11ListenerSetINS_11Environment18TimerEventInstanceEE5ComboEE6removeEPS5_;2A.(5,241)=#(5,224),(0,6),(5,228),(0,3),(0,6);:_ZN6MAUtil6VectorINS_11ListenerSetINS_11Environment18TimerEventInstanceEE5ComboEE6removeEi;2A.(5,242)=#(5,224),(0,6),(5,228),(0,3),(0,3),(0,6);:_ZN6MAUtil6VectorINS_11ListenerSetINS_11Environment18TimerEventInstanceEE5ComboEE6removeEii;2A.;insert::(5,243)=#(5,224),(0,6),(5,228),(0,3),(5,226),(0,6);:_ZN6MAUtil6VectorINS_11ListenerSetINS_11Environment18TimerEventInstanceEE5ComboEE6insertEiS5_;2A.;size::(5,244)=#(5,224),(0,3),(5,245)=*(5,234),(0,6);:_ZNK6MAUtil6VectorINS_11ListenerSetINS_11Environment18TimerEventInstanceEE5ComboEE4sizeEv;2B.;resize::(5,241):_ZN6MAUtil6VectorINS_11ListenerSetINS_11Environment18TimerEventInstanceEE5ComboEE6resizeEi;2A.;reserve::(5,241):_ZN6MAUtil6VectorINS_11ListenerSetINS_11Environment18TimerEventInstanceEE5ComboEE7reserveEi;2A.;clear::(5,235):_ZN6MAUtil6VectorINS_11ListenerSetINS_11Environment18TimerEventInstanceEE5ComboEE5clearEv;2A.;empty::(5,246)=#(5,224),(0,4),(5,245),(0,6);:_ZNK6MAUtil6VectorINS_11ListenerSetINS_11Environment18TimerEventInstanceEE5ComboEE5emptyEv;2B.;capacity::(5,244):_ZNK6MAUtil6VectorINS_11ListenerSetINS_11Environment18TimerEventInstanceEE5ComboEE8capacityEv;2B.;begin::(5,247)=#(5,224),(5,225),(5,228),(0,6);:_ZN6MAUtil6VectorINS_11ListenerSetINS_11Environment18TimerEventInstanceEE5ComboEE5beginEv;2A.;end::(5,247):_ZN6MAUtil6VectorINS_11ListenerSetINS_11Environment18TimerEventInstanceEE5ComboEE3endEv;2A.;begin::(5,248)=#(5,224),(5,230),(5,245),(0,6);:_ZNK6MAUtil6VectorINS_11ListenerSetINS_11Environment18TimerEventInstanceEE5ComboEE5beginEv;2B.;end::(5,248):_ZNK6MAUtil6VectorINS_11ListenerSetINS_11Environment18TimerEventInstanceEE5ComboEE3endEv;2B.;operator[]::(5,249)=#(5,224),(5,250)=&(5,226),(5,228),(0,3),(0,6);:_ZN6MAUtil6VectorINS_11ListenerSetINS_11Environment18TimerEventInstanceEE5ComboEEixEi;2A.(5,251)=#(5,224),(5,239),(5,245),(0,3),(0,6);:_ZNK6MAUtil6VectorINS_11ListenerSetINS_11Environment18TimerEventInstanceEE5ComboEEixEi;2B.;pointer::(5,248):_ZNK6MAUtil6VectorINS_11ListenerSetINS_11Environment18TimerEventInstanceEE5ComboEE7pointerEv;2B.(5,247):_ZN6MAUtil6VectorINS_11ListenerSetINS_11Environment18TimerEventInstanceEE5ComboEE7pointerEv;2A.;;",128,0,94,0
	.stabs	"ListenerSet<MAUtil::Environment::TimerEventInstance>:Tt(5,252)=s16mRunning:/0(0,4),0,8;mUpdateRequired:/0(0,4),8,8;mShouldDelete:/0(0,4),16,8;mVec:/0(5,224),32,96;__base_ctor::(5,253)=#(5,252),(0,6),(5,254)=*(5,252),(0,4),(0,6);:_ZN6MAUtil11ListenerSetINS_11Environment18TimerEventInstanceEEC2Eb;2A.;__comp_ctor::(5,253):_ZN6MAUtil11ListenerSetINS_11Environment18TimerEventInstanceEEC1Eb;2A.;begin::(5,255)=#(5,252),(5,256)=xsiterator:,(5,254),(0,6);:_ZN6MAUtil11ListenerSetINS_11Environment18TimerEventInstanceEE5beginEv;2A.;add::(5,257)=#(5,252),(0,6),(5,254),(5,5),(0,6);:_ZN6MAUtil11ListenerSetINS_11Environment18TimerEventInstanceEE3addEPS2_;2A.;remove::(5,257):_ZN6MAUtil11ListenerSetINS_11Environment18TimerEventInstanceEE6removeEPS2_;2A.;contains::(5,258)=#(5,252),(0,4),(5,254),(5,5),(0,6);:_ZN6MAUtil11ListenerSetINS_11Environment18TimerEventInstanceEE8containsEPS2_;2A.;setRunning::(5,259)=#(5,252),(0,6),(5,254),(0,4),(0,6);:_ZN6MAUtil11ListenerSetINS_11Environment18TimerEventInstanceEE10setRunningEb;2A.;size::(5,260)=#(5,252),(0,3),(5,261)=*(5,262)=k(5,252),(0,6);:_ZNK6MAUtil11ListenerSetINS_11Environment18TimerEventInstanceEE4sizeEv;2B.;operator=::(5,263)=#(5,252),(5,264)=&(5,252),(5,254),(5,265)=&(5,262),(0,6);:_ZN6MAUtil11ListenerSetINS_11Environment18TimerEventInstanceEEaSERKS3_;2A.;__base_ctor::(5,266)=#(5,252),(0,6),(5,254),(5,265),(0,6);:_ZN6MAUtil11ListenerSetINS_11Environment18TimerEventInstanceEEC2ERKS3_;2A.;__comp_ctor::(5,266):_ZN6MAUtil11ListenerSetINS_11Environment18TimerEventInstanceEEC1ERKS3_;2A.;__base_dtor::(5,267)=#(5,252),(0,6),(5,254),(0,6);:_ZN6MAUtil11ListenerSetINS_11Environment18TimerEventInstanceEED2Ev;2A.;__comp_dtor::(5,267):_ZN6MAUtil11ListenerSetINS_11Environment18TimerEventInstanceEED1Ev;2A.;;",128,0,46,0
	.stabs	"Vector<MAUtil::ListenerSet<MAUtil::FocusListener>::Combo>:Tt(5,268)=s12mSize:/1(0,3),0,32;mCapacity:/1(0,3),32,32;mData:/1(5,269)=*(5,270)=xsCombo:,64,32;__base_ctor::(5,271)=#(5,268),(0,6),(5,272)=*(5,268),(0,3),(0,6);:_ZN6MAUtil6VectorINS_11ListenerSetINS_13FocusListenerEE5ComboEEC2Ei;2A.;__comp_ctor::(5,271):_ZN6MAUtil6VectorINS_11ListenerSetINS_13FocusListenerEE5ComboEEC1Ei;2A.;__base_ctor::(5,273)=#(5,268),(0,6),(5,272),(5,274)=*(5,275)=k(5,270),(0,3),(0,6);:_ZN6MAUtil6VectorINS_11ListenerSetINS_13FocusListenerEE5ComboEEC2EPKS4_i;2A.;__comp_ctor::(5,273):_ZN6MAUtil6VectorINS_11ListenerSetINS_13FocusListenerEE5ComboEEC1EPKS4_i;2A.;__base_ctor::(5,276)=#(5,268),(0,6),(5,272),(5,277)=&(5,278)=k(5,268),(0,6);:_ZN6MAUtil6VectorINS_11ListenerSetINS_13FocusListenerEE5ComboEEC2ERKS5_;2A.;__comp_ctor::(5,276):_ZN6MAUtil6VectorINS_11ListenerSetINS_13FocusListenerEE5ComboEEC1ERKS5_;2A.;__base_dtor::(5,279)=#(5,268),(0,6),(5,272),(0,6);:_ZN6MAUtil6VectorINS_11ListenerSetINS_13FocusListenerEE5ComboEED2Ev;2A.;__comp_dtor::(5,279):_ZN6MAUtil6VectorINS_11ListenerSetINS_13FocusListenerEE5ComboEED1Ev;2A.;operator=::(5,280)=#(5,268),(5,281)=&(5,268),(5,272),(5,277),(0,6);:_ZN6MAUtil6VectorINS_11ListenerSetINS_13FocusListenerEE5ComboEEaSERKS5_;2A.;add::(5,282)=#(5,268),(0,6),(5,272),(5,283)=&(5,275),(0,6);:_ZN6MAUtil6VectorINS_11ListenerSetINS_13FocusListenerEE5ComboEE3addERKS4_;2A.(5,273):_ZN6MAUtil6VectorINS_11ListenerSetINS_13FocusListenerEE5ComboEE3addEPKS4_i;2A.;remove::(5,284)=#(5,268),(0,6),(5,272),(5,269),(0,6);:_ZN6MAUtil6VectorINS_11ListenerSetINS_13FocusListenerEE5ComboEE6removeEPS4_;2A.(5,285)=#(5,268),(0,6),(5,272),(0,3),(0,6);:_ZN6MAUtil6VectorINS_11ListenerSetINS_13FocusListenerEE5ComboEE6removeEi;2A.(5,286)=#(5,268),(0,6),(5,272),(0,3),(0,3),(0,6);:_ZN6MAUtil6VectorINS_11ListenerSetINS_13FocusListenerEE5ComboEE6removeEii;2A.;insert::(5,287)=#(5,268),(0,6),(5,272),(0,3),(5,270),(0,6);:_ZN6MAUtil6VectorINS_11ListenerSetINS_13FocusListenerEE5ComboEE6insertEiS4_;2A.;size::(5,288)=#(5,268),(0,3),(5,289)=*(5,278),(0,6);:_ZNK6MAUtil6VectorINS_11ListenerSetINS_13FocusListenerEE5ComboEE4sizeEv;2B.;resize::(5,285):_ZN6MAUtil6VectorINS_11ListenerSetINS_13FocusListenerEE5ComboEE6resizeEi;2A.;reserve::(5,285):_ZN6MAUtil6VectorINS_11ListenerSetINS_13FocusListenerEE5ComboEE7reserveEi;2A.;clear::(5,279):_ZN6MAUtil6VectorINS_11ListenerSetINS_13FocusListenerEE5ComboEE5clearEv;2A.;empty::(5,290)=#(5,268),(0,4),(5,289),(0,6);:_ZNK6MAUtil6VectorINS_11ListenerSetINS_13FocusListenerEE5ComboEE5emptyEv;2B.;capacity::(5,288):_ZNK6MAUtil6VectorINS_11ListenerSetINS_13FocusListenerEE5ComboEE8capacityEv;2B.;begin::(5,291)=#(5,268),(5,269),(5,272),(0,6);:_ZN6MAUtil6VectorINS_11ListenerSetINS_13FocusListenerEE5ComboEE5beginEv;2A.;end::(5,291):_ZN6MAUtil6VectorINS_11ListenerSetINS_13FocusListenerEE5ComboEE3endEv;2A.;begin::(5,292)=#(5,268),(5,274),(5,289),(0,6);:_ZNK6MAUtil6VectorINS_11ListenerSetINS_13FocusListenerEE5ComboEE5beginEv;2B.;end::(5,292):_ZNK6MAUtil6VectorINS_11ListenerSetINS_13FocusListenerEE5ComboEE3endEv;2B.;operator[]::(5,293)=#(5,268),(5,294)=&(5,270),(5,272),(0,3),(0,6);:_ZN6MAUtil6VectorINS_11ListenerSetINS_13FocusListenerEE5ComboEEixEi;2A.(5,295)=#(5,268),(5,283),(5,289),(0,3),(0,6);:_ZNK6MAUtil6VectorINS_11ListenerSetINS_13FocusListenerEE5ComboEEixEi;2B.;pointer::(5,292):_ZNK6MAUtil6VectorINS_11ListenerSetINS_13FocusListenerEE5ComboEE7pointerEv;2B.(5,291):_ZN6MAUtil6VectorINS_11ListenerSetINS_13FocusListenerEE5ComboEE7pointerEv;2A.;;",128,0,94,0
	.stabs	"ListenerSet<MAUtil::FocusListener>:Tt(5,296)=s16mRunning:/0(0,4),0,8;mUpdateRequired:/0(0,4),8,8;mShouldDelete:/0(0,4),16,8;mVec:/0(5,268),32,96;__base_ctor::(5,297)=#(5,296),(0,6),(5,298)=*(5,296),(0,4),(0,6);:_ZN6MAUtil11ListenerSetINS_13FocusListenerEEC2Eb;2A.;__comp_ctor::(5,297):_ZN6MAUtil11ListenerSetINS_13FocusListenerEEC1Eb;2A.;begin::(5,299)=#(5,296),(5,300)=xsiterator:,(5,298),(0,6);:_ZN6MAUtil11ListenerSetINS_13FocusListenerEE5beginEv;2A.;add::(5,301)=#(5,296),(0,6),(5,298),(5,302)=*(5,303)=xsFocusListener:,(0,6);:_ZN6MAUtil11ListenerSetINS_13FocusListenerEE3addEPS1_;2A.;remove::(5,301):_ZN6MAUtil11ListenerSetINS_13FocusListenerEE6removeEPS1_;2A.;contains::(5,304)=#(5,296),(0,4),(5,298),(5,302),(0,6);:_ZN6MAUtil11ListenerSetINS_13FocusListenerEE8containsEPS1_;2A.;setRunning::(5,305)=#(5,296),(0,6),(5,298),(0,4),(0,6);:_ZN6MAUtil11ListenerSetINS_13FocusListenerEE10setRunningEb;2A.;size::(5,306)=#(5,296),(0,3),(5,307)=*(5,308)=k(5,296),(0,6);:_ZNK6MAUtil11ListenerSetINS_13FocusListenerEE4sizeEv;2B.;operator=::(5,309)=#(5,296),(5,310)=&(5,296),(5,298),(5,311)=&(5,308),(0,6);:_ZN6MAUtil11ListenerSetINS_13FocusListenerEEaSERKS2_;2A.;__base_ctor::(5,312)=#(5,296),(0,6),(5,298),(5,311),(0,6);:_ZN6MAUtil11ListenerSetINS_13FocusListenerEEC2ERKS2_;2A.;__comp_ctor::(5,312):_ZN6MAUtil11ListenerSetINS_13FocusListenerEEC1ERKS2_;2A.;__base_dtor::(5,313)=#(5,296),(0,6),(5,298),(0,6);:_ZN6MAUtil11ListenerSetINS_13FocusListenerEED2Ev;2A.;__comp_dtor::(5,313):_ZN6MAUtil11ListenerSetINS_13FocusListenerEED1Ev;2A.;;",128,0,46,0
	.stabs	"Vector<MAUtil::ListenerSet<MAUtil::CustomEventListener>::Combo>:Tt(5,314)=s12mSize:/1(0,3),0,32;mCapacity:/1(0,3),32,32;mData:/1(5,315)=*(5,316)=xsCombo:,64,32;__base_ctor::(5,317)=#(5,314),(0,6),(5,318)=*(5,314),(0,3),(0,6);:_ZN6MAUtil6VectorINS_11ListenerSetINS_19CustomEventListenerEE5ComboEEC2Ei;2A.;__comp_ctor::(5,317):_ZN6MAUtil6VectorINS_11ListenerSetINS_19CustomEventListenerEE5ComboEEC1Ei;2A.;__base_ctor::(5,319)=#(5,314),(0,6),(5,318),(5,320)=*(5,321)=k(5,316),(0,3),(0,6);:_ZN6MAUtil6VectorINS_11ListenerSetINS_19CustomEventListenerEE5ComboEEC2EPKS4_i;2A.;__comp_ctor::(5,319):_ZN6MAUtil6VectorINS_11ListenerSetINS_19CustomEventListenerEE5ComboEEC1EPKS4_i;2A.;__base_ctor::(5,322)=#(5,314),(0,6),(5,318),(5,323)=&(5,324)=k(5,314),(0,6);:_ZN6MAUtil6VectorINS_11ListenerSetINS_19CustomEventListenerEE5ComboEEC2ERKS5_;2A.;__comp_ctor::(5,322):_ZN6MAUtil6VectorINS_11ListenerSetINS_19CustomEventListenerEE5ComboEEC1ERKS5_;2A.;__base_dtor::(5,325)=#(5,314),(0,6),(5,318),(0,6);:_ZN6MAUtil6VectorINS_11ListenerSetINS_19CustomEventListenerEE5ComboEED2Ev;2A.;__comp_dtor::(5,325):_ZN6MAUtil6VectorINS_11ListenerSetINS_19CustomEventListenerEE5ComboEED1Ev;2A.;operator=::(5,326)=#(5,314),(5,327)=&(5,314),(5,318),(5,323),(0,6);:_ZN6MAUtil6VectorINS_11ListenerSetINS_19CustomEventListenerEE5ComboEEaSERKS5_;2A.;add::(5,328)=#(5,314),(0,6),(5,318),(5,329)=&(5,321),(0,6);:_ZN6MAUtil6VectorINS_11ListenerSetINS_19CustomEventListenerEE5ComboEE3addERKS4_;2A.(5,319):_ZN6MAUtil6VectorINS_11ListenerSetINS_19CustomEventListenerEE5ComboEE3addEPKS4_i;2A.;remove::(5,330)=#(5,314),(0,6),(5,318),(5,315),(0,6);:_ZN6MAUtil6VectorINS_11ListenerSetINS_19CustomEventListenerEE5ComboEE6removeEPS4_;2A.(5,331)=#(5,314),(0,6),(5,318),(0,3),(0,6);:_ZN6MAUtil6VectorINS_11ListenerSetINS_19CustomEventListenerEE5ComboEE6removeEi;2A.(5,332)=#(5,314),(0,6),(5,318),(0,3),(0,3),(0,6);:_ZN6MAUtil6VectorINS_11ListenerSetINS_19CustomEventListenerEE5ComboEE6removeEii;2A.;insert::(5,333)=#(5,314),(0,6),(5,318),(0,3),(5,316),(0,6);:_ZN6MAUtil6VectorINS_11ListenerSetINS_19CustomEventListenerEE5ComboEE6insertEiS4_;2A.;size::(5,334)=#(5,314),(0,3),(5,335)=*(5,324),(0,6);:_ZNK6MAUtil6VectorINS_11ListenerSetINS_19CustomEventListenerEE5ComboEE4sizeEv;2B.;resize::(5,331):_ZN6MAUtil6VectorINS_11ListenerSetINS_19CustomEventListenerEE5ComboEE6resizeEi;2A.;reserve::(5,331):_ZN6MAUtil6VectorINS_11ListenerSetINS_19CustomEventListenerEE5ComboEE7reserveEi;2A.;clear::(5,325):_ZN6MAUtil6VectorINS_11ListenerSetINS_19CustomEventListenerEE5ComboEE5clearEv;2A.;empty::(5,336)=#(5,314),(0,4),(5,335),(0,6);:_ZNK6MAUtil6VectorINS_11ListenerSetINS_19CustomEventListenerEE5ComboEE5emptyEv;2B.;capacity::(5,334):_ZNK6MAUtil6VectorINS_11ListenerSetINS_19CustomEventListenerEE5ComboEE8capacityEv;2B.;begin::(5,337)=#(5,314),(5,315),(5,318),(0,6);:_ZN6MAUtil6VectorINS_11ListenerSetINS_19CustomEventListenerEE5ComboEE5beginEv;2A.;end::(5,337):_ZN6MAUtil6VectorINS_11ListenerSetINS_19CustomEventListenerEE5ComboEE3endEv;2A.;begin::(5,338)=#(5,314),(5,320),(5,335),(0,6);:_ZNK6MAUtil6VectorINS_11ListenerSetINS_19CustomEventListenerEE5ComboEE5beginEv;2B.;end::(5,338):_ZNK6MAUtil6VectorINS_11ListenerSetINS_19CustomEventListenerEE5ComboEE3endEv;2B.;operator[]::(5,339)=#(5,314),(5,340)=&(5,316),(5,318),(0,3),(0,6);:_ZN6MAUtil6VectorINS_11ListenerSetINS_19CustomEventListenerEE5ComboEEixEi;2A.(5,341)=#(5,314),(5,329),(5,335),(0,3),(0,6);:_ZNK6MAUtil6VectorINS_11ListenerSetINS_19CustomEventListenerEE5ComboEEixEi;2B.;pointer::(5,338):_ZNK6MAUtil6VectorINS_11ListenerSetINS_19CustomEventListenerEE5ComboEE7pointerEv;2B.(5,337):_ZN6MAUtil6VectorINS_11ListenerSetINS_19CustomEventListenerEE5ComboEE7pointerEv;2A.;;",128,0,94,0
	.stabs	"ListenerSet<MAUtil::CustomEventListener>:Tt(5,342)=s16mRunning:/0(0,4),0,8;mUpdateRequired:/0(0,4),8,8;mShouldDelete:/0(0,4),16,8;mVec:/0(5,314),32,96;__base_ctor::(5,343)=#(5,342),(0,6),(5,344)=*(5,342),(0,4),(0,6);:_ZN6MAUtil11ListenerSetINS_19CustomEventListenerEEC2Eb;2A.;__comp_ctor::(5,343):_ZN6MAUtil11ListenerSetINS_19CustomEventListenerEEC1Eb;2A.;begin::(5,345)=#(5,342),(5,346)=xsiterator:,(5,344),(0,6);:_ZN6MAUtil11ListenerSetINS_19CustomEventListenerEE5beginEv;2A.;add::(5,347)=#(5,342),(0,6),(5,344),(5,348)=*(5,349)=xsCustomEventListener:,(0,6);:_ZN6MAUtil11ListenerSetINS_19CustomEventListenerEE3addEPS1_;2A.;remove::(5,347):_ZN6MAUtil11ListenerSetINS_19CustomEventListenerEE6removeEPS1_;2A.;contains::(5,350)=#(5,342),(0,4),(5,344),(5,348),(0,6);:_ZN6MAUtil11ListenerSetINS_19CustomEventListenerEE8containsEPS1_;2A.;setRunning::(5,351)=#(5,342),(0,6),(5,344),(0,4),(0,6);:_ZN6MAUtil11ListenerSetINS_19CustomEventListenerEE10setRunningEb;2A.;size::(5,352)=#(5,342),(0,3),(5,353)=*(5,354)=k(5,342),(0,6);:_ZNK6MAUtil11ListenerSetINS_19CustomEventListenerEE4sizeEv;2B.;operator=::(5,355)=#(5,342),(5,356)=&(5,342),(5,344),(5,357)=&(5,354),(0,6);:_ZN6MAUtil11ListenerSetINS_19CustomEventListenerEEaSERKS2_;2A.;__base_ctor::(5,358)=#(5,342),(0,6),(5,344),(5,357),(0,6);:_ZN6MAUtil11ListenerSetINS_19CustomEventListenerEEC2ERKS2_;2A.;__comp_ctor::(5,358):_ZN6MAUtil11ListenerSetINS_19CustomEventListenerEEC1ERKS2_;2A.;__base_dtor::(5,359)=#(5,342),(0,6),(5,344),(0,6);:_ZN6MAUtil11ListenerSetINS_19CustomEventListenerEED2Ev;2A.;__comp_dtor::(5,359):_ZN6MAUtil11ListenerSetINS_19CustomEventListenerEED1Ev;2A.;;",128,0,46,0
	.stabs	"Vector<MAUtil::ListenerSet<MAUtil::TextBoxListener>::Combo>:Tt(5,360)=s12mSize:/1(0,3),0,32;mCapacity:/1(0,3),32,32;mData:/1(5,361)=*(5,362)=xsCombo:,64,32;__base_ctor::(5,363)=#(5,360),(0,6),(5,364)=*(5,360),(0,3),(0,6);:_ZN6MAUtil6VectorINS_11ListenerSetINS_15TextBoxListenerEE5ComboEEC2Ei;2A.;__comp_ctor::(5,363):_ZN6MAUtil6VectorINS_11ListenerSetINS_15TextBoxListenerEE5ComboEEC1Ei;2A.;__base_ctor::(5,365)=#(5,360),(0,6),(5,364),(5,366)=*(5,367)=k(5,362),(0,3),(0,6);:_ZN6MAUtil6VectorINS_11ListenerSetINS_15TextBoxListenerEE5ComboEEC2EPKS4_i;2A.;__comp_ctor::(5,365):_ZN6MAUtil6VectorINS_11ListenerSetINS_15TextBoxListenerEE5ComboEEC1EPKS4_i;2A.;__base_ctor::(5,368)=#(5,360),(0,6),(5,364),(5,369)=&(5,370)=k(5,360),(0,6);:_ZN6MAUtil6VectorINS_11ListenerSetINS_15TextBoxListenerEE5ComboEEC2ERKS5_;2A.;__comp_ctor::(5,368):_ZN6MAUtil6VectorINS_11ListenerSetINS_15TextBoxListenerEE5ComboEEC1ERKS5_;2A.;__base_dtor::(5,371)=#(5,360),(0,6),(5,364),(0,6);:_ZN6MAUtil6VectorINS_11ListenerSetINS_15TextBoxListenerEE5ComboEED2Ev;2A.;__comp_dtor::(5,371):_ZN6MAUtil6VectorINS_11ListenerSetINS_15TextBoxListenerEE5ComboEED1Ev;2A.;operator=::(5,372)=#(5,360),(5,373)=&(5,360),(5,364),(5,369),(0,6);:_ZN6MAUtil6VectorINS_11ListenerSetINS_15TextBoxListenerEE5ComboEEaSERKS5_;2A.;add::(5,374)=#(5,360),(0,6),(5,364),(5,375)=&(5,367),(0,6);:_ZN6MAUtil6VectorINS_11ListenerSetINS_15TextBoxListenerEE5ComboEE3addERKS4_;2A.(5,365):_ZN6MAUtil6VectorINS_11ListenerSetINS_15TextBoxListenerEE5ComboEE3addEPKS4_i;2A.;remove::(5,376)=#(5,360),(0,6),(5,364),(5,361),(0,6);:_ZN6MAUtil6VectorINS_11ListenerSetINS_15TextBoxListenerEE5ComboEE6removeEPS4_;2A.(5,377)=#(5,360),(0,6),(5,364),(0,3),(0,6);:_ZN6MAUtil6VectorINS_11ListenerSetINS_15TextBoxListenerEE5ComboEE6removeEi;2A.(5,378)=#(5,360),(0,6),(5,364),(0,3),(0,3),(0,6);:_ZN6MAUtil6VectorINS_11ListenerSetINS_15TextBoxListenerEE5ComboEE6removeEii;2A.;insert::(5,379)=#(5,360),(0,6),(5,364),(0,3),(5,362),(0,6);:_ZN6MAUtil6VectorINS_11ListenerSetINS_15TextBoxListenerEE5ComboEE6insertEiS4_;2A.;size::(5,380)=#(5,360),(0,3),(5,381)=*(5,370),(0,6);:_ZNK6MAUtil6VectorINS_11ListenerSetINS_15TextBoxListenerEE5ComboEE4sizeEv;2B.;resize::(5,377):_ZN6MAUtil6VectorINS_11ListenerSetINS_15TextBoxListenerEE5ComboEE6resizeEi;2A.;reserve::(5,377):_ZN6MAUtil6VectorINS_11ListenerSetINS_15TextBoxListenerEE5ComboEE7reserveEi;2A.;clear::(5,371):_ZN6MAUtil6VectorINS_11ListenerSetINS_15TextBoxListenerEE5ComboEE5clearEv;2A.;empty::(5,382)=#(5,360),(0,4),(5,381),(0,6);:_ZNK6MAUtil6VectorINS_11ListenerSetINS_15TextBoxListenerEE5ComboEE5emptyEv;2B.;capacity::(5,380):_ZNK6MAUtil6VectorINS_11ListenerSetINS_15TextBoxListenerEE5ComboEE8capacityEv;2B.;begin::(5,383)=#(5,360),(5,361),(5,364),(0,6);:_ZN6MAUtil6VectorINS_11ListenerSetINS_15TextBoxListenerEE5ComboEE5beginEv;2A.;end::(5,383):_ZN6MAUtil6VectorINS_11ListenerSetINS_15TextBoxListenerEE5ComboEE3endEv;2A.;begin::(5,384)=#(5,360),(5,366),(5,381),(0,6);:_ZNK6MAUtil6VectorINS_11ListenerSetINS_15TextBoxListenerEE5ComboEE5beginEv;2B.;end::(5,384):_ZNK6MAUtil6VectorINS_11ListenerSetINS_15TextBoxListenerEE5ComboEE3endEv;2B.;operator[]::(5,385)=#(5,360),(5,386)=&(5,362),(5,364),(0,3),(0,6);:_ZN6MAUtil6VectorINS_11ListenerSetINS_15TextBoxListenerEE5ComboEEixEi;2A.(5,387)=#(5,360),(5,375),(5,381),(0,3),(0,6);:_ZNK6MAUtil6VectorINS_11ListenerSetINS_15TextBoxListenerEE5ComboEEixEi;2B.;pointer::(5,384):_ZNK6MAUtil6VectorINS_11ListenerSetINS_15TextBoxListenerEE5ComboEE7pointerEv;2B.(5,383):_ZN6MAUtil6VectorINS_11ListenerSetINS_15TextBoxListenerEE5ComboEE7pointerEv;2A.;;",128,0,94,0
	.stabs	"ListenerSet<MAUtil::TextBoxListener>:Tt(5,388)=s16mRunning:/0(0,4),0,8;mUpdateRequired:/0(0,4),8,8;mShouldDelete:/0(0,4),16,8;mVec:/0(5,360),32,96;__base_ctor::(5,389)=#(5,388),(0,6),(5,390)=*(5,388),(0,4),(0,6);:_ZN6MAUtil11ListenerSetINS_15TextBoxListenerEEC2Eb;2A.;__comp_ctor::(5,389):_ZN6MAUtil11ListenerSetINS_15TextBoxListenerEEC1Eb;2A.;begin::(5,391)=#(5,388),(5,392)=xsiterator:,(5,390),(0,6);:_ZN6MAUtil11ListenerSetINS_15TextBoxListenerEE5beginEv;2A.;add::(5,393)=#(5,388),(0,6),(5,390),(5,394)=*(5,395)=xsTextBoxListener:,(0,6);:_ZN6MAUtil11ListenerSetINS_15TextBoxListenerEE3addEPS1_;2A.;remove::(5,393):_ZN6MAUtil11ListenerSetINS_15TextBoxListenerEE6removeEPS1_;2A.;contains::(5,396)=#(5,388),(0,4),(5,390),(5,394),(0,6);:_ZN6MAUtil11ListenerSetINS_15TextBoxListenerEE8containsEPS1_;2A.;setRunning::(5,397)=#(5,388),(0,6),(5,390),(0,4),(0,6);:_ZN6MAUtil11ListenerSetINS_15TextBoxListenerEE10setRunningEb;2A.;size::(5,398)=#(5,388),(0,3),(5,399)=*(5,400)=k(5,388),(0,6);:_ZNK6MAUtil11ListenerSetINS_15TextBoxListenerEE4sizeEv;2B.;operator=::(5,401)=#(5,388),(5,402)=&(5,388),(5,390),(5,403)=&(5,400),(0,6);:_ZN6MAUtil11ListenerSetINS_15TextBoxListenerEEaSERKS2_;2A.;__base_ctor::(5,404)=#(5,388),(0,6),(5,390),(5,403),(0,6);:_ZN6MAUtil11ListenerSetINS_15TextBoxListenerEEC2ERKS2_;2A.;__comp_ctor::(5,404):_ZN6MAUtil11ListenerSetINS_15TextBoxListenerEEC1ERKS2_;2A.;__base_dtor::(5,405)=#(5,388),(0,6),(5,390),(0,6);:_ZN6MAUtil11ListenerSetINS_15TextBoxListenerEED2Ev;2A.;__comp_dtor::(5,405):_ZN6MAUtil11ListenerSetINS_15TextBoxListenerEED1Ev;2A.;;",128,0,46,0
	.stabn	162,0,0,0
	.stabn	162,0,0,0
	.stabs	"c:/MoSync/include/conprint.h",130,0,0,0
	.stabs	"c:/MoSync/include/maarg.h",130,0,0,0
	.stabs	"__gnuc_va_list:t(7,1)=(0,20)",128,0,34,0
	.stabs	"va_list:t(7,2)=(7,1)",128,0,35,0
	.stabn	162,0,0,0
	.stabn	162,0,0,0
	.stabs	"E:\\My Dropbox\\workspace\\GameCards\\MobidexANC\\UI\\/MobKeyboard.h",130,0,0,0
	.stabs	"c:/MoSync/include/MAUI/Widget.h",130,0,0,0
	.stabs	"c:/MoSync/include/MAUtil/RefCounted.h",130,0,0,0
	.stabn	162,0,0,0
	.stabs	"c:/MoSync/include/MAUtil/String.h",130,0,0,0
	.stabs	"String:t(11,1)=(11,2)=xsBasicString<char>:",128,0,273,0
	.stabs	"WString:t(11,3)=(11,4)=xsBasicString<wchar_t>:",128,0,274,0
	.stabn	162,0,0,0
	.stabs	"c:/MoSync/include/MAUtil/Geometry.h",130,0,0,0
	.stabs	"Point:Tt(12,1)=s8!1,020,(3,15);__base_ctor::(12,2)=#(12,1),(0,6),(12,3)=*(12,1),(0,6);:_ZN6MAUtil5PointC2Ev;2A.;__comp_ctor::(12,2):_ZN6MAUtil5PointC1Ev;2A.;__base_ctor::(12,4)=#(12,1),(0,6),(12,3),(0,3),(0,3),(0,6);:_ZN6MAUtil5PointC2Eii;2A.;__comp_ctor::(12,4):_ZN6MAUtil5PointC1Eii;2A.;set::(12,4):_ZN6MAUtil5Point3setEii;2A.;operator=::(12,5)=#(12,1),(12,6)=&(12,1),(12,3),(12,7)=&(12,8)=k(12,1),(0,6);:_ZN6MAUtil5PointaSERKS0_;2A.;__base_ctor::(12,9)=#(12,1),(0,6),(12,3),(12,7),(0,6);:_ZN6MAUtil5PointC2ERKS0_;2A.;__comp_ctor::(12,9):_ZN6MAUtil5PointC1ERKS0_;2A.;;",128,0,37,0
	.stabn	162,0,0,0
	.stabs	"c:/MoSync/include/MAUI/WidgetSkin.h",130,0,0,0
	.stabs	"c:/MoSync/include/MAUtil/HashMap.h",130,0,0,0
	.stabs	"c:/MoSync/include/maheap.h",130,0,0,0
	.stabs	"malloc_handler:t(15,1)=(15,2)=*(15,3)=f(0,6)",128,0,106,0
	.stabs	"malloc_hook:t(15,4)=(15,5)=*(15,6)=f(3,9)",128,0,107,0
	.stabs	"free_hook:t(15,7)=(15,8)=*(15,9)=f(0,6)",128,0,108,0
	.stabs	"realloc_hook:t(15,10)=(15,11)=*(15,12)=f(3,9)",128,0,109,0
	.stabs	"block_size_hook:t(15,13)=(15,14)=*(15,15)=f(0,3)",128,0,110,0
	.stabn	162,0,0,0
	.stabs	"c:/MoSync/include/kazlib/hash.h",130,0,0,0
	.stabs	"hashcount_t:t(16,1)=(0,16)",128,0,37,0
	.stabs	"hash_val_t:t(16,2)=(0,16)",128,0,40,0
	.stabs	"hnode_t:Tt(16,3)=s16hash_next:(16,4)=*(16,3),0,32;hash_key:(16,5)=*(16,6)=k(0,6),32,32;hash_data:(3,9),64,32;hash_hkey:(16,2),96,32;operator=::(16,7)=#(16,3),(16,8)=&(16,3),(16,4),(16,9)=&(16,10)=k(16,3),(0,6);:_ZN7hnode_taSERKS_;2A.;__base_ctor::(16,11)=#(16,3),(0,6),(16,4),(16,9),(0,6);:_ZN7hnode_tC2ERKS_;2A.;__comp_ctor::(16,11):_ZN7hnode_tC1ERKS_;2A.;__base_ctor::(16,12)=#(16,3),(0,6),(16,4),(0,6);:_ZN7hnode_tC2Ev;2A.;__comp_ctor::(16,12):_ZN7hnode_tC1Ev;2A.;;",128,0,73,0
	.stabs	"hnode_t:t(16,13)=(16,3)",128,0,82,0
	.stabs	"hash_comp_t:t(16,14)=(16,15)=*(16,16)=f(0,3)",128,0,91,0
	.stabs	"hash_fun_t:t(16,17)=(16,18)=*(16,19)=f(16,2)",128,0,105,0
	.stabs	"hnode_alloc_t:t(16,20)=(16,21)=*(16,22)=f(16,23)=*(16,13)",128,0,111,0
	.stabs	"hnode_free_t:t(16,24)=(16,25)=*(16,26)=f(0,6)",128,0,112,0
	.stabs	"hash_t:Tt(16,27)=s52hash_table:(16,28)=*(16,4),0,32;hash_nchains:(16,1),32,32;hash_nodecount:(16,1),64,32;hash_maxcount:(16,1),96,32;hash_highmark:(16,1),128,32;hash_lowmark:(16,1),160,32;hash_compare:(16,14),192,32;hash_function:(16,17),224,32;hash_allocnode:(16,20),256,32;hash_freenode:(16,24),288,32;hash_context:(3,9),320,32;hash_mask:(16,2),352,32;hash_dynamic:(0,3),384,32;operator=::(16,29)=#(16,27),(16,30)=&(16,27),(16,31)=*(16,27),(16,32)=&(16,33)=k(16,27),(0,6);:_ZN6hash_taSERKS_;2A.;__base_ctor::(16,34)=#(16,27),(0,6),(16,31),(16,32),(0,6);:_ZN6hash_tC2ERKS_;2A.;__comp_ctor::(16,34):_ZN6hash_tC1ERKS_;2A.;__base_ctor::(16,35)=#(16,27),(0,6),(16,31),(0,6);:_ZN6hash_tC2Ev;2A.;__comp_ctor::(16,35):_ZN6hash_tC1Ev;2A.;;",128,0,149,0
	.stabs	"hash_t:t(16,36)=(16,27)",128,0,167,0
	.stabs	"hscan_t:Tt(16,37)=s12hash_table:(16,38)=*(16,36),0,32;hash_chain:(16,2),32,32;hash_next:(16,23),64,32;operator=::(16,39)=#(16,37),(16,40)=&(16,37),(16,41)=*(16,37),(16,42)=&(16,43)=k(16,37),(0,6);:_ZN7hscan_taSERKS_;2A.;__base_ctor::(16,44)=#(16,37),(0,6),(16,41),(16,42),(0,6);:_ZN7hscan_tC2ERKS_;2A.;__comp_ctor::(16,44):_ZN7hscan_tC1ERKS_;2A.;__base_ctor::(16,45)=#(16,37),(0,6),(16,41),(0,6);:_ZN7hscan_tC2Ev;2A.;__comp_ctor::(16,45):_ZN7hscan_tC1Ev;2A.;;",128,0,179,0
	.stabs	"hscan_t:t(16,46)=(16,37)",128,0,187,0
	.stabn	162,0,0,0
	.stabn	162,0,0,0
	.stabs	"WidgetSkin::eType:t(13,1)=eSELECTED:0,UNSELECTED:1,;",128,0,53,0
	.stabs	"WidgetSkin::CacheKey:Tt(13,2)=s16skin:(13,3)=*(13,4)=xsWidgetSkin:,0,32;w:(0,3),32,32;h:(0,3),64,32;type:(13,1),96,32;__base_ctor::(13,5)=#(13,2),(0,6),(13,6)=*(13,2),(0,6);:_ZN4MAUI10WidgetSkin8CacheKeyC2Ev;2A.;__comp_ctor::(13,5):_ZN4MAUI10WidgetSkin8CacheKeyC1Ev;2A.;__base_ctor::(13,7)=#(13,2),(0,6),(13,6),(13,3),(0,3),(0,3),(13,1),(0,6);:_ZN4MAUI10WidgetSkin8CacheKeyC2EPS0_iiNS0_5eTypeE;2A.;__comp_ctor::(13,7):_ZN4MAUI10WidgetSkin8CacheKeyC1EPS0_iiNS0_5eTypeE;2A.;operator==::(13,8)=#(13,2),(0,4),(13,9)=*(13,10)=k(13,2),(13,11)=&(13,10),(0,6);:_ZNK4MAUI10WidgetSkin8CacheKeyeqERKS1_;2B.;operator<::(13,8):_ZNK4MAUI10WidgetSkin8CacheKeyltERKS1_;2B.;operator=::(13,12)=#(13,2),(13,13)=&(13,2),(13,6),(13,11),(0,6);:_ZN4MAUI10WidgetSkin8CacheKeyaSERKS1_;2A.;__base_ctor::(13,14)=#(13,2),(0,6),(13,6),(13,11),(0,6);:_ZN4MAUI10WidgetSkin8CacheKeyC2ERKS1_;2A.;__comp_ctor::(13,14):_ZN4MAUI10WidgetSkin8CacheKeyC1ERKS1_;2A.;;",128,0,172,0
	.stabs	"WidgetSkin::CacheElement:Tt(13,15)=s8image:(3,10),0,32;lastUsed:(0,3),32,32;operator=::(13,16)=#(13,15),(13,17)=&(13,15),(13,18)=*(13,15),(13,19)=&(13,20)=k(13,15),(0,6);:_ZN4MAUI10WidgetSkin12CacheElementaSERKS1_;2A.;__base_ctor::(13,21)=#(13,15),(0,6),(13,18),(13,19),(0,6);:_ZN4MAUI10WidgetSkin12CacheElementC2ERKS1_;2A.;__comp_ctor::(13,21):_ZN4MAUI10WidgetSkin12CacheElementC1ERKS1_;2A.;__base_ctor::(13,22)=#(13,15),(0,6),(13,18),(0,6);:_ZN4MAUI10WidgetSkin12CacheElementC2Ev;2A.;__comp_ctor::(13,22):_ZN4MAUI10WidgetSkin12CacheElementC1Ev;2A.;;",128,0,195,0
	.stabs	"WidgetSkin:Tt(13,4)=s196maxCacheSize:/0(0,3):_ZN4MAUI10WidgetSkin12maxCacheSizeE;useCache:/0(0,4):_ZN4MAUI10WidgetSkin8useCacheE;sCache:/0(13,23)=xsHashMap<MAUI::WidgetSkin::CacheKey,MAUI::WidgetSkin::CacheElement>::_ZN4MAUI10WidgetSkin6sCacheE;selectedImageWidth:/0(0,3),0,32;selectedImageHeight:/0(0,3),32,32;unselectedImageWidth:/0(0,3),64,32;unselectedImageHeight:/0(0,3),96,32;selectedImage:/0(3,10),128,32;unselectedImage:/0(3,10),160,32;topLeft:/0(3,32),192,128;top:/0(3,32),320,128;topRight:/0(3,32),448,128;left:/0(3,32),576,128;center:/0(3,32),704,128;right:/0(3,32),832,128;bottomLeft:/0(3,32),960,128;bottom:/0(3,32),1088,128;bottomRight:/0(3,32),1216,128;startX:/0(0,3),1344,32;endX:/0(0,3),1376,32;startY:/0(0,3),1408,32;endY:/0(0,3),1440,32;imageWidth:/0(0,3),1472,32;imageHeight:/0(0,3),1504,32;selectedTransparent:/0(0,4),1536,8;unselectedTransparent:/0(0,4),1544,8;__base_ctor::(13,24)=#(13,4),(0,6),(13,3),(0,6);:_ZN4MAUI10WidgetSkinC2Ev;2A.;__comp_ctor::(13,24):_ZN4MAUI10WidgetSkinC1Ev;2A.;__base_ctor::(13,25)=#(13,4),(0,6),(13,3),(3,10),(3,10),(0,3),(0,3),(0,3),(0,3),(0,4),(0,4),(0,6);:_ZN4MAUI10WidgetSkinC2Eiiiiiibb;2A.;__comp_ctor::(13,25):_ZN4MAUI10WidgetSkinC1Eiiiiiibb;2A.;setStartX::(13,26)=#(13,4),(0,6),(13,3),(0,3),(0,6);:_ZN4MAUI10WidgetSkin9setStartXEi;2A.;setEndX::(13,26):_ZN4MAUI10WidgetSkin7setEndXEi;2A.;setStartY::(13,26):_ZN4MAUI10WidgetSkin9setStartYEi;2A.;setEndY::(13,26):_ZN4MAUI10WidgetSkin7setEndYEi;2A.;getStartX::(13,27)=#(13,4),(0,3),(13,28)=*(13,29)=k(13,4),(0,6);:_ZNK4MAUI10WidgetSkin9getStartXEv;2B.;getStartY::(13,27):_ZNK4MAUI10WidgetSkin9getStartYEv;2B.;getEndX::(13,27):_ZNK4MAUI10WidgetSkin7getEndXEv;2B.;getEndY::(13,27):_ZNK4MAUI10WidgetSkin7getEndYEv;2B.;getUnselectedImage::(13,30)=#(13,4),(3,10),(13,28),(0,6);:_ZNK4MAUI10WidgetSkin18getUnselectedImageEv;2B.;getSelectedImage::(13,30):_ZNK4MAUI10WidgetSkin16getSelectedImageEv;2B.;setSelectedImage::(13,31)=#(13,4),(0,6),(13,3),(3,10),(0,6);:_ZN4MAUI10WidgetSkin16setSelectedImageEi;2A.;setUnselectedImage::(13,31):_ZN4MAUI10WidgetSkin18setUnselectedImageEi;2A.;draw::(13,32)=#(13,4),(0,6),(13,3),(0,3),(0,3),(0,3),(0,3),(13,1),(0,6);:_ZN4MAUI10WidgetSkin4drawEiiiiNS0_5eTypeE;2A.;drawDirect::(13,32):_ZN4MAUI10WidgetSkin10drawDirectEiiiiNS0_5eTypeE;2A.;drawToData::(13,33)=#(13,4),(0,6),(13,3),(13,34)=*(0,3),(0,3),(0,3),(0,3),(0,3),(13,1),(0,6);:_ZN4MAUI10WidgetSkin10drawToDataEPiiiiiNS0_5eTypeE;2A.;calculateNumTiles::(13,35)=#(13,4),(0,3),(13,3),(0,3),(0,3),(0,6);:_ZN4MAUI10WidgetSkin17calculateNumTilesEii;2A.;drawRegion::(13,36)=#(13,4),(0,6),(13,3),(3,10),(13,34),(0,3),(13,37)=*(13,38)=k(3,32),(13,39)=*(13,40)=k(3,23),(0,6);:_ZN4MAUI10WidgetSkin10drawRegionEiPiiPK6MARectPK9MAPoint2d;2A.;getImageHeight::(13,27):_ZNK4MAUI10WidgetSkin14getImageHeightEv;2B.;getImageWidth::(13,27):_ZNK4MAUI10WidgetSkin13getImageWidthEv;2B.;isSelectedTransparent::(13,41)=#(13,4),(0,4),(13,28),(0,6);:_ZNK4MAUI10WidgetSkin21isSelectedTransparentEv;2B.;isUnselectedTransparent::(13,41):_ZNK4MAUI10WidgetSkin23isUnselectedTransparentEv;2B.;setMaxCacheSize::(15,3):_ZN4MAUI10WidgetSkin15setMaxCacheSizeEi;2A?;setCacheEnabled::(13,42)=f(0,6):_ZN4MAUI10WidgetSkin15setCacheEnabledEb;2A?;flushCache::(13,43)=f(0,6):_ZN4MAUI10WidgetSkin10flushCacheEv;2A?;flushCacheUntilNewImageFits::(15,3):_ZN4MAUI10WidgetSkin27flushCacheUntilNewImageFitsEi;2A?;addToCache::(13,44)=f(0,6):_ZN4MAUI10WidgetSkin10addToCacheERKNS0_8CacheKeyERKNS0_12CacheElementE;2A?;getFromCache::(13,45)=f(3,10):_ZN4MAUI10WidgetSkin12getFromCacheERKNS0_8CacheKeyE;2A?;rebuildRects::(13,24):_ZN4MAUI10WidgetSkin12rebuildRectsEv;0A.;operator=::(13,46)=#(13,4),(13,47)=&(13,4),(13,3),(13,48)=&(13,29),(0,6);:_ZN4MAUI10WidgetSkinaSERKS0_;2A.;__base_ctor::(13,49)=#(13,4),(0,6),(13,3),(13,48),(0,6);:_ZN4MAUI10WidgetSkinC2ERKS0_;2A.;__comp_ctor::(13,49):_ZN4MAUI10WidgetSkinC1ERKS0_;2A.;;",128,0,47,0
	.stabn	162,0,0,0
	.stabs	"c:/MoSync/include/MAUI/InputManager.h",130,0,0,0
	.stabn	162,0,0,0
	.stabs	"Vector<MAUI::Widget*>:Tt(9,1)=s12mSize:/1(0,3),0,32;mCapacity:/1(0,3),32,32;mData:/1(9,2)=*(9,3)=*(9,4)=xsWidget:,64,32;__base_ctor::(9,5)=#(9,1),(0,6),(9,6)=*(9,1),(0,3),(0,6);:_ZN6MAUtil6VectorIPN4MAUI6WidgetEEC2Ei;2A.;__comp_ctor::(9,5):_ZN6MAUtil6VectorIPN4MAUI6WidgetEEC1Ei;2A.;__base_ctor::(9,7)=#(9,1),(0,6),(9,6),(9,8)=*(9,9)=k(9,3),(0,3),(0,6);:_ZN6MAUtil6VectorIPN4MAUI6WidgetEEC2EPKS3_i;2A.;__comp_ctor::(9,7):_ZN6MAUtil6VectorIPN4MAUI6WidgetEEC1EPKS3_i;2A.;__base_ctor::(9,10)=#(9,1),(0,6),(9,6),(9,11)=&(9,12)=k(9,1),(0,6);:_ZN6MAUtil6VectorIPN4MAUI6WidgetEEC2ERKS4_;2A.;__comp_ctor::(9,10):_ZN6MAUtil6VectorIPN4MAUI6WidgetEEC1ERKS4_;2A.;__base_dtor::(9,13)=#(9,1),(0,6),(9,6),(0,6);:_ZN6MAUtil6VectorIPN4MAUI6WidgetEED2Ev;2A.;__comp_dtor::(9,13):_ZN6MAUtil6VectorIPN4MAUI6WidgetEED1Ev;2A.;operator=::(9,14)=#(9,1),(9,15)=&(9,1),(9,6),(9,11),(0,6);:_ZN6MAUtil6VectorIPN4MAUI6WidgetEEaSERKS4_;2A.;add::(9,16)=#(9,1),(0,6),(9,6),(9,17)=&(9,9),(0,6);:_ZN6MAUtil6VectorIPN4MAUI6WidgetEE3addERKS3_;2A.(9,7):_ZN6MAUtil6VectorIPN4MAUI6WidgetEE3addEPKS3_i;2A.;remove::(9,18)=#(9,1),(0,6),(9,6),(9,2),(0,6);:_ZN6MAUtil6VectorIPN4MAUI6WidgetEE6removeEPS3_;2A.(9,19)=#(9,1),(0,6),(9,6),(0,3),(0,6);:_ZN6MAUtil6VectorIPN4MAUI6WidgetEE6removeEi;2A.(9,20)=#(9,1),(0,6),(9,6),(0,3),(0,3),(0,6);:_ZN6MAUtil6VectorIPN4MAUI6WidgetEE6removeEii;2A.;insert::(9,21)=#(9,1),(0,6),(9,6),(0,3),(9,3),(0,6);:_ZN6MAUtil6VectorIPN4MAUI6WidgetEE6insertEiS3_;2A.;size::(9,22)=#(9,1),(0,3),(9,23)=*(9,12),(0,6);:_ZNK6MAUtil6VectorIPN4MAUI6WidgetEE4sizeEv;2B.;resize::(9,19):_ZN6MAUtil6VectorIPN4MAUI6WidgetEE6resizeEi;2A.;reserve::(9,19):_ZN6MAUtil6VectorIPN4MAUI6WidgetEE7reserveEi;2A.;clear::(9,13):_ZN6MAUtil6VectorIPN4MAUI6WidgetEE5clearEv;2A.;empty::(9,24)=#(9,1),(0,4),(9,23),(0,6);:_ZNK6MAUtil6VectorIPN4MAUI6WidgetEE5emptyEv;2B.;capacity::(9,22):_ZNK6MAUtil6VectorIPN4MAUI6WidgetEE8capacityEv;2B.;begin::(9,25)=#(9,1),(9,2),(9,6),(0,6);:_ZN6MAUtil6VectorIPN4MAUI6WidgetEE5beginEv;2A.;end::(9,25):_ZN6MAUtil6VectorIPN4MAUI6WidgetEE3endEv;2A.;begin::(9,26)=#(9,1),(9,8),(9,23),(0,6);:_ZNK6MAUtil6VectorIPN4MAUI6WidgetEE5beginEv;2B.;end::(9,26):_ZNK6MAUtil6VectorIPN4MAUI6WidgetEE3endEv;2B.;operator[]::(9,27)=#(9,1),(9,28)=&(9,3),(9,6),(0,3),(0,6);:_ZN6MAUtil6VectorIPN4MAUI6WidgetEEixEi;2A.(9,29)=#(9,1),(9,17),(9,23),(0,3),(0,6);:_ZNK6MAUtil6VectorIPN4MAUI6WidgetEEixEi;2B.;pointer::(9,26):_ZNK6MAUtil6VectorIPN4MAUI6WidgetEE7pointerEv;2B.(9,25):_ZN6MAUtil6VectorIPN4MAUI6WidgetEE7pointerEv;2A.;;",128,0,94,0
	.stabs	"Vector<MAUI::WidgetListener*>:Tt(9,30)=s12mSize:/1(0,3),0,32;mCapacity:/1(0,3),32,32;mData:/1(9,31)=*(9,32)=*(9,33)=xsWidgetListener:,64,32;__base_ctor::(9,34)=#(9,30),(0,6),(9,35)=*(9,30),(0,3),(0,6);:_ZN6MAUtil6VectorIPN4MAUI14WidgetListenerEEC2Ei;2A.;__comp_ctor::(9,34):_ZN6MAUtil6VectorIPN4MAUI14WidgetListenerEEC1Ei;2A.;__base_ctor::(9,36)=#(9,30),(0,6),(9,35),(9,37)=*(9,38)=k(9,32),(0,3),(0,6);:_ZN6MAUtil6VectorIPN4MAUI14WidgetListenerEEC2EPKS3_i;2A.;__comp_ctor::(9,36):_ZN6MAUtil6VectorIPN4MAUI14WidgetListenerEEC1EPKS3_i;2A.;__base_ctor::(9,39)=#(9,30),(0,6),(9,35),(9,40)=&(9,41)=k(9,30),(0,6);:_ZN6MAUtil6VectorIPN4MAUI14WidgetListenerEEC2ERKS4_;2A.;__comp_ctor::(9,39):_ZN6MAUtil6VectorIPN4MAUI14WidgetListenerEEC1ERKS4_;2A.;__base_dtor::(9,42)=#(9,30),(0,6),(9,35),(0,6);:_ZN6MAUtil6VectorIPN4MAUI14WidgetListenerEED2Ev;2A.;__comp_dtor::(9,42):_ZN6MAUtil6VectorIPN4MAUI14WidgetListenerEED1Ev;2A.;operator=::(9,43)=#(9,30),(9,44)=&(9,30),(9,35),(9,40),(0,6);:_ZN6MAUtil6VectorIPN4MAUI14WidgetListenerEEaSERKS4_;2A.;add::(9,45)=#(9,30),(0,6),(9,35),(9,46)=&(9,38),(0,6);:_ZN6MAUtil6VectorIPN4MAUI14WidgetListenerEE3addERKS3_;2A.(9,36):_ZN6MAUtil6VectorIPN4MAUI14WidgetListenerEE3addEPKS3_i;2A.;remove::(9,47)=#(9,30),(0,6),(9,35),(9,31),(0,6);:_ZN6MAUtil6VectorIPN4MAUI14WidgetListenerEE6removeEPS3_;2A.(9,48)=#(9,30),(0,6),(9,35),(0,3),(0,6);:_ZN6MAUtil6VectorIPN4MAUI14WidgetListenerEE6removeEi;2A.(9,49)=#(9,30),(0,6),(9,35),(0,3),(0,3),(0,6);:_ZN6MAUtil6VectorIPN4MAUI14WidgetListenerEE6removeEii;2A.;insert::(9,50)=#(9,30),(0,6),(9,35),(0,3),(9,32),(0,6);:_ZN6MAUtil6VectorIPN4MAUI14WidgetListenerEE6insertEiS3_;2A.;size::(9,51)=#(9,30),(0,3),(9,52)=*(9,41),(0,6);:_ZNK6MAUtil6VectorIPN4MAUI14WidgetListenerEE4sizeEv;2B.;resize::(9,48):_ZN6MAUtil6VectorIPN4MAUI14WidgetListenerEE6resizeEi;2A.;reserve::(9,48):_ZN6MAUtil6VectorIPN4MAUI14WidgetListenerEE7reserveEi;2A.;clear::(9,42):_ZN6MAUtil6VectorIPN4MAUI14WidgetListenerEE5clearEv;2A.;empty::(9,53)=#(9,30),(0,4),(9,52),(0,6);:_ZNK6MAUtil6VectorIPN4MAUI14WidgetListenerEE5emptyEv;2B.;capacity::(9,51):_ZNK6MAUtil6VectorIPN4MAUI14WidgetListenerEE8capacityEv;2B.;begin::(9,54)=#(9,30),(9,31),(9,35),(0,6);:_ZN6MAUtil6VectorIPN4MAUI14WidgetListenerEE5beginEv;2A.;end::(9,54):_ZN6MAUtil6VectorIPN4MAUI14WidgetListenerEE3endEv;2A.;begin::(9,55)=#(9,30),(9,37),(9,52),(0,6);:_ZNK6MAUtil6VectorIPN4MAUI14WidgetListenerEE5beginEv;2B.;end::(9,55):_ZNK6MAUtil6VectorIPN4MAUI14WidgetListenerEE3endEv;2B.;operator[]::(9,56)=#(9,30),(9,57)=&(9,32),(9,35),(0,3),(0,6);:_ZN6MAUtil6VectorIPN4MAUI14WidgetListenerEEixEi;2A.(9,58)=#(9,30),(9,46),(9,52),(0,3),(0,6);:_ZNK6MAUtil6VectorIPN4MAUI14WidgetListenerEEixEi;2B.;pointer::(9,55):_ZNK6MAUtil6VectorIPN4MAUI14WidgetListenerEE7pointerEv;2B.(9,54):_ZN6MAUtil6VectorIPN4MAUI14WidgetListenerEE7pointerEv;2A.;;",128,0,94,0
	.stabn	162,0,0,0
	.stabs	"MobKeyboard::LayoutType:t(8,1)=eLT_LOWERCASE:0,LT_UPPERCASE:1,LT_NUM1:2,LT_NUM2:3,;",128,0,24,0
	.stabs	"BasicString<char>:Tt(11,2)=s4sd:/1(8,2)=*(8,3)=xsStringData<char>:,0,32;__base_ctor::(8,4)=#(11,2),(0,6),(8,5)=*(11,2),(0,6);:_ZN6MAUtil11BasicStringIcEC2Ev;2A.;__comp_ctor::(8,4):_ZN6MAUtil11BasicStringIcEC1Ev;2A.;__base_ctor::(8,6)=#(11,2),(0,6),(8,5),(0,3),(0,6);:_ZN6MAUtil11BasicStringIcEC2Ei;2A.;__comp_ctor::(8,6):_ZN6MAUtil11BasicStringIcEC1Ei;2A.;__base_ctor::(8,7)=#(11,2),(0,6),(8,5),(8,8)=*(8,9)=k(0,19),(0,6);:_ZN6MAUtil11BasicStringIcEC2EPKc;2A.;__comp_ctor::(8,7):_ZN6MAUtil11BasicStringIcEC1EPKc;2A.;__base_ctor::(8,10)=#(11,2),(0,6),(8,5),(8,8),(0,3),(0,6);:_ZN6MAUtil11BasicStringIcEC2EPKci;2A.;__comp_ctor::(8,10):_ZN6MAUtil11BasicStringIcEC1EPKci;2A.;__base_ctor::(8,11)=#(11,2),(0,6),(8,5),(8,12)=&(8,13)=k(11,2),(0,6);:_ZN6MAUtil11BasicStringIcEC2ERKS1_;2A.;__comp_ctor::(8,11):_ZN6MAUtil11BasicStringIcEC1ERKS1_;2A.;c_str::(8,14)=#(11,2),(8,8),(8,15)=*(8,13),(0,6);:_ZNK6MAUtil11BasicStringIcE5c_strEv;2B.;operator=::(8,16)=#(11,2),(8,17)=&(11,2),(8,5),(8,12),(0,6);:_ZN6MAUtil11BasicStringIcEaSERKS1_;2A.;operator[]::(8,18)=#(11,2),(8,19)=&(0,19),(8,5),(0,3),(0,6);:_ZN6MAUtil11BasicStringIcEixEi;2A.(8,20)=#(11,2),(8,21)=&(8,9),(8,15),(0,3),(0,6);:_ZNK6MAUtil11BasicStringIcEixEi;2B.;operator==::(8,22)=#(11,2),(0,4),(8,15),(8,12),(0,6);:_ZNK6MAUtil11BasicStringIcEeqERKS1_;2B.;operator!=::(8,22):_ZNK6MAUtil11BasicStringIcEneERKS1_;2B.;operator<::(8,22):_ZNK6MAUtil11BasicStringIcEltERKS1_;2B.;operator>::(8,22):_ZNK6MAUtil11BasicStringIcEgtERKS1_;2B.;operator<=::(8,22):_ZNK6MAUtil11BasicStringIcEleERKS1_;2B.;operator>=::(8,22):_ZNK6MAUtil11BasicStringIcEgeERKS1_;2B.;operator+::(8,23)=#(11,2),(11,2),(8,15),(8,12),(0,6);:_ZNK6MAUtil11BasicStringIcEplERKS1_;2B.;operator+=::(8,16):_ZN6MAUtil11BasicStringIcEpLERKS1_;2A.;operator+::(8,24)=#(11,2),(11,2),(8,15),(0,19),(0,6);:_ZNK6MAUtil11BasicStringIcEplEc;2B.;operator+=::(8,25)=#(11,2),(8,17),(8,5),(0,19),(0,6);:_ZN6MAUtil11BasicStringIcEpLEc;2A.;find::(8,26)=#(11,2),(0,3),(8,15),(8,12),(0,17),(0,6);:_ZNK6MAUtil11BasicStringIcE4findERKS1_j;2B.;findLastOf::(8,27)=#(11,2),(0,3),(8,15),(0,19),(0,6);:_ZNK6MAUtil11BasicStringIcE10findLastOfEc;2B.;findFirstOf::(8,28)=#(11,2),(0,3),(8,15),(0,19),(0,3),(0,6);:_ZNK6MAUtil11BasicStringIcE11findFirstOfEci;2B.;findFirstNotOf::(8,28):_ZNK6MAUtil11BasicStringIcE14findFirstNotOfEci;2B.;insert::(8,29)=#(11,2),(0,6),(8,5),(0,3),(8,12),(0,6);:_ZN6MAUtil11BasicStringIcE6insertEiRKS1_;2A.(8,30)=#(11,2),(0,6),(8,5),(0,3),(0,19),(0,6);:_ZN6MAUtil11BasicStringIcE6insertEic;2A.;remove::(8,31)=#(11,2),(0,6),(8,5),(0,3),(0,3),(0,6);:_ZN6MAUtil11BasicStringIcE6removeEii;2A.;substr::(8,32)=#(11,2),(11,2),(8,15),(0,3),(0,3),(0,6);:_ZNK6MAUtil11BasicStringIcE6substrEii;2B.;capacity::(8,33)=#(11,2),(0,3),(8,15),(0,6);:_ZNK6MAUtil11BasicStringIcE8capacityEv;2B.;size::(8,33):_ZNK6MAUtil11BasicStringIcE4sizeEv;2B.;length::(8,33):_ZNK6MAUtil11BasicStringIcE6lengthEv;2B.;resize::(8,6):_ZN6MAUtil11BasicStringIcE6resizeEi;2A.;reserve::(8,6):_ZN6MAUtil11BasicStringIcE7reserveEi;2A.;clear::(8,4):_ZN6MAUtil11BasicStringIcE5clearEv;2A.;append::(8,10):_ZN6MAUtil11BasicStringIcE6appendEPKci;2A.;setData::(8,34)=#(11,2),(0,6),(8,5),(8,2),(0,6);:_ZN6MAUtil11BasicStringIcE7setDataEPNS_10StringDataIcEE;2A.;pointer::(8,35)=#(11,2),(3,5),(8,5),(0,6);:_ZN6MAUtil11BasicStringIcE7pointerEv;2A.;__base_dtor::(8,4):_ZN6MAUtil11BasicStringIcED2Ev;2A.;__comp_dtor::(8,4):_ZN6MAUtil11BasicStringIcED1Ev;2A.;allocStringData::(8,10):_ZN6MAUtil11BasicStringIcE15allocStringDataEPKci;1A.;;",128,0,104,0
	.stabs	"MobKeyboardButton:Tt(8,36)=s36m_bounds:/0(8,37)=xsRect:,0,160;m_character:/0(11,1),160,32;m_charLocation:/0(12,1),192,64;pressed:/0(0,4),256,8;__base_ctor::(8,38)=#(8,36),(0,6),(8,39)=*(8,36),(8,40)=&(8,41)=k(8,37),(8,42)=&(8,43)=k(11,1),(12,7),(0,6);:_ZN17MobKeyboardButtonC2ERKN6MAUtil4RectERKNS0_11BasicStringIcEERKNS0_5PointE;2A.;__comp_ctor::(8,38):_ZN17MobKeyboardButtonC1ERKN6MAUtil4RectERKNS0_11BasicStringIcEERKNS0_5PointE;2A.;__base_dtor::(8,44)=#(8,36),(0,6),(8,39),(0,6);:_ZN17MobKeyboardButtonD2Ev;2A.;__comp_dtor::(8,44):_ZN17MobKeyboardButtonD1Ev;2A.;getBounds::(8,45)=#(8,36),(8,37),(8,46)=*(8,47)=k(8,36),(0,6);:_ZNK17MobKeyboardButton9getBoundsEv;2B.;getCharacter::(8,48)=#(8,36),(11,1),(8,46),(0,6);:_ZNK17MobKeyboardButton12getCharacterEv;2B.;getCharLocation::(8,49)=#(8,36),(12,1),(8,46),(0,6);:_ZNK17MobKeyboardButton15getCharLocationEv;2B.;updatePosition::(8,50)=#(8,36),(0,6),(8,39),(12,7),(12,7),(0,6);:_ZN17MobKeyboardButton14updatePositionERKN6MAUtil5PointES3_;2A.;setPressed::(8,51)=#(8,36),(0,6),(8,39),(0,4),(0,6);:_ZN17MobKeyboardButton10setPressedEb;2A.;isPressed::(8,52)=#(8,36),(0,4),(8,39),(0,6);:_ZN17MobKeyboardButton9isPressedEv;2A.;operator=::(8,53)=#(8,36),(8,54)=&(8,36),(8,39),(8,55)=&(8,47),(0,6);:_ZN17MobKeyboardButtonaSERKS_;2A.;__base_ctor::(8,56)=#(8,36),(0,6),(8,39),(8,55),(0,6);:_ZN17MobKeyboardButtonC2ERKS_;2A.;__comp_ctor::(8,56):_ZN17MobKeyboardButtonC1ERKS_;2A.;;",128,0,80,0
	.stabs	"MobKeyboardLayout:Tt(8,57)=s16m_uniqueIdentifier:/0(11,1),0,32;m_language:/0(11,1),32,32;m_layoutType:/0(8,1),64,32;m_buttons:/0(8,58)=*(8,59)=xsVector<MobKeyboardButton*>:,96,32;__base_ctor::(8,60)=#(8,57),(0,6),(8,61)=*(8,57),(8,42),(8,42),(8,1),(0,6);:_ZN17MobKeyboardLayoutC2ERKN6MAUtil11BasicStringIcEES4_N11MobKeyboard10LayoutTypeE;2A.;__comp_ctor::(8,60):_ZN17MobKeyboardLayoutC1ERKN6MAUtil11BasicStringIcEES4_N11MobKeyboard10LayoutTypeE;2A.;__base_dtor::(8,62)=#(8,57),(0,6),(8,61),(0,6);:_ZN17MobKeyboardLayoutD2Ev;2A.;__comp_dtor::(8,62):_ZN17MobKeyboardLayoutD1Ev;2A.;getUniqueIdentifier::(8,63)=#(8,57),(11,1),(8,64)=*(8,65)=k(8,57),(0,6);:_ZNK17MobKeyboardLayout19getUniqueIdentifierEv;2B.;getLanguage::(8,63):_ZNK17MobKeyboardLayout11getLanguageEv;2B.;getLayoutType::(8,66)=#(8,57),(8,1),(8,64),(0,6);:_ZNK17MobKeyboardLayout13getLayoutTypeEv;2B.;getButtons::(8,67)=#(8,57),(8,58),(8,64),(0,6);:_ZNK17MobKeyboardLayout10getButtonsEv;2B.;operator=::(8,68)=#(8,57),(8,69)=&(8,57),(8,61),(8,70)=&(8,65),(0,6);:_ZN17MobKeyboardLayoutaSERKS_;2A.;__base_ctor::(8,71)=#(8,57),(0,6),(8,61),(8,70),(0,6);:_ZN17MobKeyboardLayoutC2ERKS_;2A.;__comp_ctor::(8,71):_ZN17MobKeyboardLayoutC1ERKS_;2A.;;",128,0,134,0
	.stabs	"Vector<MobKeyboardButton*>:Tt(8,59)=s12mSize:/1(0,3),0,32;mCapacity:/1(0,3),32,32;mData:/1(8,72)=*(8,39),64,32;__base_ctor::(8,73)=#(8,59),(0,6),(8,58),(0,3),(0,6);:_ZN6MAUtil6VectorIP17MobKeyboardButtonEC2Ei;2A.;__comp_ctor::(8,73):_ZN6MAUtil6VectorIP17MobKeyboardButtonEC1Ei;2A.;__base_ctor::(8,74)=#(8,59),(0,6),(8,58),(8,75)=*(8,76)=k(8,39),(0,3),(0,6);:_ZN6MAUtil6VectorIP17MobKeyboardButtonEC2EPKS2_i;2A.;__comp_ctor::(8,74):_ZN6MAUtil6VectorIP17MobKeyboardButtonEC1EPKS2_i;2A.;__base_ctor::(8,77)=#(8,59),(0,6),(8,58),(8,78)=&(8,79)=k(8,59),(0,6);:_ZN6MAUtil6VectorIP17MobKeyboardButtonEC2ERKS3_;2A.;__comp_ctor::(8,77):_ZN6MAUtil6VectorIP17MobKeyboardButtonEC1ERKS3_;2A.;__base_dtor::(8,80)=#(8,59),(0,6),(8,58),(0,6);:_ZN6MAUtil6VectorIP17MobKeyboardButtonED2Ev;2A.;__comp_dtor::(8,80):_ZN6MAUtil6VectorIP17MobKeyboardButtonED1Ev;2A.;operator=::(8,81)=#(8,59),(8,82)=&(8,59),(8,58),(8,78),(0,6);:_ZN6MAUtil6VectorIP17MobKeyboardButtonEaSERKS3_;2A.;add::(8,83)=#(8,59),(0,6),(8,58),(8,84)=&(8,76),(0,6);:_ZN6MAUtil6VectorIP17MobKeyboardButtonE3addERKS2_;2A.(8,74):_ZN6MAUtil6VectorIP17MobKeyboardButtonE3addEPKS2_i;2A.;remove::(8,85)=#(8,59),(0,6),(8,58),(8,72),(0,6);:_ZN6MAUtil6VectorIP17MobKeyboardButtonE6removeEPS2_;2A.(8,86)=#(8,59),(0,6),(8,58),(0,3),(0,6);:_ZN6MAUtil6VectorIP17MobKeyboardButtonE6removeEi;2A.(8,87)=#(8,59),(0,6),(8,58),(0,3),(0,3),(0,6);:_ZN6MAUtil6VectorIP17MobKeyboardButtonE6removeEii;2A.;insert::(8,88)=#(8,59),(0,6),(8,58),(0,3),(8,39),(0,6);:_ZN6MAUtil6VectorIP17MobKeyboardButtonE6insertEiS2_;2A.;size::(8,89)=#(8,59),(0,3),(8,90)=*(8,79),(0,6);:_ZNK6MAUtil6VectorIP17MobKeyboardButtonE4sizeEv;2B.;resize::(8,86):_ZN6MAUtil6VectorIP17MobKeyboardButtonE6resizeEi;2A.;reserve::(8,86):_ZN6MAUtil6VectorIP17MobKeyboardButtonE7reserveEi;2A.;clear::(8,80):_ZN6MAUtil6VectorIP17MobKeyboardButtonE5clearEv;2A.;empty::(8,91)=#(8,59),(0,4),(8,90),(0,6);:_ZNK6MAUtil6VectorIP17MobKeyboardButtonE5emptyEv;2B.;capacity::(8,89):_ZNK6MAUtil6VectorIP17MobKeyboardButtonE8capacityEv;2B.;begin::(8,92)=#(8,59),(8,72),(8,58),(0,6);:_ZN6MAUtil6VectorIP17MobKeyboardButtonE5beginEv;2A.;end::(8,92):_ZN6MAUtil6VectorIP17MobKeyboardButtonE3endEv;2A.;begin::(8,93)=#(8,59),(8,75),(8,90),(0,6);:_ZNK6MAUtil6VectorIP17MobKeyboardButtonE5beginEv;2B.;end::(8,93):_ZNK6MAUtil6VectorIP17MobKeyboardButtonE3endEv;2B.;operator[]::(8,94)=#(8,59),(8,95)=&(8,39),(8,58),(0,3),(0,6);:_ZN6MAUtil6VectorIP17MobKeyboardButtonEixEi;2A.(8,96)=#(8,59),(8,84),(8,90),(0,3),(0,6);:_ZNK6MAUtil6VectorIP17MobKeyboardButtonEixEi;2B.;pointer::(8,93):_ZNK6MAUtil6VectorIP17MobKeyboardButtonE7pointerEv;2B.(8,92):_ZN6MAUtil6VectorIP17MobKeyboardButtonE7pointerEv;2A.;;",128,0,94,0
	.stabn	162,0,0,0
	.stabs	"E:\\My Dropbox\\workspace\\GameCards\\MobidexANC\\UI\\/Widgets/MobEditBox.h",130,0,0,0
	.stabs	"c:/MoSync/include/MAUI/EditBox.h",130,0,0,0
	.stabs	"c:/MoSync/include/MAUI/Font.h",130,0,0,0
	.stabs	"CharDescriptor:Tt(20,1)=s16x:(0,12),0,16;y:(0,12),16,16;width:(0,12),32,16;height:(0,12),48,16;xOffset:(0,13),64,16;yOffset:(0,13),80,16;xAdvance:(0,13),96,16;page:(0,12),112,16;operator=::(20,2)=#(20,1),(20,3)=&(20,1),(20,4)=*(20,1),(20,5)=&(20,6)=k(20,1),(0,6);:_ZN4MAUI14CharDescriptoraSERKS0_;2A.;__base_ctor::(20,7)=#(20,1),(0,6),(20,4),(20,5),(0,6);:_ZN4MAUI14CharDescriptorC2ERKS0_;2A.;__comp_ctor::(20,7):_ZN4MAUI14CharDescriptorC1ERKS0_;2A.;__base_ctor::(20,8)=#(20,1),(0,6),(20,4),(0,6);:_ZN4MAUI14CharDescriptorC2Ev;2A.;__comp_ctor::(20,8):_ZN4MAUI14CharDescriptorC1Ev;2A.;;",128,0,40,0
	.stabs	"Charset:Tt(20,9)=s4122lineHeight:(0,12),0,16;base:(0,12),16,16;width:(0,12),32,16;height:(0,12),48,16;pages:(0,12),64,16;chars:(20,10)=ar(3,53);0;255;(20,1),80,32768;name:(20,11)=ar(3,53);0;15;(0,19),32848,128;operator=::(20,12)=#(20,9),(20,13)=&(20,9),(20,14)=*(20,9),(20,15)=&(20,16)=k(20,9),(0,6);:_ZN4MAUI7CharsetaSERKS0_;2A.;__base_ctor::(20,17)=#(20,9),(0,6),(20,14),(20,15),(0,6);:_ZN4MAUI7CharsetC2ERKS0_;2A.;__comp_ctor::(20,17):_ZN4MAUI7CharsetC1ERKS0_;2A.;__base_ctor::(20,18)=#(20,9),(0,6),(20,14),(0,6);:_ZN4MAUI7CharsetC2Ev;2A.;__comp_ctor::(20,18):_ZN4MAUI7CharsetC1Ev;2A.;;",128,0,55,0
	.stabs	"Font:Tt(20,19)=s12mFontImage:/1(3,10),0,32;mCharset:/1(20,14),32,32;mLineSpacing:/1(0,3),64,32;__base_ctor::(20,20)=#(20,19),(0,6),(20,21)=*(20,19),(3,10),(0,6);:_ZN4MAUI4FontC2Ei;2A.;__comp_ctor::(20,20):_ZN4MAUI4FontC1Ei;2A.;__base_dtor::(20,22)=#(20,19),(0,6),(20,21),(0,6);:_ZN4MAUI4FontD2Ev;2A.;__comp_dtor::(20,22):_ZN4MAUI4FontD1Ev;2A.;setResource::(20,20):_ZN4MAUI4Font11setResourceEi;2A.;getHandle::(20,23)=#(20,19),(3,10),(20,24)=*(20,25)=k(20,19),(0,6);:_ZNK4MAUI4Font9getHandleEv;2B.;getName::(20,26)=#(20,19),(8,8),(20,24),(0,6);:_ZNK4MAUI4Font7getNameEv;2B.;setLineSpacing::(20,27)=#(20,19),(0,6),(20,21),(0,3),(0,6);:_ZN4MAUI4Font14setLineSpacingEi;2A.;getLineSpacing::(20,28)=#(20,19),(0,3),(20,24),(0,6);:_ZNK4MAUI4Font14getLineSpacingEv;2B.;getStringDimensions::(20,29)=#(20,19),(3,11),(20,24),(8,8),(0,3),(0,6);:_ZNK4MAUI4Font19getStringDimensionsEPKci;2B.;getBoundedStringDimensions::(20,30)=#(20,19),(3,11),(20,24),(8,8),(8,40),(0,3),(0,6);:_ZNK4MAUI4Font26getBoundedStringDimensionsEPKcRKN6MAUtil4RectEi;2B.;getLineBreak::(20,31)=#(20,19),(0,3),(20,24),(0,3),(8,8),(8,40),(0,6);:_ZNK4MAUI4Font12getLineBreakEiPKcRKN6MAUtil4RectE;2B.;calculateLine::(20,31):_ZNK4MAUI4Font13calculateLineEiPKcRKN6MAUtil4RectE;2B.;calculateRectOfIndex::(20,32)=#(20,19),(8,37),(20,24),(0,3),(8,8),(8,40),(0,6);:_ZNK4MAUI4Font20calculateRectOfIndexEiPKcRKN6MAUtil4RectE;2B.;drawString::(20,33)=#(20,19),(0,6),(20,21),(8,8),(0,3),(0,3),(0,6);:_ZN4MAUI4Font10drawStringEPKcii;2A.;drawBoundedString::(20,34)=#(20,19),(0,6),(20,21),(8,8),(0,3),(0,3),(8,40),(0,6);:_ZN4MAUI4Font17drawBoundedStringEPKciiRKN6MAUtil4RectE;2A.;getCharset::(20,35)=#(20,19),(20,15),(20,24),(0,6);:_ZNK4MAUI4Font10getCharsetEv;2B.;calcCharPos::(20,36)=#(20,19),(0,6),(20,21),(0,19),(13,34),(13,34),(0,6);:_ZN4MAUI4Font11calcCharPosEcPiS1_;1A.;calcLineBreaks::(20,37)=#(20,19),(0,6),(20,24),(8,8),(0,3),(0,3),(8,40),(0,6);:_ZNK4MAUI4Font14calcLineBreaksEPKciiRKN6MAUtil4RectE;1B.;operator=::(20,38)=#(20,19),(20,39)=&(20,19),(20,21),(20,40)=&(20,25),(0,6);:_ZN4MAUI4FontaSERKS0_;2A.;__base_ctor::(20,41)=#(20,19),(0,6),(20,21),(20,40),(0,6);:_ZN4MAUI4FontC2ERKS0_;2A.;__comp_ctor::(20,41):_ZN4MAUI4FontC1ERKS0_;2A.;;",128,0,70,0
	.stabn	162,0,0,0
	.stabs	"c:/MoSync/include/MAUtil/CharInput.h",130,0,0,0
	.stabs	"CharInputCallback:t(21,1)=(21,2)=*(13,43)",128,0,64,0
	.stabs	"StartTimerCallback:t(21,3)=(21,4)=*(21,5)=f(0,6)",128,0,70,0
	.stabs	"StopTimerCallback:t(21,6)=(21,2)",128,0,75,0
	.stabs	"CharCallback:t(21,7)=(21,8)=*(21,9)=f(0,6)",128,0,110,0
	.stabs	"CharInput::CharMode:t(21,10)=eLOWERCASE:0,UPPERCASE:1,NUMBERS:2,;",128,0,182,0
	.stabs	"Vector<MAUtil::ListenerSet<MAUtil::CharInputListener>::Combo>:Tt(21,11)=s12mSize:/1(0,3),0,32;mCapacity:/1(0,3),32,32;mData:/1(21,12)=*(21,13)=xsCombo:,64,32;__base_ctor::(21,14)=#(21,11),(0,6),(21,15)=*(21,11),(0,3),(0,6);:_ZN6MAUtil6VectorINS_11ListenerSetINS_17CharInputListenerEE5ComboEEC2Ei;2A.;__comp_ctor::(21,14):_ZN6MAUtil6VectorINS_11ListenerSetINS_17CharInputListenerEE5ComboEEC1Ei;2A.;__base_ctor::(21,16)=#(21,11),(0,6),(21,15),(21,17)=*(21,18)=k(21,13),(0,3),(0,6);:_ZN6MAUtil6VectorINS_11ListenerSetINS_17CharInputListenerEE5ComboEEC2EPKS4_i;2A.;__comp_ctor::(21,16):_ZN6MAUtil6VectorINS_11ListenerSetINS_17CharInputListenerEE5ComboEEC1EPKS4_i;2A.;__base_ctor::(21,19)=#(21,11),(0,6),(21,15),(21,20)=&(21,21)=k(21,11),(0,6);:_ZN6MAUtil6VectorINS_11ListenerSetINS_17CharInputListenerEE5ComboEEC2ERKS5_;2A.;__comp_ctor::(21,19):_ZN6MAUtil6VectorINS_11ListenerSetINS_17CharInputListenerEE5ComboEEC1ERKS5_;2A.;__base_dtor::(21,22)=#(21,11),(0,6),(21,15),(0,6);:_ZN6MAUtil6VectorINS_11ListenerSetINS_17CharInputListenerEE5ComboEED2Ev;2A.;__comp_dtor::(21,22):_ZN6MAUtil6VectorINS_11ListenerSetINS_17CharInputListenerEE5ComboEED1Ev;2A.;operator=::(21,23)=#(21,11),(21,24)=&(21,11),(21,15),(21,20),(0,6);:_ZN6MAUtil6VectorINS_11ListenerSetINS_17CharInputListenerEE5ComboEEaSERKS5_;2A.;add::(21,25)=#(21,11),(0,6),(21,15),(21,26)=&(21,18),(0,6);:_ZN6MAUtil6VectorINS_11ListenerSetINS_17CharInputListenerEE5ComboEE3addERKS4_;2A.(21,16):_ZN6MAUtil6VectorINS_11ListenerSetINS_17CharInputListenerEE5ComboEE3addEPKS4_i;2A.;remove::(21,27)=#(21,11),(0,6),(21,15),(21,12),(0,6);:_ZN6MAUtil6VectorINS_11ListenerSetINS_17CharInputListenerEE5ComboEE6removeEPS4_;2A.(21,28)=#(21,11),(0,6),(21,15),(0,3),(0,6);:_ZN6MAUtil6VectorINS_11ListenerSetINS_17CharInputListenerEE5ComboEE6removeEi;2A.(21,29)=#(21,11),(0,6),(21,15),(0,3),(0,3),(0,6);:_ZN6MAUtil6VectorINS_11ListenerSetINS_17CharInputListenerEE5ComboEE6removeEii;2A.;insert::(21,30)=#(21,11),(0,6),(21,15),(0,3),(21,13),(0,6);:_ZN6MAUtil6VectorINS_11ListenerSetINS_17CharInputListenerEE5ComboEE6insertEiS4_;2A.;size::(21,31)=#(21,11),(0,3),(21,32)=*(21,21),(0,6);:_ZNK6MAUtil6VectorINS_11ListenerSetINS_17CharInputListenerEE5ComboEE4sizeEv;2B.;resize::(21,28):_ZN6MAUtil6VectorINS_11ListenerSetINS_17CharInputListenerEE5ComboEE6resizeEi;2A.;reserve::(21,28):_ZN6MAUtil6VectorINS_11ListenerSetINS_17CharInputListenerEE5ComboEE7reserveEi;2A.;clear::(21,22):_ZN6MAUtil6VectorINS_11ListenerSetINS_17CharInputListenerEE5ComboEE5clearEv;2A.;empty::(21,33)=#(21,11),(0,4),(21,32),(0,6);:_ZNK6MAUtil6VectorINS_11ListenerSetINS_17CharInputListenerEE5ComboEE5emptyEv;2B.;capacity::(21,31):_ZNK6MAUtil6VectorINS_11ListenerSetINS_17CharInputListenerEE5ComboEE8capacityEv;2B.;begin::(21,34)=#(21,11),(21,12),(21,15),(0,6);:_ZN6MAUtil6VectorINS_11ListenerSetINS_17CharInputListenerEE5ComboEE5beginEv;2A.;end::(21,34):_ZN6MAUtil6VectorINS_11ListenerSetINS_17CharInputListenerEE5ComboEE3endEv;2A.;begin::(21,35)=#(21,11),(21,17),(21,32),(0,6);:_ZNK6MAUtil6VectorINS_11ListenerSetINS_17CharInputListenerEE5ComboEE5beginEv;2B.;end::(21,35):_ZNK6MAUtil6VectorINS_11ListenerSetINS_17CharInputListenerEE5ComboEE3endEv;2B.;operator[]::(21,36)=#(21,11),(21,37)=&(21,13),(21,15),(0,3),(0,6);:_ZN6MAUtil6VectorINS_11ListenerSetINS_17CharInputListenerEE5ComboEEixEi;2A.(21,38)=#(21,11),(21,26),(21,32),(0,3),(0,6);:_ZNK6MAUtil6VectorINS_11ListenerSetINS_17CharInputListenerEE5ComboEEixEi;2B.;pointer::(21,35):_ZNK6MAUtil6VectorINS_11ListenerSetINS_17CharInputListenerEE5ComboEE7pointerEv;2B.(21,34):_ZN6MAUtil6VectorINS_11ListenerSetINS_17CharInputListenerEE5ComboEE7pointerEv;2A.;;",128,0,94,0
	.stabs	"ListenerSet<MAUtil::CharInputListener>:Tt(21,39)=s16mRunning:/0(0,4),0,8;mUpdateRequired:/0(0,4),8,8;mShouldDelete:/0(0,4),16,8;mVec:/0(21,11),32,96;__base_ctor::(21,40)=#(21,39),(0,6),(21,41)=*(21,39),(0,4),(0,6);:_ZN6MAUtil11ListenerSetINS_17CharInputListenerEEC2Eb;2A.;__comp_ctor::(21,40):_ZN6MAUtil11ListenerSetINS_17CharInputListenerEEC1Eb;2A.;begin::(21,42)=#(21,39),(21,43)=xsiterator:,(21,41),(0,6);:_ZN6MAUtil11ListenerSetINS_17CharInputListenerEE5beginEv;2A.;add::(21,44)=#(21,39),(0,6),(21,41),(21,45)=*(21,46)=xsCharInputListener:,(0,6);:_ZN6MAUtil11ListenerSetINS_17CharInputListenerEE3addEPS1_;2A.;remove::(21,44):_ZN6MAUtil11ListenerSetINS_17CharInputListenerEE6removeEPS1_;2A.;contains::(21,47)=#(21,39),(0,4),(21,41),(21,45),(0,6);:_ZN6MAUtil11ListenerSetINS_17CharInputListenerEE8containsEPS1_;2A.;setRunning::(21,48)=#(21,39),(0,6),(21,41),(0,4),(0,6);:_ZN6MAUtil11ListenerSetINS_17CharInputListenerEE10setRunningEb;2A.;size::(21,49)=#(21,39),(0,3),(21,50)=*(21,51)=k(21,39),(0,6);:_ZNK6MAUtil11ListenerSetINS_17CharInputListenerEE4sizeEv;2B.;operator=::(21,52)=#(21,39),(21,53)=&(21,39),(21,41),(21,54)=&(21,51),(0,6);:_ZN6MAUtil11ListenerSetINS_17CharInputListenerEEaSERKS2_;2A.;__base_ctor::(21,55)=#(21,39),(0,6),(21,41),(21,54),(0,6);:_ZN6MAUtil11ListenerSetINS_17CharInputListenerEEC2ERKS2_;2A.;__comp_ctor::(21,55):_ZN6MAUtil11ListenerSetINS_17CharInputListenerEEC1ERKS2_;2A.;__base_dtor::(21,56)=#(21,39),(0,6),(21,41),(0,6);:_ZN6MAUtil11ListenerSetINS_17CharInputListenerEED2Ev;2A.;__comp_dtor::(21,56):_ZN6MAUtil11ListenerSetINS_17CharInputListenerEED1Ev;2A.;;",128,0,46,0
	.stabn	162,0,0,0
	.stabs	"c:/MoSync/include/MAUI/Label.h",130,0,0,0
	.stabs	"Label::HorizontalAlignment:t(22,1)=eHA_LEFT:0,HA_CENTER:1,HA_RIGHT:2,;",128,0,44,0
	.stabs	"Label::VerticalAlignment:t(22,2)=eVA_TOP:0,VA_CENTER:1,VA_BOTTOM:2,;",128,0,50,0
	.stabn	162,0,0,0
	.stabs	"EditBox::InputMode:t(19,1)=eIM_NUMBERS:0,IM_STANDARD:1,IM_QWERTY:2,;",128,0,69,0
	.stabs	"Vector<MAUI::EditBoxListener*>:Tt(19,2)=s12mSize:/1(0,3),0,32;mCapacity:/1(0,3),32,32;mData:/1(19,3)=*(19,4)=*(19,5)=xsEditBoxListener:,64,32;__base_ctor::(19,6)=#(19,2),(0,6),(19,7)=*(19,2),(0,3),(0,6);:_ZN6MAUtil6VectorIPN4MAUI15EditBoxListenerEEC2Ei;2A.;__comp_ctor::(19,6):_ZN6MAUtil6VectorIPN4MAUI15EditBoxListenerEEC1Ei;2A.;__base_ctor::(19,8)=#(19,2),(0,6),(19,7),(19,9)=*(19,10)=k(19,4),(0,3),(0,6);:_ZN6MAUtil6VectorIPN4MAUI15EditBoxListenerEEC2EPKS3_i;2A.;__comp_ctor::(19,8):_ZN6MAUtil6VectorIPN4MAUI15EditBoxListenerEEC1EPKS3_i;2A.;__base_ctor::(19,11)=#(19,2),(0,6),(19,7),(19,12)=&(19,13)=k(19,2),(0,6);:_ZN6MAUtil6VectorIPN4MAUI15EditBoxListenerEEC2ERKS4_;2A.;__comp_ctor::(19,11):_ZN6MAUtil6VectorIPN4MAUI15EditBoxListenerEEC1ERKS4_;2A.;__base_dtor::(19,14)=#(19,2),(0,6),(19,7),(0,6);:_ZN6MAUtil6VectorIPN4MAUI15EditBoxListenerEED2Ev;2A.;__comp_dtor::(19,14):_ZN6MAUtil6VectorIPN4MAUI15EditBoxListenerEED1Ev;2A.;operator=::(19,15)=#(19,2),(19,16)=&(19,2),(19,7),(19,12),(0,6);:_ZN6MAUtil6VectorIPN4MAUI15EditBoxListenerEEaSERKS4_;2A.;add::(19,17)=#(19,2),(0,6),(19,7),(19,18)=&(19,10),(0,6);:_ZN6MAUtil6VectorIPN4MAUI15EditBoxListenerEE3addERKS3_;2A.(19,8):_ZN6MAUtil6VectorIPN4MAUI15EditBoxListenerEE3addEPKS3_i;2A.;remove::(19,19)=#(19,2),(0,6),(19,7),(19,3),(0,6);:_ZN6MAUtil6VectorIPN4MAUI15EditBoxListenerEE6removeEPS3_;2A.(19,20)=#(19,2),(0,6),(19,7),(0,3),(0,6);:_ZN6MAUtil6VectorIPN4MAUI15EditBoxListenerEE6removeEi;2A.(19,21)=#(19,2),(0,6),(19,7),(0,3),(0,3),(0,6);:_ZN6MAUtil6VectorIPN4MAUI15EditBoxListenerEE6removeEii;2A.;insert::(19,22)=#(19,2),(0,6),(19,7),(0,3),(19,4),(0,6);:_ZN6MAUtil6VectorIPN4MAUI15EditBoxListenerEE6insertEiS3_;2A.;size::(19,23)=#(19,2),(0,3),(19,24)=*(19,13),(0,6);:_ZNK6MAUtil6VectorIPN4MAUI15EditBoxListenerEE4sizeEv;2B.;resize::(19,20):_ZN6MAUtil6VectorIPN4MAUI15EditBoxListenerEE6resizeEi;2A.;reserve::(19,20):_ZN6MAUtil6VectorIPN4MAUI15EditBoxListenerEE7reserveEi;2A.;clear::(19,14):_ZN6MAUtil6VectorIPN4MAUI15EditBoxListenerEE5clearEv;2A.;empty::(19,25)=#(19,2),(0,4),(19,24),(0,6);:_ZNK6MAUtil6VectorIPN4MAUI15EditBoxListenerEE5emptyEv;2B.;capacity::(19,23):_ZNK6MAUtil6VectorIPN4MAUI15EditBoxListenerEE8capacityEv;2B.;begin::(19,26)=#(19,2),(19,3),(19,7),(0,6);:_ZN6MAUtil6VectorIPN4MAUI15EditBoxListenerEE5beginEv;2A.;end::(19,26):_ZN6MAUtil6VectorIPN4MAUI15EditBoxListenerEE3endEv;2A.;begin::(19,27)=#(19,2),(19,9),(19,24),(0,6);:_ZNK6MAUtil6VectorIPN4MAUI15EditBoxListenerEE5beginEv;2B.;end::(19,27):_ZNK6MAUtil6VectorIPN4MAUI15EditBoxListenerEE3endEv;2B.;operator[]::(19,28)=#(19,2),(19,29)=&(19,4),(19,7),(0,3),(0,6);:_ZN6MAUtil6VectorIPN4MAUI15EditBoxListenerEEixEi;2A.(19,30)=#(19,2),(19,18),(19,24),(0,3),(0,6);:_ZNK6MAUtil6VectorIPN4MAUI15EditBoxListenerEEixEi;2B.;pointer::(19,27):_ZNK6MAUtil6VectorIPN4MAUI15EditBoxListenerEE7pointerEv;2B.(19,26):_ZN6MAUtil6VectorIPN4MAUI15EditBoxListenerEE7pointerEv;2A.;;",128,0,94,0
	.stabn	162,0,0,0
	.stabn	162,0,0,0
	.stabs	"E:\\My Dropbox\\workspace\\GameCards\\MobidexANC\\UI\\/../Util.h",130,0,0,0
	.stabs	"c:/MoSync/include/MAUI/Layout.h",130,0,0,0
	.stabs	"Layout::HorizontalAlignment:t(24,1)=eHA_LEFT:0,HA_CENTER:1,HA_RIGHT:2,;",128,0,40,0
	.stabs	"Layout::VerticalAlignment:t(24,2)=eVA_TOP:0,VA_CENTER:1,VA_BOTTOM:2,;",128,0,46,0
	.stabn	162,0,0,0
	.stabs	"c:/MoSync/include/MAUI/Image.h",130,0,0,0
	.stabn	162,0,0,0
	.stabs	"c:/MoSync/include/MAUI/ListBox.h",130,0,0,0
	.stabs	"c:/MoSync/include/MAUI/Engine.h",130,0,0,0
	.stabn	162,0,0,0
	.stabs	"ListBox::ListBoxOrientation:t(26,1)=eLBO_HORIZONTAL:0,LBO_VERTICAL:1,;",128,0,59,0
	.stabs	"ListBox::ListBoxAnimationType:t(26,2)=eLBA_NONE:0,LBA_LINEAR:1,;",128,0,64,0
	.stabs	"Vector<MAUI::ItemSelectedListener*>:Tt(26,3)=s12mSize:/1(0,3),0,32;mCapacity:/1(0,3),32,32;mData:/1(26,4)=*(26,5)=*(26,6)=xsItemSelectedListener:,64,32;__base_ctor::(26,7)=#(26,3),(0,6),(26,8)=*(26,3),(0,3),(0,6);:_ZN6MAUtil6VectorIPN4MAUI20ItemSelectedListenerEEC2Ei;2A.;__comp_ctor::(26,7):_ZN6MAUtil6VectorIPN4MAUI20ItemSelectedListenerEEC1Ei;2A.;__base_ctor::(26,9)=#(26,3),(0,6),(26,8),(26,10)=*(26,11)=k(26,5),(0,3),(0,6);:_ZN6MAUtil6VectorIPN4MAUI20ItemSelectedListenerEEC2EPKS3_i;2A.;__comp_ctor::(26,9):_ZN6MAUtil6VectorIPN4MAUI20ItemSelectedListenerEEC1EPKS3_i;2A.;__base_ctor::(26,12)=#(26,3),(0,6),(26,8),(26,13)=&(26,14)=k(26,3),(0,6);:_ZN6MAUtil6VectorIPN4MAUI20ItemSelectedListenerEEC2ERKS4_;2A.;__comp_ctor::(26,12):_ZN6MAUtil6VectorIPN4MAUI20ItemSelectedListenerEEC1ERKS4_;2A.;__base_dtor::(26,15)=#(26,3),(0,6),(26,8),(0,6);:_ZN6MAUtil6VectorIPN4MAUI20ItemSelectedListenerEED2Ev;2A.;__comp_dtor::(26,15):_ZN6MAUtil6VectorIPN4MAUI20ItemSelectedListenerEED1Ev;2A.;operator=::(26,16)=#(26,3),(26,17)=&(26,3),(26,8),(26,13),(0,6);:_ZN6MAUtil6VectorIPN4MAUI20ItemSelectedListenerEEaSERKS4_;2A.;add::(26,18)=#(26,3),(0,6),(26,8),(26,19)=&(26,11),(0,6);:_ZN6MAUtil6VectorIPN4MAUI20ItemSelectedListenerEE3addERKS3_;2A.(26,9):_ZN6MAUtil6VectorIPN4MAUI20ItemSelectedListenerEE3addEPKS3_i;2A.;remove::(26,20)=#(26,3),(0,6),(26,8),(26,4),(0,6);:_ZN6MAUtil6VectorIPN4MAUI20ItemSelectedListenerEE6removeEPS3_;2A.(26,21)=#(26,3),(0,6),(26,8),(0,3),(0,6);:_ZN6MAUtil6VectorIPN4MAUI20ItemSelectedListenerEE6removeEi;2A.(26,22)=#(26,3),(0,6),(26,8),(0,3),(0,3),(0,6);:_ZN6MAUtil6VectorIPN4MAUI20ItemSelectedListenerEE6removeEii;2A.;insert::(26,23)=#(26,3),(0,6),(26,8),(0,3),(26,5),(0,6);:_ZN6MAUtil6VectorIPN4MAUI20ItemSelectedListenerEE6insertEiS3_;2A.;size::(26,24)=#(26,3),(0,3),(26,25)=*(26,14),(0,6);:_ZNK6MAUtil6VectorIPN4MAUI20ItemSelectedListenerEE4sizeEv;2B.;resize::(26,21):_ZN6MAUtil6VectorIPN4MAUI20ItemSelectedListenerEE6resizeEi;2A.;reserve::(26,21):_ZN6MAUtil6VectorIPN4MAUI20ItemSelectedListenerEE7reserveEi;2A.;clear::(26,15):_ZN6MAUtil6VectorIPN4MAUI20ItemSelectedListenerEE5clearEv;2A.;empty::(26,26)=#(26,3),(0,4),(26,25),(0,6);:_ZNK6MAUtil6VectorIPN4MAUI20ItemSelectedListenerEE5emptyEv;2B.;capacity::(26,24):_ZNK6MAUtil6VectorIPN4MAUI20ItemSelectedListenerEE8capacityEv;2B.;begin::(26,27)=#(26,3),(26,4),(26,8),(0,6);:_ZN6MAUtil6VectorIPN4MAUI20ItemSelectedListenerEE5beginEv;2A.;end::(26,27):_ZN6MAUtil6VectorIPN4MAUI20ItemSelectedListenerEE3endEv;2A.;begin::(26,28)=#(26,3),(26,10),(26,25),(0,6);:_ZNK6MAUtil6VectorIPN4MAUI20ItemSelectedListenerEE5beginEv;2B.;end::(26,28):_ZNK6MAUtil6VectorIPN4MAUI20ItemSelectedListenerEE3endEv;2B.;operator[]::(26,29)=#(26,3),(26,30)=&(26,5),(26,8),(0,3),(0,6);:_ZN6MAUtil6VectorIPN4MAUI20ItemSelectedListenerEEixEi;2A.(26,31)=#(26,3),(26,19),(26,25),(0,3),(0,6);:_ZNK6MAUtil6VectorIPN4MAUI20ItemSelectedListenerEEixEi;2B.;pointer::(26,28):_ZNK6MAUtil6VectorIPN4MAUI20ItemSelectedListenerEE7pointerEv;2B.(26,27):_ZN6MAUtil6VectorIPN4MAUI20ItemSelectedListenerEE7pointerEv;2A.;;",128,0,94,0
	.stabn	162,0,0,0
	.stabs	"E:\\My Dropbox\\workspace\\GameCards\\MobidexANC\\UI\\/../Card.h",130,0,0,0
	.stabs	"Card:Tt(28,1)=s36quantity:/0(11,1),0,32;text:/0(11,1),32,32;thumb:/0(11,1),64,32;front:/0(11,1),96,32;back:/0(11,1),128,32;id:/0(11,1),160,32;rate:/0(11,1),192,32;value:/0(11,1),224,32;loaded:/0(0,4),256,8;getQuantity::(28,2)=#(28,1),(11,1),(28,3)=*(28,1),(0,6);:_ZN4Card11getQuantityEv;2A.;setQuantity::(28,4)=#(28,1),(0,6),(28,3),(8,8),(0,6);:_ZN4Card11setQuantityEPKc;2A.;getText::(28,2):_ZN4Card7getTextEv;2A.;setText::(28,4):_ZN4Card7setTextEPKc;2A.;getThumb::(28,2):_ZN4Card8getThumbEv;2A.;setThumb::(28,4):_ZN4Card8setThumbEPKc;2A.;getFront::(28,2):_ZN4Card8getFrontEv;2A.;setFront::(28,4):_ZN4Card8setFrontEPKc;2A.;getBack::(28,2):_ZN4Card7getBackEv;2A.;setBack::(28,4):_ZN4Card7setBackEPKc;2A.;getId::(28,2):_ZN4Card5getIdEv;2A.;setId::(28,4):_ZN4Card5setIdEPKc;2A.;getRate::(28,2):_ZN4Card7getRateEv;2A.;setRate::(28,4):_ZN4Card7setRateEPKc;2A.;getValue::(28,2):_ZN4Card8getValueEv;2A.;setValue::(28,4):_ZN4Card8setValueEPKc;2A.;getLoaded::(28,5)=#(28,1),(0,4),(28,3),(0,6);:_ZN4Card9getLoadedEv;2A.;setLoaded::(28,6)=#(28,1),(0,6),(28,3),(0,4),(0,6);:_ZN4Card9setLoadedEb;2A.;getAll::(28,2):_ZN4Card6getAllEv;2A.;setAll::(28,4):_ZN4Card6setAllEPKc;2A.;operator=::(28,7)=#(28,1),(28,8)=&(28,1),(28,3),(28,9)=&(28,10)=k(28,1),(0,6);:_ZN4CardaSERKS_;2A.;__base_ctor::(28,11)=#(28,1),(0,6),(28,3),(28,9),(0,6);:_ZN4CardC2ERKS_;2A.;__comp_ctor::(28,11):_ZN4CardC1ERKS_;2A.;__base_ctor::(28,12)=#(28,1),(0,6),(28,3),(0,6);:_ZN4CardC2Ev;2A.;__comp_ctor::(28,12):_ZN4CardC1Ev;2A.;__base_dtor::(28,12):_ZN4CardD2Ev;2A.;__comp_dtor::(28,12):_ZN4CardD1Ev;2A.;;",128,0,8,0
	.stabn	162,0,0,0
	.stabs	"E:\\My Dropbox\\workspace\\GameCards\\MobidexANC\\UI\\/../ImageCache.h",130,0,0,0
	.stabs	"E:\\My Dropbox\\workspace\\GameCards\\MobidexANC\\UI\\/../ImageCacheRequest.h",130,0,0,0
	.stabs	"ImageCacheRequest:Tt(30,1)=s16card:/0(28,3),0,32;img:/0(30,2)=*(30,3)=xsImage:,32,32;height:/0(0,3),64,32;type:/0(0,3),96,32;__base_ctor::(30,4)=#(30,1),(0,6),(30,5)=*(30,1),(0,6);:_ZN17ImageCacheRequestC2Ev;2A.;__comp_ctor::(30,4):_ZN17ImageCacheRequestC1Ev;2A.;__base_ctor::(30,6)=#(30,1),(0,6),(30,5),(30,2),(28,3),(0,3),(0,3),(0,6);:_ZN17ImageCacheRequestC2EPN4MAUI5ImageEP4Cardii;2A.;__comp_ctor::(30,6):_ZN17ImageCacheRequestC1EPN4MAUI5ImageEP4Cardii;2A.;__base_dtor::(30,4):_ZN17ImageCacheRequestD2Ev;2A.;__comp_dtor::(30,4):_ZN17ImageCacheRequestD1Ev;2A.;getUrl::(30,7)=#(30,1),(11,1),(30,5),(0,6);:_ZN17ImageCacheRequest6getUrlEv;2A.;getSaveName::(30,7):_ZN17ImageCacheRequest11getSaveNameEv;2A.;getImage::(30,8)=#(30,1),(30,2),(30,5),(0,6);:_ZN17ImageCacheRequest8getImageEv;2A.;getHeight::(30,9)=#(30,1),(0,3),(30,5),(0,6);:_ZN17ImageCacheRequest9getHeightEv;2A.;getType::(30,9):_ZN17ImageCacheRequest7getTypeEv;2A.;operator=::(30,10)=#(30,1),(30,11)=&(30,1),(30,5),(30,12)=&(30,13)=k(30,1),(0,6);:_ZN17ImageCacheRequestaSERKS_;2A.;__base_ctor::(30,14)=#(30,1),(0,6),(30,5),(30,12),(0,6);:_ZN17ImageCacheRequestC2ERKS_;2A.;__comp_ctor::(30,14):_ZN17ImageCacheRequestC1ERKS_;2A.;;",128,0,14,0
	.stabn	162,0,0,0
	.stabs	"c:/MoSync/include/MAUtil/Downloader.h",130,0,0,0
	.stabs	"c:/MoSync/include/MAUtil/Connection.h",130,0,0,0
	.stabn	162,0,0,0
	.stabs	"Vector<MAUtil::DownloadListener*>:Tt(31,1)=s12mSize:/1(0,3),0,32;mCapacity:/1(0,3),32,32;mData:/1(31,2)=*(31,3)=*(31,4)=xsDownloadListener:,64,32;__base_ctor::(31,5)=#(31,1),(0,6),(31,6)=*(31,1),(0,3),(0,6);:_ZN6MAUtil6VectorIPNS_16DownloadListenerEEC2Ei;2A.;__comp_ctor::(31,5):_ZN6MAUtil6VectorIPNS_16DownloadListenerEEC1Ei;2A.;__base_ctor::(31,7)=#(31,1),(0,6),(31,6),(31,8)=*(31,9)=k(31,3),(0,3),(0,6);:_ZN6MAUtil6VectorIPNS_16DownloadListenerEEC2EPKS2_i;2A.;__comp_ctor::(31,7):_ZN6MAUtil6VectorIPNS_16DownloadListenerEEC1EPKS2_i;2A.;__base_ctor::(31,10)=#(31,1),(0,6),(31,6),(31,11)=&(31,12)=k(31,1),(0,6);:_ZN6MAUtil6VectorIPNS_16DownloadListenerEEC2ERKS3_;2A.;__comp_ctor::(31,10):_ZN6MAUtil6VectorIPNS_16DownloadListenerEEC1ERKS3_;2A.;__base_dtor::(31,13)=#(31,1),(0,6),(31,6),(0,6);:_ZN6MAUtil6VectorIPNS_16DownloadListenerEED2Ev;2A.;__comp_dtor::(31,13):_ZN6MAUtil6VectorIPNS_16DownloadListenerEED1Ev;2A.;operator=::(31,14)=#(31,1),(31,15)=&(31,1),(31,6),(31,11),(0,6);:_ZN6MAUtil6VectorIPNS_16DownloadListenerEEaSERKS3_;2A.;add::(31,16)=#(31,1),(0,6),(31,6),(31,17)=&(31,9),(0,6);:_ZN6MAUtil6VectorIPNS_16DownloadListenerEE3addERKS2_;2A.(31,7):_ZN6MAUtil6VectorIPNS_16DownloadListenerEE3addEPKS2_i;2A.;remove::(31,18)=#(31,1),(0,6),(31,6),(31,2),(0,6);:_ZN6MAUtil6VectorIPNS_16DownloadListenerEE6removeEPS2_;2A.(31,19)=#(31,1),(0,6),(31,6),(0,3),(0,6);:_ZN6MAUtil6VectorIPNS_16DownloadListenerEE6removeEi;2A.(31,20)=#(31,1),(0,6),(31,6),(0,3),(0,3),(0,6);:_ZN6MAUtil6VectorIPNS_16DownloadListenerEE6removeEii;2A.;insert::(31,21)=#(31,1),(0,6),(31,6),(0,3),(31,3),(0,6);:_ZN6MAUtil6VectorIPNS_16DownloadListenerEE6insertEiS2_;2A.;size::(31,22)=#(31,1),(0,3),(31,23)=*(31,12),(0,6);:_ZNK6MAUtil6VectorIPNS_16DownloadListenerEE4sizeEv;2B.;resize::(31,19):_ZN6MAUtil6VectorIPNS_16DownloadListenerEE6resizeEi;2A.;reserve::(31,19):_ZN6MAUtil6VectorIPNS_16DownloadListenerEE7reserveEi;2A.;clear::(31,13):_ZN6MAUtil6VectorIPNS_16DownloadListenerEE5clearEv;2A.;empty::(31,24)=#(31,1),(0,4),(31,23),(0,6);:_ZNK6MAUtil6VectorIPNS_16DownloadListenerEE5emptyEv;2B.;capacity::(31,22):_ZNK6MAUtil6VectorIPNS_16DownloadListenerEE8capacityEv;2B.;begin::(31,25)=#(31,1),(31,2),(31,6),(0,6);:_ZN6MAUtil6VectorIPNS_16DownloadListenerEE5beginEv;2A.;end::(31,25):_ZN6MAUtil6VectorIPNS_16DownloadListenerEE3endEv;2A.;begin::(31,26)=#(31,1),(31,8),(31,23),(0,6);:_ZNK6MAUtil6VectorIPNS_16DownloadListenerEE5beginEv;2B.;end::(31,26):_ZNK6MAUtil6VectorIPNS_16DownloadListenerEE3endEv;2B.;operator[]::(31,27)=#(31,1),(31,28)=&(31,3),(31,6),(0,3),(0,6);:_ZN6MAUtil6VectorIPNS_16DownloadListenerEEixEi;2A.(31,29)=#(31,1),(31,17),(31,23),(0,3),(0,6);:_ZNK6MAUtil6VectorIPNS_16DownloadListenerEEixEi;2B.;pointer::(31,26):_ZNK6MAUtil6VectorIPNS_16DownloadListenerEE7pointerEv;2B.(31,25):_ZN6MAUtil6VectorIPNS_16DownloadListenerEE7pointerEv;2A.;;",128,0,94,0
	.stabs	"Vector<MAHandle>:Tt(31,30)=s12mSize:/1(0,3),0,32;mCapacity:/1(0,3),32,32;mData:/1(31,31)=*(3,10),64,32;__base_ctor::(31,32)=#(31,30),(0,6),(31,33)=*(31,30),(0,3),(0,6);:_ZN6MAUtil6VectorIiEC2Ei;2A.;__comp_ctor::(31,32):_ZN6MAUtil6VectorIiEC1Ei;2A.;__base_ctor::(31,34)=#(31,30),(0,6),(31,33),(31,35)=*(31,36)=k(3,10),(0,3),(0,6);:_ZN6MAUtil6VectorIiEC2EPKii;2A.;__comp_ctor::(31,34):_ZN6MAUtil6VectorIiEC1EPKii;2A.;__base_ctor::(31,37)=#(31,30),(0,6),(31,33),(31,38)=&(31,39)=k(31,30),(0,6);:_ZN6MAUtil6VectorIiEC2ERKS1_;2A.;__comp_ctor::(31,37):_ZN6MAUtil6VectorIiEC1ERKS1_;2A.;__base_dtor::(31,40)=#(31,30),(0,6),(31,33),(0,6);:_ZN6MAUtil6VectorIiED2Ev;2A.;__comp_dtor::(31,40):_ZN6MAUtil6VectorIiED1Ev;2A.;operator=::(31,41)=#(31,30),(31,42)=&(31,30),(31,33),(31,38),(0,6);:_ZN6MAUtil6VectorIiEaSERKS1_;2A.;add::(31,43)=#(31,30),(0,6),(31,33),(31,44)=&(31,36),(0,6);:_ZN6MAUtil6VectorIiE3addERKi;2A.(31,34):_ZN6MAUtil6VectorIiE3addEPKii;2A.;remove::(31,45)=#(31,30),(0,6),(31,33),(31,31),(0,6);:_ZN6MAUtil6VectorIiE6removeEPi;2A.(31,46)=#(31,30),(0,6),(31,33),(0,3),(0,6);:_ZN6MAUtil6VectorIiE6removeEi;2A.(31,47)=#(31,30),(0,6),(31,33),(0,3),(0,3),(0,6);:_ZN6MAUtil6VectorIiE6removeEii;2A.;insert::(31,47):_ZN6MAUtil6VectorIiE6insertEii;2A.;size::(31,48)=#(31,30),(0,3),(31,49)=*(31,39),(0,6);:_ZNK6MAUtil6VectorIiE4sizeEv;2B.;resize::(31,46):_ZN6MAUtil6VectorIiE6resizeEi;2A.;reserve::(31,46):_ZN6MAUtil6VectorIiE7reserveEi;2A.;clear::(31,40):_ZN6MAUtil6VectorIiE5clearEv;2A.;empty::(31,50)=#(31,30),(0,4),(31,49),(0,6);:_ZNK6MAUtil6VectorIiE5emptyEv;2B.;capacity::(31,48):_ZNK6MAUtil6VectorIiE8capacityEv;2B.;begin::(31,51)=#(31,30),(31,31),(31,33),(0,6);:_ZN6MAUtil6VectorIiE5beginEv;2A.;end::(31,51):_ZN6MAUtil6VectorIiE3endEv;2A.;begin::(31,52)=#(31,30),(31,35),(31,49),(0,6);:_ZNK6MAUtil6VectorIiE5beginEv;2B.;end::(31,52):_ZNK6MAUtil6VectorIiE3endEv;2B.;operator[]::(31,53)=#(31,30),(31,54)=&(3,10),(31,33),(0,3),(0,6);:_ZN6MAUtil6VectorIiEixEi;2A.(31,55)=#(31,30),(31,44),(31,49),(0,3),(0,6);:_ZNK6MAUtil6VectorIiEixEi;2B.;pointer::(31,52):_ZNK6MAUtil6VectorIiE7pointerEv;2B.(31,51):_ZN6MAUtil6VectorIiE7pointerEv;2A.;;",128,0,94,0
	.stabn	162,0,0,0
	.stabs	"c:/MoSync/include/MAUtil/Map.h",130,0,0,0
	.stabs	"c:/MoSync/include/MAUtil/Dictionary.h",130,0,0,0
	.stabs	"c:/MoSync/include/kazlib/dict.h",130,0,0,0
	.stabs	"dictcount_t:t(35,1)=(0,16)",128,0,39,0
	.stabs	"dnode_color_t:t(35,2)=ednode_red:0,dnode_black:1,;",128,0,46,0
	.stabs	"dnode_t:Tt(35,3)=s24dict_left:(35,4)=*(35,3),0,32;dict_right:(35,4),32,32;dict_parent:(35,4),64,32;dict_color:(35,2),96,32;dict_key:(16,5),128,32;dict_data:(3,9),160,32;operator=::(35,5)=#(35,3),(35,6)=&(35,3),(35,4),(35,7)=&(35,8)=k(35,3),(0,6);:_ZN7dnode_taSERKS_;2A.;__base_ctor::(35,9)=#(35,3),(0,6),(35,4),(35,7),(0,6);:_ZN7dnode_tC2ERKS_;2A.;__comp_ctor::(35,9):_ZN7dnode_tC1ERKS_;2A.;__base_ctor::(35,10)=#(35,3),(0,6),(35,4),(0,6);:_ZN7dnode_tC2Ev;2A.;__comp_ctor::(35,10):_ZN7dnode_tC1Ev;2A.;;",128,0,48,0
	.stabs	"dnode_t:t(35,11)=(35,3)",128,0,59,0
	.stabs	"dict_comp_t:t(35,12)=(16,15)",128,0,61,0
	.stabs	"dnode_alloc_t:t(35,13)=(35,14)=*(35,15)=f(35,16)=*(35,11)",128,0,62,0
	.stabs	"dnode_free_t:t(35,17)=(35,18)=*(35,19)=f(0,6)",128,0,63,0
	.stabs	"dict_t:Tt(35,20)=s52dict_nilnode:(35,11),0,192;dict_nodecount:(35,1),192,32;dict_maxcount:(35,1),224,32;dict_compare:(35,12),256,32;dict_allocnode:(35,13),288,32;dict_freenode:(35,17),320,32;dict_context:(3,9),352,32;dict_dupes:(0,3),384,32;operator=::(35,21)=#(35,20),(35,22)=&(35,20),(35,23)=*(35,20),(35,24)=&(35,25)=k(35,20),(0,6);:_ZN6dict_taSERKS_;2A.;__base_ctor::(35,26)=#(35,20),(0,6),(35,23),(35,24),(0,6);:_ZN6dict_tC2ERKS_;2A.;__comp_ctor::(35,26):_ZN6dict_tC1ERKS_;2A.;__base_ctor::(35,27)=#(35,20),(0,6),(35,23),(0,6);:_ZN6dict_tC2Ev;2A.;__comp_ctor::(35,27):_ZN6dict_tC1Ev;2A.;;",128,0,65,0
	.stabs	"dict_t:t(35,28)=(35,20)",128,0,78,0
	.stabs	"dnode_process_t:t(35,29)=(35,30)=*(35,31)=f(0,6)",128,0,80,0
	.stabs	"dict_load_t:Tt(35,32)=s28dict_dictptr:(35,33)=*(35,28),0,32;dict_nilnode:(35,11),32,192;operator=::(35,34)=#(35,32),(35,35)=&(35,32),(35,36)=*(35,32),(35,37)=&(35,38)=k(35,32),(0,6);:_ZN11dict_load_taSERKS_;2A.;__base_ctor::(35,39)=#(35,32),(0,6),(35,36),(35,37),(0,6);:_ZN11dict_load_tC2ERKS_;2A.;__comp_ctor::(35,39):_ZN11dict_load_tC1ERKS_;2A.;__base_ctor::(35,40)=#(35,32),(0,6),(35,36),(0,6);:_ZN11dict_load_tC2Ev;2A.;__comp_ctor::(35,40):_ZN11dict_load_tC1Ev;2A.;;",128,0,82,0
	.stabs	"dict_load_t:t(35,41)=(35,32)",128,0,89,0
	.stabn	162,0,0,0
	.stabn	162,0,0,0
	.stabn	162,0,0,0
	.stabs	"Vector<ImageCacheRequest*>:Tt(29,1)=s12mSize:/1(0,3),0,32;mCapacity:/1(0,3),32,32;mData:/1(29,2)=*(30,5),64,32;__base_ctor::(29,3)=#(29,1),(0,6),(29,4)=*(29,1),(0,3),(0,6);:_ZN6MAUtil6VectorIP17ImageCacheRequestEC2Ei;2A.;__comp_ctor::(29,3):_ZN6MAUtil6VectorIP17ImageCacheRequestEC1Ei;2A.;__base_ctor::(29,5)=#(29,1),(0,6),(29,4),(29,6)=*(29,7)=k(30,5),(0,3),(0,6);:_ZN6MAUtil6VectorIP17ImageCacheRequestEC2EPKS2_i;2A.;__comp_ctor::(29,5):_ZN6MAUtil6VectorIP17ImageCacheRequestEC1EPKS2_i;2A.;__base_ctor::(29,8)=#(29,1),(0,6),(29,4),(29,9)=&(29,10)=k(29,1),(0,6);:_ZN6MAUtil6VectorIP17ImageCacheRequestEC2ERKS3_;2A.;__comp_ctor::(29,8):_ZN6MAUtil6VectorIP17ImageCacheRequestEC1ERKS3_;2A.;__base_dtor::(29,11)=#(29,1),(0,6),(29,4),(0,6);:_ZN6MAUtil6VectorIP17ImageCacheRequestED2Ev;2A.;__comp_dtor::(29,11):_ZN6MAUtil6VectorIP17ImageCacheRequestED1Ev;2A.;operator=::(29,12)=#(29,1),(29,13)=&(29,1),(29,4),(29,9),(0,6);:_ZN6MAUtil6VectorIP17ImageCacheRequestEaSERKS3_;2A.;add::(29,14)=#(29,1),(0,6),(29,4),(29,15)=&(29,7),(0,6);:_ZN6MAUtil6VectorIP17ImageCacheRequestE3addERKS2_;2A.(29,5):_ZN6MAUtil6VectorIP17ImageCacheRequestE3addEPKS2_i;2A.;remove::(29,16)=#(29,1),(0,6),(29,4),(29,2),(0,6);:_ZN6MAUtil6VectorIP17ImageCacheRequestE6removeEPS2_;2A.(29,17)=#(29,1),(0,6),(29,4),(0,3),(0,6);:_ZN6MAUtil6VectorIP17ImageCacheRequestE6removeEi;2A.(29,18)=#(29,1),(0,6),(29,4),(0,3),(0,3),(0,6);:_ZN6MAUtil6VectorIP17ImageCacheRequestE6removeEii;2A.;insert::(29,19)=#(29,1),(0,6),(29,4),(0,3),(30,5),(0,6);:_ZN6MAUtil6VectorIP17ImageCacheRequestE6insertEiS2_;2A.;size::(29,20)=#(29,1),(0,3),(29,21)=*(29,10),(0,6);:_ZNK6MAUtil6VectorIP17ImageCacheRequestE4sizeEv;2B.;resize::(29,17):_ZN6MAUtil6VectorIP17ImageCacheRequestE6resizeEi;2A.;reserve::(29,17):_ZN6MAUtil6VectorIP17ImageCacheRequestE7reserveEi;2A.;clear::(29,11):_ZN6MAUtil6VectorIP17ImageCacheRequestE5clearEv;2A.;empty::(29,22)=#(29,1),(0,4),(29,21),(0,6);:_ZNK6MAUtil6VectorIP17ImageCacheRequestE5emptyEv;2B.;capacity::(29,20):_ZNK6MAUtil6VectorIP17ImageCacheRequestE8capacityEv;2B.;begin::(29,23)=#(29,1),(29,2),(29,4),(0,6);:_ZN6MAUtil6VectorIP17ImageCacheRequestE5beginEv;2A.;end::(29,23):_ZN6MAUtil6VectorIP17ImageCacheRequestE3endEv;2A.;begin::(29,24)=#(29,1),(29,6),(29,21),(0,6);:_ZNK6MAUtil6VectorIP17ImageCacheRequestE5beginEv;2B.;end::(29,24):_ZNK6MAUtil6VectorIP17ImageCacheRequestE3endEv;2B.;operator[]::(29,25)=#(29,1),(29,26)=&(30,5),(29,4),(0,3),(0,6);:_ZN6MAUtil6VectorIP17ImageCacheRequestEixEi;2A.(29,27)=#(29,1),(29,15),(29,21),(0,3),(0,6);:_ZNK6MAUtil6VectorIP17ImageCacheRequestEixEi;2B.;pointer::(29,24):_ZNK6MAUtil6VectorIP17ImageCacheRequestE7pointerEv;2B.(29,23):_ZN6MAUtil6VectorIP17ImageCacheRequestE7pointerEv;2A.;;",128,0,94,0
	.stabn	162,0,0,0
	.stabn	162,0,0,0
	.stabs	"Vector<MobKeyboardLayout*>:Tt(0,25)=s12mSize:/1(0,3),0,32;mCapacity:/1(0,3),32,32;mData:/1(0,26)=*(8,61),64,32;__base_ctor::(0,27)=#(0,25),(0,6),(0,28)=*(0,25),(0,3),(0,6);:_ZN6MAUtil6VectorIP17MobKeyboardLayoutEC2Ei;2A.;__comp_ctor::(0,27):_ZN6MAUtil6VectorIP17MobKeyboardLayoutEC1Ei;2A.;__base_ctor::(0,29)=#(0,25),(0,6),(0,28),(0,30)=*(0,31)=k(8,61),(0,3),(0,6);:_ZN6MAUtil6VectorIP17MobKeyboardLayoutEC2EPKS2_i;2A.;__comp_ctor::(0,29):_ZN6MAUtil6VectorIP17MobKeyboardLayoutEC1EPKS2_i;2A.;__base_ctor::(0,32)=#(0,25),(0,6),(0,28),(0,33)=&(0,34)=k(0,25),(0,6);:_ZN6MAUtil6VectorIP17MobKeyboardLayoutEC2ERKS3_;2A.;__comp_ctor::(0,32):_ZN6MAUtil6VectorIP17MobKeyboardLayoutEC1ERKS3_;2A.;__base_dtor::(0,35)=#(0,25),(0,6),(0,28),(0,6);:_ZN6MAUtil6VectorIP17MobKeyboardLayoutED2Ev;2A.;__comp_dtor::(0,35):_ZN6MAUtil6VectorIP17MobKeyboardLayoutED1Ev;2A.;operator=::(0,36)=#(0,25),(0,37)=&(0,25),(0,28),(0,33),(0,6);:_ZN6MAUtil6VectorIP17MobKeyboardLayoutEaSERKS3_;2A.;add::(0,38)=#(0,25),(0,6),(0,28),(0,39)=&(0,31),(0,6);:_ZN6MAUtil6VectorIP17MobKeyboardLayoutE3addERKS2_;2A.(0,29):_ZN6MAUtil6VectorIP17MobKeyboardLayoutE3addEPKS2_i;2A.;remove::(0,40)=#(0,25),(0,6),(0,28),(0,26),(0,6);:_ZN6MAUtil6VectorIP17MobKeyboardLayoutE6removeEPS2_;2A.(0,41)=#(0,25),(0,6),(0,28),(0,3),(0,6);:_ZN6MAUtil6VectorIP17MobKeyboardLayoutE6removeEi;2A.(0,42)=#(0,25),(0,6),(0,28),(0,3),(0,3),(0,6);:_ZN6MAUtil6VectorIP17MobKeyboardLayoutE6removeEii;2A.;insert::(0,43)=#(0,25),(0,6),(0,28),(0,3),(8,61),(0,6);:_ZN6MAUtil6VectorIP17MobKeyboardLayoutE6insertEiS2_;2A.;size::(0,44)=#(0,25),(0,3),(0,45)=*(0,34),(0,6);:_ZNK6MAUtil6VectorIP17MobKeyboardLayoutE4sizeEv;2B.;resize::(0,41):_ZN6MAUtil6VectorIP17MobKeyboardLayoutE6resizeEi;2A.;reserve::(0,41):_ZN6MAUtil6VectorIP17MobKeyboardLayoutE7reserveEi;2A.;clear::(0,35):_ZN6MAUtil6VectorIP17MobKeyboardLayoutE5clearEv;2A.;empty::(0,46)=#(0,25),(0,4),(0,45),(0,6);:_ZNK6MAUtil6VectorIP17MobKeyboardLayoutE5emptyEv;2B.;capacity::(0,44):_ZNK6MAUtil6VectorIP17MobKeyboardLayoutE8capacityEv;2B.;begin::(0,47)=#(0,25),(0,26),(0,28),(0,6);:_ZN6MAUtil6VectorIP17MobKeyboardLayoutE5beginEv;2A.;end::(0,47):_ZN6MAUtil6VectorIP17MobKeyboardLayoutE3endEv;2A.;begin::(0,48)=#(0,25),(0,30),(0,45),(0,6);:_ZNK6MAUtil6VectorIP17MobKeyboardLayoutE5beginEv;2B.;end::(0,48):_ZNK6MAUtil6VectorIP17MobKeyboardLayoutE3endEv;2B.;operator[]::(0,49)=#(0,25),(0,50)=&(8,61),(0,28),(0,3),(0,6);:_ZN6MAUtil6VectorIP17MobKeyboardLayoutEixEi;2A.(0,51)=#(0,25),(0,39),(0,45),(0,3),(0,6);:_ZNK6MAUtil6VectorIP17MobKeyboardLayoutEixEi;2B.;pointer::(0,48):_ZNK6MAUtil6VectorIP17MobKeyboardLayoutE7pointerEv;2B.(0,47):_ZN6MAUtil6VectorIP17MobKeyboardLayoutE7pointerEv;2A.;;",128,0,94,0
	.stabs	"MobKeyboard:Tt(0,52)=s172!2,020,(9,4);00928,(5,92);m_isShown:/0(0,4),960,8;m_layouts:/0(0,28),992,32;m_activeLayout:/0(0,3),1024,32;m_backgroundColor:/0(0,3),1056,32;m_buttonColor:/0(0,3),1088,32;m_buttonPressedColor:/0(0,3),1120,32;m_buttonBorderColor:/0(0,3),1152,32;m_attachedWidget:/0(9,3),1184,32;m_keyboardSkin:/0(13,3),1216,32;last_pressed:/0(8,39),1248,32;m_attachedScreen:/0(0,53)=*(0,54)=xsScreen:,1280,32;screenFunction:/0(0,55)=s8__pfn:(0,56)=*(0,57)=#(0,54),(0,6),(0,53),(0,3),(0,6);,0,32;__delta:(0,18),32,32;;,1312,64;__base_ctor::(0,58)=#(0,52),(0,6),(0,59)=*(0,52),(0,3),(0,3),(0,3),(0,3),(0,6);:_ZN11MobKeyboardC2Eiiii;2A.;__comp_ctor::(0,58):_ZN11MobKeyboardC1Eiiii;2A.;__base_dtor::(0,60)=#(0,52),(0,6),(0,59),(0,6);:_ZN11MobKeyboardD2Ev;2A.;__comp_dtor::(0,60):_ZN11MobKeyboardD1Ev;2A*20;(0,52);;__deleting_dtor::(0,60):_ZN11MobKeyboardD0Ev;2A*21;(0,52);;isShown::(0,61)=#(0,52),(0,4),(0,59),(0,6);:_ZN11MobKeyboard7isShownEv;2A.;show::(0,60):_ZN11MobKeyboard4showEv;2A.;hide::(0,60):_ZN11MobKeyboard4hideEv;2A.;applyScaling::(0,60):_ZN11MobKeyboard12applyScalingEv;2A.;getDesignHeight::(0,62)=f(0,3):_ZN11MobKeyboard15getDesignHeightEv;2A?;attachWidget::(0,63)=#(0,52),(0,6),(0,59),(9,3),(0,6);:_ZN11MobKeyboard12attachWidgetEPN4MAUI6WidgetE;2A.;deAttachEditBox::(0,60):_ZN11MobKeyboard15deAttachEditBoxEv;2A.;setActiveLayout::(0,64)=#(0,52),(0,6),(0,59),(8,42),(0,6);:_ZN11MobKeyboard15setActiveLayoutERKN6MAUtil11BasicStringIcEE;2A.(0,65)=#(0,52),(0,6),(0,59),(8,42),(8,1),(0,6);:_ZN11MobKeyboard15setActiveLayoutERKN6MAUtil11BasicStringIcEENS_10LayoutTypeE;2A.;toggleShift::(0,60):_ZN11MobKeyboard11toggleShiftEv;2A.;toggleNum::(0,60):_ZN11MobKeyboard9toggleNumEv;2A.;toggleLanguage::(0,60):_ZN11MobKeyboard14toggleLanguageEv;2A.;addLanguage::(0,66)=#(0,52),(0,6),(0,59),(8,61),(8,61),(8,61),(8,61),(0,6);:_ZN11MobKeyboard11addLanguageEP17MobKeyboardLayoutS1_S1_S1_;2A.;addButtonLine::(0,67)=#(0,52),(0,6),(0,59),(8,61),(0,3),(0,3),(0,68)=*(11,1),(0,3),(0,3),(0,3),(0,3),(0,6);:_ZN11MobKeyboard13addButtonLineEP17MobKeyboardLayoutiiPN6MAUtil11BasicStringIcEEiiii;2A.;attachScreen::(0,69)=#(0,52),(0,6),(0,59),(0,53),(0,6);:_ZN11MobKeyboard12attachScreenEPN4MAUI6ScreenE;2A.;deAttachScreen::(0,60):_ZN11MobKeyboard14deAttachScreenEv;2A.;setScreenFunction::(0,70)=#(0,52),(0,6),(0,59),(0,55),(0,6);:_ZN11MobKeyboard17setScreenFunctionEMN4MAUI6ScreenEFviE;2A.;clearScreenFunction::(0,60):_ZN11MobKeyboard19clearScreenFunctionEv;2A.;drawWidget::(0,60):_ZN11MobKeyboard10drawWidgetEv;1A*22;(0,52);;pointerPressEvent::(0,71)=#(0,52),(0,6),(0,59),(3,23),(0,6);:_ZN11MobKeyboard17pointerPressEventE9MAPoint2d;1A*23;(0,52);;pointerMoveEvent::(0,71):_ZN11MobKeyboard16pointerMoveEventE9MAPoint2d;1A*24;(0,52);;pointerReleaseEvent::(0,71):_ZN11MobKeyboard19pointerReleaseEventE9MAPoint2d;1A*25;(0,52);;setupKeys::(0,60):_ZN11MobKeyboard9setupKeysEv;0A.;getClickedCharacter::(0,72)=#(0,52),(11,1),(0,59),(3,23),(0,4),(0,6);:_ZN11MobKeyboard19getClickedCharacterE9MAPoint2db;0A.;operator=::(0,73)=#(0,52),(0,74)=&(0,52),(0,59),(0,75)=&(0,76)=k(0,52),(0,6);:_ZN11MobKeyboardaSERKS_;2A.;__base_ctor::(0,77)=#(0,52),(0,6),(0,59),(0,75),(0,6);:_ZN11MobKeyboardC2ERKS_;2A.;__comp_ctor::(0,77):_ZN11MobKeyboardC1ERKS_;2A.;;~%(9,4);",128,0,18,0
	.stabs	"RefCounted:Tt(0,78)=s8_vptr$RefCounted:(0,79)=*(0,1),0,32;mRefCount:/0(0,3),32,32;__base_ctor::(0,80)=#(0,78),(0,6),(0,81)=*(0,78),(0,3),(0,6);:_ZN6MAUtil10RefCountedC2Ei;2A.;__comp_ctor::(0,80):_ZN6MAUtil10RefCountedC1Ei;2A.;addRef::(0,82)=#(0,78),(0,6),(0,81),(0,6);:_ZN6MAUtil10RefCounted6addRefEv;2A.;release::(0,82):_ZN6MAUtil10RefCounted7releaseEv;2A.;getRefCount::(0,83)=#(0,78),(0,3),(0,81),(0,6);:_ZN6MAUtil10RefCounted11getRefCountEv;2A.;__base_dtor::(0,82):_ZN6MAUtil10RefCountedD2Ev;2A.;__comp_dtor::(0,82):_ZN6MAUtil10RefCountedD1Ev;2A*0;(0,78);;__deleting_dtor::(0,82):_ZN6MAUtil10RefCountedD0Ev;2A*1;(0,78);;operator=::(0,84)=#(0,78),(0,85)=&(0,78),(0,81),(0,86)=&(0,87)=k(0,78),(0,6);:_ZN6MAUtil10RefCountedaSERKS0_;2A.;__base_ctor::(0,88)=#(0,78),(0,6),(0,81),(0,86),(0,6);:_ZN6MAUtil10RefCountedC2ERKS0_;2A.;__comp_ctor::(0,88):_ZN6MAUtil10RefCountedC1ERKS0_;2A.;;~%(0,78);",128,0,28,0
	.ctor __GLOBAL__I__ZN11MobKeyboardC2Eiiii
	.dtor __GLOBAL__D__ZN11MobKeyboardC2Eiiii
	.global	__ZTV11MobKeyboard
.data
	.align 4
__ZTV11MobKeyboard:
	.long	0
	.long	0
	.long	__ZN4MAUI6Widget3addEPS0_
	.long	__ZN4MAUI6Widget5clearEv
	.long	__ZN4MAUI6Widget4drawEb
	.long	__ZN4MAUI6Widget6updateEv
	.long	__ZNK4MAUI6Widget13isTransparentEv
	.long	__ZN4MAUI6Widget7setSkinEPNS_10WidgetSkinE
	.long	__ZN4MAUI6Widget11setPositionEii
	.long	__ZN4MAUI6Widget8setWidthEi
	.long	__ZN4MAUI6Widget9setHeightEi
	.long	__ZN4MAUI6Widget9getBoundsEv
	.long	__ZN4MAUI6Widget8containsERKN6MAUtil5PointE
	.long	__ZN4MAUI6Widget8containsEii
	.long	__ZN4MAUI6Widget11setSelectedEb
	.long	__ZN4MAUI6Widget10setEnabledEb
	.long	__ZN4MAUI6Widget7triggerEv
	.long	__ZN4MAUI6Widget14setPaddingLeftEi
	.long	__ZN4MAUI6Widget13setPaddingTopEi
	.long	__ZN4MAUI6Widget15setPaddingRightEi
	.long	__ZN4MAUI6Widget16setPaddingBottomEi
	.long	__ZN4MAUI6Widget12setParameterERKN6MAUtil11BasicStringIcEES5_
	.long	__ZN11MobKeyboardD1Ev
	.long	__ZN11MobKeyboardD0Ev
	.long	__ZN11MobKeyboard10drawWidgetEv
	.long	__ZN11MobKeyboard17pointerPressEventE9MAPoint2d
	.long	__ZN11MobKeyboard16pointerMoveEventE9MAPoint2d
	.long	__ZN11MobKeyboard19pointerReleaseEventE9MAPoint2d
	.long	-116
	.long	0
	.long	__ZThn116_N11MobKeyboardD1Ev
	.long	__ZThn116_N11MobKeyboardD0Ev
	.long	__ZThn116_N11MobKeyboard17pointerPressEventE9MAPoint2d
	.long	__ZThn116_N11MobKeyboard16pointerMoveEventE9MAPoint2d
	.long	__ZThn116_N11MobKeyboard19pointerReleaseEventE9MAPoint2d
	.long	__ZN6MAUtil15PointerListener20multitouchPressEventE9MAPoint2di
	.long	__ZN6MAUtil15PointerListener19multitouchMoveEventE9MAPoint2di
	.long	__ZN6MAUtil15PointerListener22multitouchReleaseEventE9MAPoint2di
	.lcomm	_TRADE, 4 ; size=4
	.lcomm	_CARDS, 4 ; size=4
	.lcomm	_ALBUMS, 4 ; size=4
	.lcomm	_USER, 4 ; size=4
	.lcomm	_URL, 4 ; size=4
	.lcomm	_base64_chars, 4 ; size=4
.code
	.stabs	"_ZN6MAUtil15PointerListener20multitouchPressEventE9MAPoint2di:f(0,6)",36,0,71,__ZN6MAUtil15PointerListener20multitouchPressEventE9MAPoint2di
	.stabs	"this:P(0,89)=k(5,91)",64,0,71,12
	.stabs	"p:P(3,23)",64,0,71,13
	.stabs	"touchId:P(0,3)",64,0,71,15

.func __ZN6MAUtil15PointerListener20multitouchPressEventE9MAPoint2di, 4, void
	.stabs	"c:/MoSync/include/MAUtil/Environment.h",132,0,0,Ltext1
Ltext1:
	.line 71
	push fr,fr
	ld   fr,sp
	add  fr,#0x4
	.line 71
	pop  fr,fr
	ret
Lscope0:
	.stabs	"_ZN6MAUtil15PointerListener19multitouchMoveEventE9MAPoint2di:f(0,6)",36,0,72,__ZN6MAUtil15PointerListener19multitouchMoveEventE9MAPoint2di
	.stabs	"this:P(0,89)",64,0,72,12
	.stabs	"p:P(3,23)",64,0,72,13
	.stabs	"touchId:P(0,3)",64,0,72,15

.func __ZN6MAUtil15PointerListener19multitouchMoveEventE9MAPoint2di, 4, void
	.line 72
	push fr,fr
	ld   fr,sp
	add  fr,#0x4
	.line 72
	pop  fr,fr
	ret
Lscope1:
	.stabs	"_ZN6MAUtil15PointerListener22multitouchReleaseEventE9MAPoint2di:f(0,6)",36,0,73,__ZN6MAUtil15PointerListener22multitouchReleaseEventE9MAPoint2di
	.stabs	"this:P(0,89)",64,0,73,12
	.stabs	"p:P(3,23)",64,0,73,13
	.stabs	"touchId:P(0,3)",64,0,73,15

.func __ZN6MAUtil15PointerListener22multitouchReleaseEventE9MAPoint2di, 4, void
	.line 73
	push fr,fr
	ld   fr,sp
	add  fr,#0x4
	.line 73
	pop  fr,fr
	ret
Lscope2:
	.stabs	"_ZN11MobKeyboard7isShownEv:F(0,4)",36,0,56,__ZN11MobKeyboard7isShownEv
	.stabs	"this:P(0,90)=k(0,59)",64,0,56,12
	.global	__ZN11MobKeyboard7isShownEv

.func __ZN11MobKeyboard7isShownEv, 1, int
	.stabs	"E:\\My Dropbox\\workspace\\GameCards\\MobidexANC\\UI\\MobKeyboard.cpp",132,0,0,Ltext2
Ltext2:
	.line 56
	push fr,fr
	ld   fr,sp
	add  fr,#0x4
	.line 58
	ld.b r14,[i0,120]
	and  r14,#0xff  ; zero extend
	pop  fr,fr
	ret
Lscope3:
	.stabs	"_ZN11MobKeyboard4showEv:F(0,6)",36,0,61,__ZN11MobKeyboard4showEv
	.stabs	"this:P(0,90)",64,0,61,4
	.global	__ZN11MobKeyboard4showEv

.func __ZN11MobKeyboard4showEv, 1, void
	.line 61
	push rt,d1
	ld   fr,sp
	add  fr,#0x10
	ld   d0,i0
	.dlab LBB2
	.line 62
	ld   r14,#0x1
	ld.b [i0,120],r14
	.line 63
	call &__ZN6MAUtil11Environment14getEnvironmentEv ; call non-native
	ld   i0,r14
	ld   i1,d0
	add  i1,#0x74
	call &__ZN6MAUtil11Environment18addPointerListenerEPNS_15PointerListenerE ; call non-native
	.line 65
	ld   r14,[d0]
	ld   d1,[r14,88]
	ld   i0,d0
	call d1 ; call non-native
	.dlab LBE2
	pop  rt,d1
	ret
Lscope4:
	.stabs	"_ZN11MobKeyboard4hideEv:F(0,6)",36,0,69,__ZN11MobKeyboard4hideEv
	.stabs	"this:P(0,90)",64,0,69,4
	.global	__ZN11MobKeyboard4hideEv

.func __ZN11MobKeyboard4hideEv, 1, void
	.line 69
	push rt,d0
	ld   fr,sp
	add  fr,#0xc
	ld   d0,i0
	.dlab LBB3
	.dlab LBB4
	.stabs	"E:\\My Dropbox\\workspace\\GameCards\\MobidexANC\\UI\\/MobKeyboard.h",132,0,0,Ltext3
Ltext3:
	.line 123
	ld   r14,[i0,156]
	.dlab LBB5
	.line 124
	ld   r0,#0x0
	ld.b [r14,32],r0
	.dlab LBE5
	.dlab LBE4
	.stabs	"E:\\My Dropbox\\workspace\\GameCards\\MobidexANC\\UI\\MobKeyboard.cpp",132,0,0,Ltext4
Ltext4:
	.line 71
	ld.b r14,[i0,120]
	and  r14,#0xff  ; zero extend
	ld   r0,#0x0
	jc   ne,r14,r0,#L10
	.line 75
	ld   r14,#0x0
	ld.b [d0,120],r14
	.line 76
	ld   r0,#0x0
	ld   [d0,148],r0
	.dlab LBE3
	pop  rt,d0
	ret
L10:
	.dlab LBB6
	.line 72
	call &__ZN6MAUtil11Environment14getEnvironmentEv ; call non-native
	ld   i0,r14
	ld   i1,d0
	add  i1,#0x74
	call &__ZN6MAUtil11Environment21removePointerListenerEPNS_15PointerListenerE ; call non-native
	.line 73
	call &__ZN4MAUI6Engine12getSingletonEv ; call non-native
	ld   i0,r14
	call &__ZN4MAUI6Engine11hideOverlayEv ; call non-native
	.line 75
	ld   r14,#0x0
	ld.b [d0,120],r14
	.line 76
	ld   r0,#0x0
	ld   [d0,148],r0
	.dlab LBE6
	pop  rt,d0
	ret
	.stabs	"this:r(8,76)",64,0,123,30
	.stabn	192,0,0,LBB4-__ZN11MobKeyboard4hideEv
	.stabn	224,0,0,LBE4-__ZN11MobKeyboard4hideEv
Lscope5:
.data
LC0:
	.ascii "\0"
LC1:
	.ascii "Sh\0"
LC2:
	.ascii "Num\0"
.code
	.stabs	"_ZN11MobKeyboard10drawWidgetEv:F(0,6)",36,0,80,__ZN11MobKeyboard10drawWidgetEv
	.stabs	"this:P(0,90)",64,0,80,6
	.global	__ZN11MobKeyboard10drawWidgetEv

.func __ZN11MobKeyboard10drawWidgetEv, 1, void
	.line 80
	push rt,d7
	sub  sp,#0x54
	ld   fr,sp
	add  fr,#0x7c
	ld   d2,i0
	.dlab LBB7
	.dlab LBB8
	.line 81
	ld.b r14,[i0,120]
	and  r14,#0xff  ; zero extend
	ld   r0,#0x0
	jc   eq,r14,r0,#L11
	.line 84
	ld   r0,[i0,128]
	ld   r1,#0x0
	jc   lt,r0,r1,#L11
	.dlab LBB9
	.stabs	"c:/MoSync/include/MAUtil/Vector.h",132,0,0,Ltext5
Ltext5:
	.line 265
	ld   r14,[i0,124]
	.dlab LBE9
	ld   r14,[r14]
	jc   lt,r0,r14,#L66
L11:
	.dlab LBE8
	.dlab LBE7
	.stabs	"E:\\My Dropbox\\workspace\\GameCards\\MobidexANC\\UI\\MobKeyboard.cpp",132,0,0,Ltext6
Ltext6:
	.line 168
	add  sp,#0x54
	pop  rt,d7
	ret
L66:
	.dlab LBB10
	.dlab LBB11
	.line 87
	call &__ZN4MAUI6Engine12getSingletonEv ; call non-native
	ld   i0,r14
	ld   i1,#0x0
	ld   i2,i1
	ld   i3,d2
	call &__ZN4MAUI6Engine11showOverlayEiiPNS_6WidgetE ; call non-native
	.dlab LBB12
	.stabs	"E:\\My Dropbox\\workspace\\GameCards\\MobidexANC\\UI\\/MobKeyboard.h",132,0,0,Ltext7
Ltext7:
	.line 101
	ld   r14,[d2]
	ld   d0,[r14,36]
	ld   i0,d2
	call d0 ; call non-native
	.dlab LBB13
	ld   r0,#__ZTVN6MAUtil4RectE+8
	ld   [fr,-60],r0
	ld   r1,[r14,4]
	ld   [fr,-56],r1
	ld   r0,[r14,8]
	ld   [fr,-52],r0
	ld   r1,[r14,12]
	ld   [fr,-48],r1
	ld   r14,[r14,16]
	ld   [fr,-44],r14
	.dlab LBE13
	.dlab LBE12
	.stabs	"E:\\My Dropbox\\workspace\\GameCards\\MobidexANC\\UI\\MobKeyboard.cpp",132,0,0,Ltext8
Ltext8:
	.line 90
	ld   i0,[fr,-56]
	ld   i1,r0
	ld   i2,r1
	ld   i3,r14
	call &_maSetClipRect ; call non-native
	.line 92
	ld.b r14,[d2,60]
	and  r14,#0xff  ; zero extend
	ld   r0,#0x0
	jc   ne,r14,r0,#L67
L17:
	.dlab LBB14
	.line 102
	ld   d4,#0x0
	.dlab LBB15
	.dlab LBB16
	.dlab LBB17
	.stabs	"c:/MoSync/include/MAUtil/Vector.h",132,0,0,Ltext9
Ltext9:
	.line 362
	ld   r14,[d2,124]
	ld   r0,[d2,128]
	.dlab LBB18
	sll  r0,#0x2
	ld   r2,[r14,8]
	ld   r14,r2
	add  r14,r0
	.dlab LBE18
	.dlab LBE17
	ld   r14,[r14]
	.dlab LBB19
	.stabs	"E:\\My Dropbox\\workspace\\GameCards\\MobidexANC\\UI\\/MobKeyboard.h",132,0,0,Ltext10
Ltext10:
	.line 161
	ld   r14,[r14,12]
	.dlab LBE19
	.dlab LBE16
	.dlab LBB20
	.stabs	"c:/MoSync/include/MAUtil/Vector.h",132,0,0,Ltext11
Ltext11:
	.line 265
	ld   r14,[r14]
	.dlab LBE20
	.dlab LBE15
	.line 161
	jc   le,r14,d4,#L11
	ld   r1,r0
	ld   r0,r2
	ld   d6,fr
	add  d6,#0xffffffac
	ld   d5,fr
	add  d5,#0xffffffa8
	jp   #L62
L20:
	.stabs	"E:\\My Dropbox\\workspace\\GameCards\\MobidexANC\\UI\\MobKeyboard.cpp",132,0,0,Ltext12
Ltext12:
	.line 102
	add  d4,#0x1
	.dlab LBB21
	.dlab LBB22
	.dlab LBB23
	.stabs	"c:/MoSync/include/MAUtil/Vector.h",132,0,0,Ltext13
Ltext13:
	.line 362
	ld   r14,[d2,124]
	ld   r1,[d2,128]
	.dlab LBB24
	sll  r1,#0x2
	ld   r0,[r14,8]
	ld   r14,r0
	add  r14,r1
	.dlab LBE24
	.dlab LBE23
	ld   r14,[r14]
	.dlab LBB25
	.stabs	"E:\\My Dropbox\\workspace\\GameCards\\MobidexANC\\UI\\/MobKeyboard.h",132,0,0,Ltext14
Ltext14:
	.line 161
	ld   r14,[r14,12]
	.dlab LBE25
	.dlab LBE22
	.dlab LBB26
	.stabs	"c:/MoSync/include/MAUtil/Vector.h",132,0,0,Ltext15
Ltext15:
	.line 265
	ld   r14,[r14]
	.dlab LBE26
	.dlab LBE21
	.line 161
	jc   le,r14,d4,#L11
L62:
	.dlab LBB27
	.dlab LBB28
	.dlab LBB29
	.dlab LBB30
	.dlab LBB31
	.dlab LBB32
	.line 362
	add  r0,r1
	.dlab LBE32
	.dlab LBE31
	ld   r14,[r0]
	.dlab LBB33
	.stabs	"E:\\My Dropbox\\workspace\\GameCards\\MobidexANC\\UI\\/MobKeyboard.h",132,0,0,Ltext16
Ltext16:
	.line 161
	ld   r0,[r14,12]
	.dlab LBE33
	.dlab LBE30
	.dlab LBB34
	.stabs	"c:/MoSync/include/MAUtil/Vector.h",132,0,0,Ltext17
Ltext17:
	.line 362
	ld   r14,d4
	sll  r14,#0x2
	ld   r0,[r0,8]
	add  r14,r0
	.dlab LBE34
	.dlab LBE29
	ld   d1,[r14]
	.dlab LBB35
	.dlab LBB36
	.dlab LBB37
	.dlab LBB38
	.stabs	"E:\\My Dropbox\\workspace\\GameCards\\MobidexANC\\UI\\/MobKeyboard.h",132,0,0,Ltext18
Ltext18:
	.line 101
	ld   r1,#__ZTVN6MAUtil4RectE+8
	ld   [fr,-80],r1
	ld   r14,[d1,4]
	ld   [fr,-76],r14
	ld   r0,[d1,8]
	ld   r1,[d1,12]
	ld   [fr,-68],r1
	ld   r14,[d1,16]
	ld   [fr,-64],r14
	.dlab LBE38
	.dlab LBE37
	.dlab LBE36
	.dlab LBE35
	.stabs	"E:\\My Dropbox\\workspace\\GameCards\\MobidexANC\\UI\\MobKeyboard.cpp",132,0,0,Ltext19
Ltext19:
	.line 106
	ld   r14,r0
	ld   r0,[fr,-52]
	add  r14,r0
	ld   [fr,-72],r14
	.dlab LBB39
	.dlab LBB40
	.stabs	"E:\\My Dropbox\\workspace\\GameCards\\MobidexANC\\UI\\/MobKeyboard.h",132,0,0,Ltext20
Ltext20:
	.line 105
	ld   d3,d1
	add  d3,#0x14
	ld   i0,d6
	ld   i1,d3
	call &__ZN6MAUtil11BasicStringIcEC1ERKS1_ ; call non-native
	.dlab LBE40
	.dlab LBE39
	ld   i0,d5
	ld   i1,#LC0
	call &__ZN6MAUtil11BasicStringIcEC1EPKc ; call non-native
	ld   i0,d6
	ld   i1,d5
	call &__ZNK6MAUtil11BasicStringIcEeqERKS1_ ; call non-native
	ld   d0,r14
	ld   i0,d5
	call &__ZN6MAUtil11BasicStringIcED1Ev ; call non-native
	ld   i0,d6
	call &__ZN6MAUtil11BasicStringIcED1Ev ; call non-native
	and  d0,#0xff  ; zero extend
	ld   r1,#0x0
	jc   ne,d0,r1,#L20
	.stabs	"E:\\My Dropbox\\workspace\\GameCards\\MobidexANC\\UI\\MobKeyboard.cpp",132,0,0,Ltext21
Ltext21:
	.line 111
	ld.b [fr,-113],d0
	.line 113
	ld   d7,d0
	.dlab LBB41
	.dlab LBB42
	.stabs	"E:\\My Dropbox\\workspace\\GameCards\\MobidexANC\\UI\\/MobKeyboard.h",132,0,0,Ltext22
Ltext22:
	.line 105
	ld   i0,d5
	ld   i1,d3
	call &__ZN6MAUtil11BasicStringIcEC1ERKS1_ ; call non-native
	.dlab LBE42
	.dlab LBE41
	ld   i0,d6
	ld   i1,#LC1
	call &__ZN6MAUtil11BasicStringIcEC1EPKc ; call non-native
	ld   i0,d5
	ld   i1,d6
	call &__ZNK6MAUtil11BasicStringIcEeqERKS1_ ; call non-native
	and  r14,#0xff  ; zero extend
	jc   eq,r14,d0,#L32
	.dlab LBB43
	.dlab LBB44
	.stabs	"c:/MoSync/include/MAUtil/Vector.h",132,0,0,Ltext23
Ltext23:
	.line 362
	ld   r14,[d2,124]
	ld   r0,[d2,128]
	.dlab LBB45
	sll  r0,#0x2
	ld   r14,[r14,8]
	add  r0,r14
	.dlab LBE45
	.dlab LBE44
	ld   r14,[r0]
	.dlab LBB46
	.stabs	"E:\\My Dropbox\\workspace\\GameCards\\MobidexANC\\UI\\/MobKeyboard.h",132,0,0,Ltext24
Ltext24:
	.line 160
	ld   r14,[r14,8]
	.dlab LBE46
	.dlab LBE43
	.line 366
	ld   r0,#0x1
	jc   eq,r14,r0,#L34
	ld   r1,#0x3
	jc   eq,r14,r1,#L34
L32:
	ld   i0,d6
	call &__ZN6MAUtil11BasicStringIcED1Ev ; call non-native
	ld   i0,d5
	call &__ZN6MAUtil11BasicStringIcED1Ev ; call non-native
	ld   d0,d7
	and  d0,#0xff  ; zero extend
	ld   r14,#0x0
	jc   eq,d0,r14,#L31
	.stabs	"E:\\My Dropbox\\workspace\\GameCards\\MobidexANC\\UI\\MobKeyboard.cpp",132,0,0,Ltext25
Ltext25:
	.line 117
	ld   r0,#0x1
	ld.b [fr,-113],r0
	ld   d7,fr
	add  d7,#0xffffffa0
L39:
	.line 130
	ld   i0,[d2,152]
	ld   r14,#0x0
	jc   eq,i0,r14,#L51
	.line 132
	ld.b r14,[fr,-113]
	and  r14,#0xff  ; zero extend
	ld   r0,#0x0
	jc   eq,r14,r0,#L52
	.line 133
	ld   i1,[fr,-76]
	ld   r1,[fr,-56]
	sub  i1,r1
	ld   i2,[fr,-72]
	ld   r14,[fr,-52]
	sub  i2,r14
	ld   r14,[fr,-64]
	add  r14,#0xffffffff
	ld   [sp],r14
	ld   [sp,4],r0
L65:
	.line 137
	ld   i3,[fr,-68]
	call &__ZN4MAUI10WidgetSkin4drawEiiiiNS0_5eTypeE ; call non-native
L54:
	.dlab LBB47
	.dlab LBB48
	.stabs	"E:\\My Dropbox\\workspace\\GameCards\\MobidexANC\\UI\\/MobKeyboard.h",132,0,0,Ltext26
Ltext26:
	.line 105
	ld   i0,d7
	ld   i1,d3
	call &__ZN6MAUtil11BasicStringIcEC1ERKS1_ ; call non-native
	.dlab LBE48
	.dlab LBE47
	ld   i0,d7
	call &__ZN6MAUtil11BasicStringIcE7pointerEv ; call non-native
	ld   d0,r14
	.dlab LBB49
	.dlab LBB50
	ld   i0,#0xffffffa4
	add  i0,fr
	ld   i1,d3
	call &__ZN6MAUtil11BasicStringIcEC1ERKS1_ ; call non-native
	.dlab LBE50
	.dlab LBE49
	ld   i0,#0xffffffa4
	add  i0,fr
	call &__ZNK6MAUtil11BasicStringIcE6lengthEv ; call non-native
	ld   i0,[&_gFontWhite]
	ld   i1,d0
	ld   i2,r14
	call &__ZNK4MAUI4Font19getStringDimensionsEPKci ; call non-native
	ld   d0,r14
	ld   i0,#0xffffffa4
	add  i0,fr
	call &__ZN6MAUtil11BasicStringIcED1Ev ; call non-native
	ld   i0,d7
	call &__ZN6MAUtil11BasicStringIcED1Ev ; call non-native
	.dlab LBB51
	.dlab LBB52
	ld   i0,d7
	ld   i1,d3
	call &__ZN6MAUtil11BasicStringIcEC1ERKS1_ ; call non-native
	.dlab LBE52
	.dlab LBE51
	ld   i0,d7
	call &__ZN6MAUtil11BasicStringIcE7pointerEv ; call non-native
	.dlab LBB53
	.dlab LBB54
	.line 110
	ld   r0,[d1,24]
	ld   r1,[d1,28]
	.dlab LBE54
	.dlab LBE53
	ld   [fr,-104],r0
	ld   [fr,-100],r1
	ld   i2,[fr,-68]
	ld   r2,i2
	srl  r2,#0x1f
	add  i2,r2
	sra  i2,#0x1
	add  i2,r0
	ld   r3,d0
	sra  r3,#0x10
	ld   r0,r3
	srl  r0,#0x1f
	add  r3,r0
	sra  r3,#0x1
	.dlab LBB55
	.dlab LBB56
	ld   r0,[d1,24]
	ld   r1,[d1,28]
	.dlab LBE56
	.dlab LBE55
	ld   [fr,-112],r0
	ld   [fr,-108],r1
	ld   i3,[fr,-64]
	ld   r2,i3
	srl  r2,#0x1f
	add  i3,r2
	sra  i3,#0x1
	add  i3,r1
	xh d0,d0
	ld   r0,d0
	srl  r0,#0x1f
	add  d0,r0
	sra  d0,#0x1
	ld   i0,[&_gFontWhite]
	ld   i1,r14
	sub  i2,r3
	sub  i3,d0
	call &__ZN4MAUI4Font10drawStringEPKcii ; call non-native
	ld   i0,d7
	call &__ZN6MAUtil11BasicStringIcED1Ev ; call non-native
	jp   #L20
L51:
	.stabs	"E:\\My Dropbox\\workspace\\GameCards\\MobidexANC\\UI\\MobKeyboard.cpp",132,0,0,Ltext27
Ltext27:
	.line 143
	ld.b r14,[fr,-113]
	and  r14,#0xff  ; zero extend
	jc   eq,r14,i0,#L55
	.line 144
	ld   i0,[d2,140]
L64:
	.line 146
	call &_maSetColor ; call non-native
	.line 148
	ld   i0,[fr,-76]
	ld   i1,[fr,-72]
	ld   i2,[fr,-68]
	ld   i3,[fr,-64]
	call &_maFillRect ; call non-native
	.line 150
	ld   i0,[d2,144]
	call &_maSetColor ; call non-native
	.line 151
	ld   i0,[fr,-76]
	ld   i2,[fr,-68]
	add  i2,i0
	ld   i1,[fr,-72]
	add  i2,#0xffffffff
	ld   i3,i1
	call &_maLine ; call non-native
	.line 152
	ld   i0,[fr,-76]
	ld   i1,[fr,-72]
	ld   r0,[fr,-64]
	add  i1,r0
	add  i1,#0xffffffff
	ld   i2,[fr,-68]
	add  i2,i0
	add  i2,#0xffffffff
	ld   i3,i1
	call &_maLine ; call non-native
	.line 153
	ld   i1,[fr,-72]
	ld   i3,[fr,-64]
	add  i3,i1
	ld   i0,[fr,-76]
	ld   i2,i0
	add  i3,#0xffffffff
	call &_maLine ; call non-native
	.line 154
	ld   i0,[fr,-76]
	ld   r1,[fr,-68]
	add  i0,r1
	add  i0,#0xffffffff
	ld   i1,[fr,-72]
	ld   i3,[fr,-64]
	add  i3,i1
	ld   i2,i0
	add  i3,#0xffffffff
	call &_maLine ; call non-native
	jp   #L54
L31:
	.line 119
	ld.b [fr,-114],d0
	.dlab LBB57
	.dlab LBB58
	.stabs	"E:\\My Dropbox\\workspace\\GameCards\\MobidexANC\\UI\\/MobKeyboard.h",132,0,0,Ltext28
Ltext28:
	.line 105
	ld   i0,#0xffffffa4
	add  i0,fr
	ld   i1,d3
	call &__ZN6MAUtil11BasicStringIcEC1ERKS1_ ; call non-native
	.dlab LBE58
	.dlab LBE57
	ld   d7,fr
	add  d7,#0xffffffa0
	ld   i0,d7
	ld   i1,#LC2
	call &__ZN6MAUtil11BasicStringIcEC1EPKc ; call non-native
	ld   i0,#0xffffffa4
	add  i0,fr
	ld   i1,d7
	call &__ZNK6MAUtil11BasicStringIcEeqERKS1_ ; call non-native
	and  r14,#0xff  ; zero extend
	jc   eq,r14,d0,#L41
	.dlab LBB59
	.dlab LBB60
	.stabs	"c:/MoSync/include/MAUtil/Vector.h",132,0,0,Ltext29
Ltext29:
	.line 362
	ld   r14,[d2,124]
	ld   r0,[d2,128]
	.dlab LBB61
	sll  r0,#0x2
	ld   r14,[r14,8]
	add  r0,r14
	.dlab LBE61
	.dlab LBE60
	ld   r14,[r0]
	.dlab LBB62
	.stabs	"E:\\My Dropbox\\workspace\\GameCards\\MobidexANC\\UI\\/MobKeyboard.h",132,0,0,Ltext30
Ltext30:
	.line 160
	ld   r14,[r14,8]
	.dlab LBE62
	.dlab LBE59
	.line 366
	ld   r1,#0x2
	jc   eq,r14,r1,#L43
	ld   r0,#0x3
	jc   eq,r14,r0,#L43
L41:
	ld   i0,d7
	call &__ZN6MAUtil11BasicStringIcED1Ev ; call non-native
	ld   i0,#0xffffffa4
	add  i0,fr
	call &__ZN6MAUtil11BasicStringIcED1Ev ; call non-native
	ld.b r0,[fr,-114]
	and  r0,#0xff  ; zero extend
	ld   r14,#0x0
	jc   eq,r0,r14,#L40
	.stabs	"E:\\My Dropbox\\workspace\\GameCards\\MobidexANC\\UI\\MobKeyboard.cpp",132,0,0,Ltext31
Ltext31:
	.line 123
	ld   r0,#0x1
	ld.b [fr,-113],r0
	jp   #L39
L52:
	.line 137
	ld   i1,[fr,-76]
	ld   r0,[fr,-56]
	sub  i1,r0
	ld   i2,[fr,-72]
	ld   r1,[fr,-52]
	sub  i2,r1
	ld   r14,[fr,-64]
	add  r14,#0xffffffff
	ld   [sp],r14
	ld   r14,#0x1
	ld   [sp,4],r14
	jp   #L65
L43:
	.stabs	"E:\\My Dropbox\\workspace\\GameCards\\MobidexANC\\UI\\/MobKeyboard.h",132,0,0,Ltext32
Ltext32:
	.line 366
	ld   r1,#0x1
	ld.b [fr,-114],r1
	jp   #L41
L34:
	ld   d7,#0x1
	jp   #L32
L67:
	.dlab LBE28
	.dlab LBE27
	.dlab LBE14
	.stabs	"E:\\My Dropbox\\workspace\\GameCards\\MobidexANC\\UI\\MobKeyboard.cpp",132,0,0,Ltext33
Ltext33:
	.line 93
	ld   i0,[d2,132]
	call &_maSetColor ; call non-native
	.line 94
	ld   i0,[fr,-56]
	ld   i1,[fr,-52]
	ld   i2,[fr,-48]
	ld   i3,[fr,-44]
	call &_maFillRect ; call non-native
	jp   #L17
L40:
	.dlab LBB63
	.dlab LBB64
	.dlab LBB65
	.stabs	"E:\\My Dropbox\\workspace\\GameCards\\MobidexANC\\UI\\/MobKeyboard.h",132,0,0,Ltext34
Ltext34:
	.line 127
	ld.b r14,[d1,32]
	and  r14,#0xff  ; zero extend
	jc   eq,r14,r0,#L39
	.stabs	"E:\\My Dropbox\\workspace\\GameCards\\MobidexANC\\UI\\MobKeyboard.cpp",132,0,0,Ltext35
Ltext35:
	.line 126
	ld   r1,#0x1
	ld.b [fr,-113],r1
	jp   #L39
L55:
	.line 146
	ld   i0,[d2,136]
	jp   #L64
	.dlab LBE65
	.dlab LBE64
	.dlab LBE63
	.dlab LBE11
	.dlab LBE10
	.stabs	"l_bounds:(8,37)",128,0,89,-60
	.stabn	192,0,0,LBB8-__ZN11MobKeyboard10drawWidgetEv
	.stabs	"this:r(0,91)=k(0,45)",64,0,265,30
	.stabn	192,0,0,LBB9-__ZN11MobKeyboard10drawWidgetEv
	.stabn	224,0,0,LBE9-__ZN11MobKeyboard10drawWidgetEv
	.stabn	224,0,0,LBE8-__ZN11MobKeyboard10drawWidgetEv
	.stabs	"l_bounds:(8,37)",128,0,89,-60
	.stabn	192,0,0,LBB11-__ZN11MobKeyboard10drawWidgetEv
	.stabs	"_ctor_arg:r(8,40)",64,0,101,30
	.stabn	192,0,0,LBB12-__ZN11MobKeyboard10drawWidgetEv
	.stabn	224,0,0,LBE12-__ZN11MobKeyboard10drawWidgetEv
	.stabs	"i:r(0,3)",64,0,102,8
	.stabn	192,0,0,LBB14-__ZN11MobKeyboard10drawWidgetEv
	.stabs	"this:r(0,92)=k(0,28)",64,0,362,30
	.stabn	192,0,0,LBB17-__ZN11MobKeyboard10drawWidgetEv
	.stabn	224,0,0,LBE17-__ZN11MobKeyboard10drawWidgetEv
	.stabs	"this:r(0,92)",64,0,362,30
	.stabn	192,0,0,LBB23-__ZN11MobKeyboard10drawWidgetEv
	.stabn	224,0,0,LBE23-__ZN11MobKeyboard10drawWidgetEv
	.stabs	"l_button:r(8,39)",64,0,104,5
	.stabs	"l_rect:(8,37)",128,0,105,-80
	.stabs	"l_isPressed:(0,4)",128,0,111,-113
	.stabs	"l_strDimensions:r(3,11)",64,0,158,4
	.stabn	192,0,0,LBB28-__ZN11MobKeyboard10drawWidgetEv
	.stabs	"this:r(0,92)",64,0,362,30
	.stabs	"index:r(0,3)",64,0,362,16
	.stabn	192,0,0,LBB44-__ZN11MobKeyboard10drawWidgetEv
	.stabn	224,0,0,LBE44-__ZN11MobKeyboard10drawWidgetEv
	.stabs	"this:r(0,92)",64,0,362,30
	.stabs	"index:r(0,3)",64,0,362,16
	.stabn	192,0,0,LBB60-__ZN11MobKeyboard10drawWidgetEv
	.stabn	224,0,0,LBE60-__ZN11MobKeyboard10drawWidgetEv
	.stabn	224,0,0,LBE28-__ZN11MobKeyboard10drawWidgetEv
	.stabn	224,0,0,LBE14-__ZN11MobKeyboard10drawWidgetEv
	.stabs	"i:r(0,3)",64,0,102,8
	.stabn	192,0,0,LBB63-__ZN11MobKeyboard10drawWidgetEv
	.stabs	"l_button:r(8,39)",64,0,104,5
	.stabs	"l_rect:(8,37)",128,0,105,-80
	.stabs	"l_isPressed:(0,4)",128,0,111,-113
	.stabs	"l_strDimensions:r(3,11)",64,0,158,4
	.stabn	192,0,0,LBB65-__ZN11MobKeyboard10drawWidgetEv
	.stabn	224,0,0,LBE65-__ZN11MobKeyboard10drawWidgetEv
	.stabn	224,0,0,LBE63-__ZN11MobKeyboard10drawWidgetEv
	.stabn	224,0,0,LBE11-__ZN11MobKeyboard10drawWidgetEv
Lscope6:
	.stabs	"_ZN11MobKeyboard19getClickedCharacterE9MAPoint2db:F(11,1)",36,0,229,__ZN11MobKeyboard19getClickedCharacterE9MAPoint2db
	.stabs	"this:P(0,90)",64,0,229,8
	.stabs	"a_clickPoint:P(3,23)",64,0,229,6
	.stabs	"setLastClicked:p(0,4)",160,0,229,0
	.global	__ZN11MobKeyboard19getClickedCharacterE9MAPoint2db

.func __ZN11MobKeyboard19getClickedCharacterE9MAPoint2db, 5, int
	.line 229
	push rt,d7
	sub  sp,#0x14
	ld   fr,sp
	add  fr,#0x3c
	ld   d7,i0
	ld   d4,i1
	ld   d2,i2
	ld   d3,i3
	.dlab LBB66
	.dlab LBB67
	.dlab LBB68
	.line 230
	ld   d5,#0x0
	.dlab LBB69
	.dlab LBB70
	.dlab LBB71
	.stabs	"c:/MoSync/include/MAUtil/Vector.h",132,0,0,Ltext36
Ltext36:
	.line 362
	ld   r14,[i1,124]
	ld   r0,[i1,128]
	.dlab LBB72
	sll  r0,#0x2
	ld   r2,[r14,8]
	ld   r14,r2
	add  r14,r0
	.dlab LBE72
	.dlab LBE71
	ld   r14,[r14]
	.dlab LBB73
	.stabs	"E:\\My Dropbox\\workspace\\GameCards\\MobidexANC\\UI\\/MobKeyboard.h",132,0,0,Ltext37
Ltext37:
	.line 161
	ld   r14,[r14,12]
	.dlab LBE73
	.dlab LBE70
	.dlab LBB74
	.stabs	"c:/MoSync/include/MAUtil/Vector.h",132,0,0,Ltext38
Ltext38:
	.line 265
	ld   r14,[r14]
	.dlab LBE74
	.dlab LBE69
	.line 161
	jc   le,r14,d5,#L86
	ld   r1,r0
	ld   r0,r2
	ld   d6,fr
	add  d6,#0xffffffc4
L84:
	.dlab LBB75
	.dlab LBB76
	.dlab LBB77
	.dlab LBB78
	.dlab LBB79
	.dlab LBB80
	.line 362
	add  r0,r1
	.dlab LBE80
	.dlab LBE79
	ld   r14,[r0]
	.dlab LBB81
	.stabs	"E:\\My Dropbox\\workspace\\GameCards\\MobidexANC\\UI\\/MobKeyboard.h",132,0,0,Ltext39
Ltext39:
	.line 161
	ld   r0,[r14,12]
	.dlab LBE81
	.dlab LBE78
	.dlab LBB82
	.stabs	"c:/MoSync/include/MAUtil/Vector.h",132,0,0,Ltext40
Ltext40:
	.line 362
	ld   r14,d5
	sll  r14,#0x2
	ld   r0,[r0,8]
	add  r14,r0
	.dlab LBE82
	.dlab LBE77
	ld   d1,[r14]
	.dlab LBB83
	.dlab LBB84
	.dlab LBB85
	.dlab LBB86
	.stabs	"E:\\My Dropbox\\workspace\\GameCards\\MobidexANC\\UI\\/MobKeyboard.h",132,0,0,Ltext41
Ltext41:
	.line 101
	ld   r0,#__ZTVN6MAUtil4RectE+8
	ld   [d6],r0
	ld   r1,[d1,4]
	ld   [fr,-56],r1
	ld   r14,[d1,8]
	ld   [fr,-52],r14
	ld   r0,[d1,12]
	ld   [fr,-48],r0
	ld   r1,[d1,16]
	ld   [fr,-44],r1
	.dlab LBE86
	.dlab LBE85
	.dlab LBE84
	.dlab LBE83
	.stabs	"E:\\My Dropbox\\workspace\\GameCards\\MobidexANC\\UI\\MobKeyboard.cpp",132,0,0,Ltext42
Ltext42:
	.line 234
	ld   r14,[d4]
	ld   d0,[r14,36]
	ld   i0,d4
	call d0 ; call non-native
	ld   r0,[fr,-52]
	ld   r14,[r14,8]
	add  r0,r14
	ld   [fr,-52],r0
	.line 236
	ld   r14,[fr,-56]
	jc   gt,r14,d2,#L71
	ld   r1,[fr,-48]
	add  r14,r1
	jc   lt,r14,d2,#L71
	jc   gt,r0,d3,#L71
	ld   r14,[fr,-44]
	add  r14,r0
	jc   ge,r14,d3,#L87
L71:
	.dlab LBE76
	.dlab LBE75
	.line 230
	add  d5,#0x1
	.dlab LBB87
	.dlab LBB88
	.dlab LBB89
	.stabs	"c:/MoSync/include/MAUtil/Vector.h",132,0,0,Ltext43
Ltext43:
	.line 362
	ld   r14,[d4,124]
	ld   r1,[d4,128]
	.dlab LBB90
	sll  r1,#0x2
	ld   r0,[r14,8]
	ld   r14,r0
	add  r14,r1
	.dlab LBE90
	.dlab LBE89
	ld   r14,[r14]
	.dlab LBB91
	.stabs	"E:\\My Dropbox\\workspace\\GameCards\\MobidexANC\\UI\\/MobKeyboard.h",132,0,0,Ltext44
Ltext44:
	.line 161
	ld   r14,[r14,12]
	.dlab LBE91
	.dlab LBE88
	.dlab LBB92
	.stabs	"c:/MoSync/include/MAUtil/Vector.h",132,0,0,Ltext45
Ltext45:
	.line 265
	ld   r14,[r14]
	.dlab LBE92
	.dlab LBE87
	.line 161
	jc   gt,r14,d5,#L84
L86:
	.dlab LBE68
	.stabs	"E:\\My Dropbox\\workspace\\GameCards\\MobidexANC\\UI\\MobKeyboard.cpp",132,0,0,Ltext46
Ltext46:
	.line 249
	ld   i0,d7
	ld   i1,#LC0
	call &__ZN6MAUtil11BasicStringIcEC1EPKc ; call non-native
L68:
	.dlab LBE67
	.dlab LBE66
	.line 250
	ld   r14,d7
	add  sp,#0x14
	pop  rt,d7
	ret
L87:
	.dlab LBB93
	.dlab LBB94
	.dlab LBB95
	.dlab LBB96
	.dlab LBB97
	.line 241
	ld.b r14,[fr]
	and  r14,#0xff  ; zero extend
	ld   r0,#0x0
	jc   eq,r14,r0,#L81
	.line 242
	ld   [d4,156],d1
	.dlab LBB98
	.dlab LBB99
	.stabs	"E:\\My Dropbox\\workspace\\GameCards\\MobidexANC\\UI\\/MobKeyboard.h",132,0,0,Ltext47
Ltext47:
	.line 124
	ld   r1,#0x1
	ld.b [d1,32],r1
L81:
	.dlab LBE99
	.dlab LBE98
	.dlab LBB100
	.dlab LBB101
	.line 105
	ld   i0,d7
	ld   i1,d1
	add  i1,#0x14
	call &__ZN6MAUtil11BasicStringIcEC1ERKS1_ ; call non-native
	jp   #L68
	.dlab LBE101
	.dlab LBE100
	.dlab LBE97
	.dlab LBE96
	.dlab LBE95
	.dlab LBE94
	.dlab LBE93
	.stabs	"i:r(0,3)",64,0,230,9
	.stabn	192,0,0,LBB68-__ZN11MobKeyboard19getClickedCharacterE9MAPoint2db
	.stabs	"this:r(0,92)",64,0,362,30
	.stabn	192,0,0,LBB71-__ZN11MobKeyboard19getClickedCharacterE9MAPoint2db
	.stabn	224,0,0,LBE71-__ZN11MobKeyboard19getClickedCharacterE9MAPoint2db
	.stabs	"l_button:r(8,39)",64,0,232,5
	.stabs	"l_rect:(8,37)",128,0,233,-60
	.stabn	192,0,0,LBB76-__ZN11MobKeyboard19getClickedCharacterE9MAPoint2db
	.stabn	224,0,0,LBE76-__ZN11MobKeyboard19getClickedCharacterE9MAPoint2db
	.stabs	"this:r(0,92)",64,0,362,30
	.stabn	192,0,0,LBB89-__ZN11MobKeyboard19getClickedCharacterE9MAPoint2db
	.stabn	224,0,0,LBE89-__ZN11MobKeyboard19getClickedCharacterE9MAPoint2db
	.stabn	224,0,0,LBE68-__ZN11MobKeyboard19getClickedCharacterE9MAPoint2db
	.stabs	"i:r(0,3)",64,0,230,9
	.stabn	192,0,0,LBB95-__ZN11MobKeyboard19getClickedCharacterE9MAPoint2db
	.stabs	"l_button:r(8,39)",64,0,232,5
	.stabs	"l_rect:(8,37)",128,0,233,-60
	.stabn	192,0,0,LBB97-__ZN11MobKeyboard19getClickedCharacterE9MAPoint2db
	.stabn	224,0,0,LBE97-__ZN11MobKeyboard19getClickedCharacterE9MAPoint2db
	.stabn	224,0,0,LBE95-__ZN11MobKeyboard19getClickedCharacterE9MAPoint2db
Lscope7:
	.set	%0=__ZN11MobKeyboard17pointerPressEventE9MAPoint2d
	.stabs	"this:P(0,90)",64,0,253,12
	.stabs	"p:p(3,23)",160,0,253,-16
	.global	__ZThn116_N11MobKeyboard17pointerPressEventE9MAPoint2d

.func __ZThn116_N11MobKeyboard17pointerPressEventE9MAPoint2d, 3, void
	.line 18
	push rt,fr
	sub  sp,#0x8
	ld   fr,sp
	add  fr,#0x10
	ld   [fr,-16],i1
	ld   [fr,-12],i2
	.line 18
	add  i0,#0xffffff8c
	call &%0 ; call non-native
	add  sp,#0x8
	pop  rt,fr
	ret
Lscope8:
	.stabs	"_ZN11MobKeyboard17pointerPressEventE9MAPoint2d:F(0,6)",36,0,253,__ZN11MobKeyboard17pointerPressEventE9MAPoint2d
	.stabs	"this:P(0,90)",64,0,253,5
	.stabs	"p:p(3,23)",160,0,253,-28
	.global	__ZN11MobKeyboard17pointerPressEventE9MAPoint2d

.func __ZN11MobKeyboard17pointerPressEventE9MAPoint2d, 3, void
	.stabs	"E:\\My Dropbox\\workspace\\GameCards\\MobidexANC\\UI\\MobKeyboard.cpp",132,0,0,Ltext48
Ltext48:
	.line 253
	push rt,d1
	sub  sp,#0x10
	ld   fr,sp
	add  fr,#0x20
	ld   d1,i0
	ld   [fr,-28],i1
	ld   [fr,-24],i2
	.dlab LBB102
	.line 254
	ld   d0,fr
	add  d0,#0xffffffec
	ld   r14,i1
	ld   r15,i2
	ld   r0,#0x1
	ld.b [sp],r0
	ld   i0,d0
	ld   i1,d1
	ld   i2,r14
	ld   i3,r15
	call &__ZN11MobKeyboard19getClickedCharacterE9MAPoint2db ; call non-native
	ld   i0,d0
	call &__ZN6MAUtil11BasicStringIcED1Ev ; call non-native
	.line 255
	ld   i0,d1
	call &__ZN4MAUI6Widget14requestRepaintEv ; call non-native
	.dlab LBE102
	add  sp,#0x10
	pop  rt,d1
	ret
Lscope9:
	.set	%1=__ZN11MobKeyboard16pointerMoveEventE9MAPoint2d
	.stabs	"this:P(0,90)",64,0,259,12
	.stabs	"p:P(3,23)",64,0,259,30
	.global	__ZThn116_N11MobKeyboard16pointerMoveEventE9MAPoint2d

.func __ZThn116_N11MobKeyboard16pointerMoveEventE9MAPoint2d, 3, void
	.stabs	"E:\\My Dropbox\\workspace\\GameCards\\MobidexANC\\UI\\/MobKeyboard.h",132,0,0,Ltext49
Ltext49:
	.line 18
	push rt,fr
	ld   fr,sp
	add  fr,#0x8
	.line 18
	add  i0,#0xffffff8c
	call &%1 ; call non-native
	pop  rt,fr
	ret
Lscope10:
	.stabs	"_ZN11MobKeyboard16pointerMoveEventE9MAPoint2d:F(0,6)",36,0,259,__ZN11MobKeyboard16pointerMoveEventE9MAPoint2d
	.stabs	"this:P(0,90)",64,0,259,12
	.stabs	"p:P(3,23)",64,0,259,13
	.global	__ZN11MobKeyboard16pointerMoveEventE9MAPoint2d

.func __ZN11MobKeyboard16pointerMoveEventE9MAPoint2d, 3, void
	.stabs	"E:\\My Dropbox\\workspace\\GameCards\\MobidexANC\\UI\\MobKeyboard.cpp",132,0,0,Ltext50
Ltext50:
	.line 259
	push fr,fr
	ld   fr,sp
	add  fr,#0x4
	.line 259
	pop  fr,fr
	ret
Lscope11:
	.stabs	"_ZN11MobKeyboard14toggleLanguageEv:F(0,6)",36,0,446,__ZN11MobKeyboard14toggleLanguageEv
	.stabs	"this:P(0,90)",64,0,446,12
	.global	__ZN11MobKeyboard14toggleLanguageEv

.func __ZN11MobKeyboard14toggleLanguageEv, 1, void
	.line 446
	push rt,fr
	ld   fr,sp
	add  fr,#0x8
	.dlab LBB103
	.line 447
	ld   r0,[i0,128]
	ld   r1,#0x0
	jc   lt,r0,r1,#L92
	.dlab LBB104
	.stabs	"c:/MoSync/include/MAUtil/Vector.h",132,0,0,Ltext51
Ltext51:
	.line 265
	ld   r14,[i0,124]
	.dlab LBB105
	ld   r14,[r14]
	.dlab LBE105
	.dlab LBE104
	jc   ge,r0,r14,#L92
	ld   r1,#0x4
	jc   le,r14,r1,#L92
	.stabs	"E:\\My Dropbox\\workspace\\GameCards\\MobidexANC\\UI\\MobKeyboard.cpp",132,0,0,Ltext52
Ltext52:
	.line 454
	ld   r1,r0
	add  r1,#0x4
	.stabs	"c:/MoSync/include/MAUtil/Vector.h",132,0,0,Ltext53
Ltext53:
	.line 265
	jc   lt,r1,r14,#L98
	.stabs	"E:\\My Dropbox\\workspace\\GameCards\\MobidexANC\\UI\\MobKeyboard.cpp",132,0,0,Ltext54
Ltext54:
	.line 455
	ld   r14,r0
	ld   r1,#0x0
	jc   lt,r0,r1,#L102
L100:
	and  r14,#0xfffffffc
	sub  r0,r14
	ld   [i0,128],r0
	.line 459
	call &__ZN4MAUI6Widget14requestRepaintEv ; call non-native
L92:
	.dlab LBE103
	.line 460
	pop  rt,fr
	ret
L98:
	.dlab LBB106
	.line 457
	ld   [i0,128],r1
	.line 459
	call &__ZN4MAUI6Widget14requestRepaintEv ; call non-native
	jp   #L92
L102:
	.line 455
	add  r14,#0x3
	jp   #L100
	.dlab LBE106
	.stabs	"this:r(0,91)",64,0,265,30
	.stabn	192,0,0,LBB104-__ZN11MobKeyboard14toggleLanguageEv
	.stabn	224,0,0,LBE104-__ZN11MobKeyboard14toggleLanguageEv
Lscope12:
	.stabs	"_ZN11MobKeyboard12attachScreenEPN4MAUI6ScreenE:F(0,6)",36,0,356,__ZN11MobKeyboard12attachScreenEPN4MAUI6ScreenE
	.stabs	"this:P(0,90)",64,0,356,12
	.stabs	"screen:P(0,53)",64,0,356,13
	.global	__ZN11MobKeyboard12attachScreenEPN4MAUI6ScreenE

.func __ZN11MobKeyboard12attachScreenEPN4MAUI6ScreenE, 2, void
	.line 356
	push fr,fr
	ld   fr,sp
	add  fr,#0x4
	.dlab LBB107
	.line 357
	ld   [i0,160],i1
	.dlab LBE107
	pop  fr,fr
	ret
Lscope13:
	.stabs	"_ZN11MobKeyboard14deAttachScreenEv:F(0,6)",36,0,360,__ZN11MobKeyboard14deAttachScreenEv
	.stabs	"this:P(0,90)",64,0,360,12
	.global	__ZN11MobKeyboard14deAttachScreenEv

.func __ZN11MobKeyboard14deAttachScreenEv, 1, void
	.line 360
	push fr,fr
	ld   fr,sp
	add  fr,#0x4
	.dlab LBB108
	.line 361
	ld   r14,#0x0
	ld   [i0,160],r14
	.dlab LBE108
	pop  fr,fr
	ret
Lscope14:
	.stabs	"_ZN11MobKeyboard17setScreenFunctionEMN4MAUI6ScreenEFviE:F(0,6)",36,0,364,__ZN11MobKeyboard17setScreenFunctionEMN4MAUI6ScreenEFviE
	.stabs	"this:P(0,90)",64,0,364,12
	.stabs	"screenFunc:P(0,55)",64,0,364,30
	.global	__ZN11MobKeyboard17setScreenFunctionEMN4MAUI6ScreenEFviE

.func __ZN11MobKeyboard17setScreenFunctionEMN4MAUI6ScreenEFviE, 3, void
	.line 364
	push fr,fr
	ld   fr,sp
	add  fr,#0x4
	.dlab LBB109
	.line 365
	ld   [i0,164],i1
	ld   [i0,168],i2
	.dlab LBE109
	pop  fr,fr
	ret
Lscope15:
	.stabs	"_ZN11MobKeyboard19clearScreenFunctionEv:F(0,6)",36,0,368,__ZN11MobKeyboard19clearScreenFunctionEv
	.stabs	"this:P(0,90)",64,0,368,12
	.global	__ZN11MobKeyboard19clearScreenFunctionEv

.func __ZN11MobKeyboard19clearScreenFunctionEv, 1, void
	.line 368
	push fr,fr
	ld   fr,sp
	add  fr,#0x4
	.dlab LBB110
	.line 369
	ld   r14,#0x0
	ld   [i0,164],r14
	ld   [i0,168],r14
	.dlab LBE110
	pop  fr,fr
	ret
Lscope16:
	.stabs	"_ZN11MobKeyboard12attachWidgetEPN4MAUI6WidgetE:F(0,6)",36,0,373,__ZN11MobKeyboard12attachWidgetEPN4MAUI6WidgetE
	.stabs	"this:P(0,90)",64,0,373,12
	.stabs	"a_widget:P(9,3)",64,0,373,13
	.global	__ZN11MobKeyboard12attachWidgetEPN4MAUI6WidgetE

.func __ZN11MobKeyboard12attachWidgetEPN4MAUI6WidgetE, 2, void
	.line 373
	push fr,fr
	ld   fr,sp
	add  fr,#0x4
	.dlab LBB111
	.line 374
	ld   [i0,148],i1
	.dlab LBE111
	pop  fr,fr
	ret
Lscope17:
	.stabs	"_ZN11MobKeyboard15deAttachEditBoxEv:F(0,6)",36,0,378,__ZN11MobKeyboard15deAttachEditBoxEv
	.stabs	"this:P(0,90)",64,0,378,12
	.global	__ZN11MobKeyboard15deAttachEditBoxEv

.func __ZN11MobKeyboard15deAttachEditBoxEv, 1, void
	.line 378
	push fr,fr
	ld   fr,sp
	add  fr,#0x4
	.dlab LBB112
	.line 379
	ld   r14,#0x0
	ld   [i0,148],r14
	.dlab LBE112
	pop  fr,fr
	ret
Lscope18:
	.stabs	"_ZN11MobKeyboard15setActiveLayoutERKN6MAUtil11BasicStringIcEE:F(0,6)",36,0,383,__ZN11MobKeyboard15setActiveLayoutERKN6MAUtil11BasicStringIcEE
	.stabs	"this:P(0,90)",64,0,383,7
	.stabs	"a_layoutName:P(8,42)",64,0,383,8
	.global	__ZN11MobKeyboard15setActiveLayoutERKN6MAUtil11BasicStringIcEE

.func __ZN11MobKeyboard15setActiveLayoutERKN6MAUtil11BasicStringIcEE, 2, void
	.line 383
	push rt,d4
	sub  sp,#0x4
	ld   fr,sp
	add  fr,#0x20
	ld   d3,i0
	ld   d4,i1
	.dlab LBB113
	.dlab LBB114
	.dlab LBB115
	.line 384
	ld   d2,#0x0
	.dlab LBB116
	.stabs	"c:/MoSync/include/MAUtil/Vector.h",132,0,0,Ltext55
Ltext55:
	.line 265
	ld   r0,[i0,124]
	.dlab LBB117
	ld   r14,[r0]
	.dlab LBE117
	.dlab LBE116
	jc   le,r14,d2,#L111
	ld   d1,fr
	add  d1,#0xffffffe0
L117:
	.dlab LBB118
	.dlab LBB119
	.dlab LBB120
	.line 362
	ld   r14,d2
	sll  r14,#0x2
	ld   r0,[r0,8]
	add  r14,r0
	.dlab LBE120
	.dlab LBE119
	.dlab LBB121
	.stabs	"E:\\My Dropbox\\workspace\\GameCards\\MobidexANC\\UI\\/MobKeyboard.h",132,0,0,Ltext56
Ltext56:
	.line 158
	ld   i0,d1
	ld   i1,[r14]
	call &__ZN6MAUtil11BasicStringIcEC1ERKS1_ ; call non-native
	.dlab LBE121
	.dlab LBE118
	.line 366
	ld   i0,d1
	ld   i1,d4
	call &__ZNK6MAUtil11BasicStringIcEeqERKS1_ ; call non-native
	ld   d0,r14
	ld   i0,d1
	call &__ZN6MAUtil11BasicStringIcED1Ev ; call non-native
	and  d0,#0xff  ; zero extend
	ld   r1,#0x0
	jc   ne,d0,r1,#L119
	.stabs	"E:\\My Dropbox\\workspace\\GameCards\\MobidexANC\\UI\\MobKeyboard.cpp",132,0,0,Ltext57
Ltext57:
	.line 384
	add  d2,#0xffffffff
	.dlab LBB122
	.stabs	"c:/MoSync/include/MAUtil/Vector.h",132,0,0,Ltext58
Ltext58:
	.line 265
	ld   r0,[d3,124]
	.dlab LBB123
	ld   r14,[r0]
	.dlab LBE123
	.dlab LBE122
	jc   gt,r14,d2,#L117
L111:
	.dlab LBE115
	.dlab LBE114
	.dlab LBE113
	add  sp,#0x4
	pop  rt,d4
	ret
L119:
	.dlab LBB124
	.dlab LBB125
	.dlab LBB126
	.stabs	"E:\\My Dropbox\\workspace\\GameCards\\MobidexANC\\UI\\MobKeyboard.cpp",132,0,0,Ltext59
Ltext59:
	.line 388
	ld   [d3,128],d2
	.line 389
	ld   i0,d3
	call &__ZN4MAUI6Widget14requestRepaintEv ; call non-native
	.dlab LBE126
	.dlab LBE125
	.dlab LBE124
	.stabs	"c:/MoSync/include/MAUtil/Vector.h",132,0,0,Ltext60
Ltext60:
	.line 265
	add  sp,#0x4
	pop  rt,d4
	ret
	.stabs	"i:r(0,3)",64,0,384,6
	.stabn	192,0,0,LBB115-__ZN11MobKeyboard15setActiveLayoutERKN6MAUtil11BasicStringIcEE
	.stabs	"this:r(0,91)",64,0,265,16
	.stabn	192,0,0,LBB116-__ZN11MobKeyboard15setActiveLayoutERKN6MAUtil11BasicStringIcEE
	.stabn	224,0,0,LBE116-__ZN11MobKeyboard15setActiveLayoutERKN6MAUtil11BasicStringIcEE
	.stabs	"this:r(0,91)",64,0,265,16
	.stabn	192,0,0,LBB122-__ZN11MobKeyboard15setActiveLayoutERKN6MAUtil11BasicStringIcEE
	.stabn	224,0,0,LBE122-__ZN11MobKeyboard15setActiveLayoutERKN6MAUtil11BasicStringIcEE
	.stabn	224,0,0,LBE115-__ZN11MobKeyboard15setActiveLayoutERKN6MAUtil11BasicStringIcEE
	.stabs	"i:r(0,3)",64,0,384,6
	.stabn	192,0,0,LBB126-__ZN11MobKeyboard15setActiveLayoutERKN6MAUtil11BasicStringIcEE
	.stabn	224,0,0,LBE126-__ZN11MobKeyboard15setActiveLayoutERKN6MAUtil11BasicStringIcEE
Lscope19:
	.stabs	"_ZN11MobKeyboard15setActiveLayoutERKN6MAUtil11BasicStringIcEENS_10LayoutTypeE:F(0,6)",36,0,396,__ZN11MobKeyboard15setActiveLayoutERKN6MAUtil11BasicStringIcEENS_10LayoutTypeE
	.stabs	"this:P(0,90)",64,0,396,7
	.stabs	"a_language:P(8,42)",64,0,396,9
	.stabs	"a_layoutType:P(8,1)",64,0,396,10
	.global	__ZN11MobKeyboard15setActiveLayoutERKN6MAUtil11BasicStringIcEENS_10LayoutTypeE

.func __ZN11MobKeyboard15setActiveLayoutERKN6MAUtil11BasicStringIcEENS_10LayoutTypeE, 3, void
	.stabs	"E:\\My Dropbox\\workspace\\GameCards\\MobidexANC\\UI\\MobKeyboard.cpp",132,0,0,Ltext61
Ltext61:
	.line 396
	push rt,d6
	sub  sp,#0x4
	ld   fr,sp
	add  fr,#0x28
	ld   d3,i0
	ld   d5,i1
	ld   d6,i2
	.dlab LBB127
	.dlab LBB128
	.dlab LBB129
	.line 397
	ld   d1,#0x0
	.dlab LBB130
	.stabs	"c:/MoSync/include/MAUtil/Vector.h",132,0,0,Ltext62
Ltext62:
	.line 265
	ld   r0,[i0,124]
	.dlab LBB131
	ld   r14,[r0]
	.dlab LBE131
	.dlab LBE130
	jc   le,r14,d1,#L122
	ld   d2,fr
	add  d2,#0xffffffd8
	jp   #L131
L126:
	.stabs	"E:\\My Dropbox\\workspace\\GameCards\\MobidexANC\\UI\\/MobKeyboard.h",132,0,0,Ltext63
Ltext63:
	.line 366
	ld   i0,d2
	call &__ZN6MAUtil11BasicStringIcED1Ev ; call non-native
	ld   r14,d4
	and  r14,#0xff  ; zero extend
	ld   r1,#0x0
	jc   ne,r14,r1,#L133
L123:
	.stabs	"E:\\My Dropbox\\workspace\\GameCards\\MobidexANC\\UI\\MobKeyboard.cpp",132,0,0,Ltext64
Ltext64:
	.line 397
	add  d1,#0x1
	.dlab LBB132
	.stabs	"c:/MoSync/include/MAUtil/Vector.h",132,0,0,Ltext65
Ltext65:
	.line 265
	ld   r0,[d3,124]
	.dlab LBB133
	ld   r14,[r0]
	.dlab LBE133
	.dlab LBE132
	jc   le,r14,d1,#L122
L131:
	.stabs	"E:\\My Dropbox\\workspace\\GameCards\\MobidexANC\\UI\\MobKeyboard.cpp",132,0,0,Ltext66
Ltext66:
	.line 399
	ld   d4,#0x0
	.dlab LBB134
	.dlab LBB135
	.dlab LBB136
	.stabs	"c:/MoSync/include/MAUtil/Vector.h",132,0,0,Ltext67
Ltext67:
	.line 362
	ld   d0,d1
	sll  d0,#0x2
	ld   r14,[r0,8]
	add  r14,d0
	.dlab LBE136
	.dlab LBE135
	.dlab LBB137
	.stabs	"E:\\My Dropbox\\workspace\\GameCards\\MobidexANC\\UI\\/MobKeyboard.h",132,0,0,Ltext68
Ltext68:
	.line 159
	ld   i0,d2
	ld   i1,[r14]
	add  i1,#0x4
	call &__ZN6MAUtil11BasicStringIcEC1ERKS1_ ; call non-native
	.dlab LBE137
	.dlab LBE134
	.line 366
	ld   i0,d2
	ld   i1,d5
	call &__ZNK6MAUtil11BasicStringIcEeqERKS1_ ; call non-native
	and  r14,#0xff  ; zero extend
	ld   r0,#0x0
	jc   eq,r14,r0,#L126
	.dlab LBB138
	.dlab LBB139
	.stabs	"c:/MoSync/include/MAUtil/Vector.h",132,0,0,Ltext69
Ltext69:
	.line 362
	ld   r14,[d3,124]
	.dlab LBB140
	ld   r14,[r14,8]
	add  d0,r14
	.dlab LBE140
	.dlab LBE139
	ld   r14,[d0]
	.dlab LBB141
	.stabs	"E:\\My Dropbox\\workspace\\GameCards\\MobidexANC\\UI\\/MobKeyboard.h",132,0,0,Ltext70
Ltext70:
	.line 160
	ld   r14,[r14,8]
	.dlab LBE141
	.dlab LBE138
	.line 366
	jc   ne,r14,d6,#L126
	ld   d4,#0x1
	ld   i0,d2
	call &__ZN6MAUtil11BasicStringIcED1Ev ; call non-native
	ld   r14,d4
	and  r14,#0xff  ; zero extend
	ld   r1,#0x0
	jc   eq,r14,r1,#L123
L133:
	.stabs	"E:\\My Dropbox\\workspace\\GameCards\\MobidexANC\\UI\\MobKeyboard.cpp",132,0,0,Ltext71
Ltext71:
	.line 402
	ld   [d3,128],d1
	.line 403
	ld   i0,d3
	call &__ZN4MAUI6Widget14requestRepaintEv ; call non-native
L122:
	.dlab LBE129
	.dlab LBE128
	.dlab LBE127
	.stabs	"c:/MoSync/include/MAUtil/Vector.h",132,0,0,Ltext72
Ltext72:
	.line 265
	add  sp,#0x4
	pop  rt,d6
	ret
	.stabs	"i:r(0,3)",64,0,397,5
	.stabn	192,0,0,LBB129-__ZN11MobKeyboard15setActiveLayoutERKN6MAUtil11BasicStringIcEENS_10LayoutTypeE
	.stabs	"this:r(0,91)",64,0,265,16
	.stabn	192,0,0,LBB130-__ZN11MobKeyboard15setActiveLayoutERKN6MAUtil11BasicStringIcEENS_10LayoutTypeE
	.stabn	224,0,0,LBE130-__ZN11MobKeyboard15setActiveLayoutERKN6MAUtil11BasicStringIcEENS_10LayoutTypeE
	.stabs	"this:r(0,91)",64,0,265,16
	.stabn	192,0,0,LBB132-__ZN11MobKeyboard15setActiveLayoutERKN6MAUtil11BasicStringIcEENS_10LayoutTypeE
	.stabn	224,0,0,LBE132-__ZN11MobKeyboard15setActiveLayoutERKN6MAUtil11BasicStringIcEENS_10LayoutTypeE
	.stabs	"this:r(0,92)",64,0,362,30
	.stabn	192,0,0,LBB139-__ZN11MobKeyboard15setActiveLayoutERKN6MAUtil11BasicStringIcEENS_10LayoutTypeE
	.stabn	224,0,0,LBE139-__ZN11MobKeyboard15setActiveLayoutERKN6MAUtil11BasicStringIcEENS_10LayoutTypeE
	.stabn	224,0,0,LBE129-__ZN11MobKeyboard15setActiveLayoutERKN6MAUtil11BasicStringIcEENS_10LayoutTypeE
Lscope20:
	.stabs	"_ZN11MobKeyboard9toggleNumEv:F(0,6)",36,0,428,__ZN11MobKeyboard9toggleNumEv
	.stabs	"this:P(0,90)",64,0,428,4
	.global	__ZN11MobKeyboard9toggleNumEv

.func __ZN11MobKeyboard9toggleNumEv, 1, void
	.stabs	"E:\\My Dropbox\\workspace\\GameCards\\MobidexANC\\UI\\MobKeyboard.cpp",132,0,0,Ltext73
Ltext73:
	.line 428
	push rt,d1
	sub  sp,#0x4
	ld   fr,sp
	add  fr,#0x14
	ld   d0,i0
	.dlab LBB142
	.dlab LBB143
	.line 429
	ld   r14,[i0,128]
	ld   r0,#0x0
	jc   lt,r14,r0,#L134
	.dlab LBB144
	.stabs	"c:/MoSync/include/MAUtil/Vector.h",132,0,0,Ltext74
Ltext74:
	.line 265
	ld   r0,[i0,124]
	.dlab LBE144
	ld   r1,[r0]
	jc   lt,r14,r1,#L150
L134:
	.dlab LBE143
	.dlab LBE142
	.stabs	"E:\\My Dropbox\\workspace\\GameCards\\MobidexANC\\UI\\MobKeyboard.cpp",132,0,0,Ltext75
Ltext75:
	.line 443
	add  sp,#0x4
	pop  rt,d1
	ret
L150:
	.dlab LBB145
	.dlab LBB146
	.dlab LBB147
	.dlab LBB148
	.dlab LBB149
	.stabs	"c:/MoSync/include/MAUtil/Vector.h",132,0,0,Ltext76
Ltext76:
	.line 362
	sll  r14,#0x2
	ld   r0,[r0,8]
	add  r14,r0
	.dlab LBE149
	.dlab LBE148
	.dlab LBB150
	.stabs	"E:\\My Dropbox\\workspace\\GameCards\\MobidexANC\\UI\\/MobKeyboard.h",132,0,0,Ltext77
Ltext77:
	.line 159
	ld   d1,fr
	add  d1,#0xffffffec
	ld   i0,d1
	ld   i1,[r14]
	add  i1,#0x4
	call &__ZN6MAUtil11BasicStringIcEC1ERKS1_ ; call non-native
	.dlab LBE150
	.dlab LBE147
	.dlab LBB151
	.dlab LBB152
	.stabs	"c:/MoSync/include/MAUtil/Vector.h",132,0,0,Ltext78
Ltext78:
	.line 362
	ld   r14,[d0,124]
	ld   r0,[d0,128]
	.dlab LBB153
	sll  r0,#0x2
	ld   r14,[r14,8]
	add  r0,r14
	.dlab LBE153
	.dlab LBE152
	ld   r14,[r0]
	.dlab LBB154
	.stabs	"E:\\My Dropbox\\workspace\\GameCards\\MobidexANC\\UI\\/MobKeyboard.h",132,0,0,Ltext79
Ltext79:
	.line 160
	ld   r14,[r14,8]
	.dlab LBE154
	.dlab LBE151
	.stabs	"E:\\My Dropbox\\workspace\\GameCards\\MobidexANC\\UI\\MobKeyboard.cpp",132,0,0,Ltext80
Ltext80:
	.line 435
	ld   r0,#0x0
	jc   eq,r14,r0,#L151
	.line 437
	ld   r1,#0x1
	jc   eq,r14,r1,#L152
	.line 439
	ld   r0,#0x2
	jc   eq,r14,r0,#L153
	.line 441
	ld   r1,#0x3
	jc   eq,r14,r1,#L154
	.line 442
	ld   i0,d1
	call &__ZN6MAUtil11BasicStringIcED1Ev ; call non-native
L155:
	.dlab LBE146
	.dlab LBE145
	.line 443
	add  sp,#0x4
	pop  rt,d1
	ret
L151:
	.dlab LBB155
	.dlab LBB156
	.line 436
	ld   i0,d0
	ld   i1,d1
	ld   i2,#0x2
	.line 442
	call &__ZN11MobKeyboard15setActiveLayoutERKN6MAUtil11BasicStringIcEENS_10LayoutTypeE ; call non-native
L156:
	ld   i0,d1
	call &__ZN6MAUtil11BasicStringIcED1Ev ; call non-native
	jp   #L155
L154:
	ld   i0,d0
	ld   i1,d1
	ld   i2,#0x1
	call &__ZN11MobKeyboard15setActiveLayoutERKN6MAUtil11BasicStringIcEENS_10LayoutTypeE ; call non-native
	jp   #L156
L152:
	.line 438
	ld   i0,d0
	ld   i1,d1
	ld   i2,#0x3
	.line 442
	call &__ZN11MobKeyboard15setActiveLayoutERKN6MAUtil11BasicStringIcEENS_10LayoutTypeE ; call non-native
	jp   #L156
L153:
	.line 440
	ld   i0,d0
	ld   i1,d1
	ld   i2,#0x0
	.line 442
	call &__ZN11MobKeyboard15setActiveLayoutERKN6MAUtil11BasicStringIcEENS_10LayoutTypeE ; call non-native
	jp   #L156
	.dlab LBE156
	.dlab LBE155
	.stabs	"l_activeLanguage:(11,1)",128,0,432,-20
	.stabs	"a_activeLayoutType:r(8,1)",64,0,433,30
	.stabn	192,0,0,LBB143-__ZN11MobKeyboard9toggleNumEv
	.stabs	"this:r(0,91)",64,0,265,16
	.stabn	192,0,0,LBB144-__ZN11MobKeyboard9toggleNumEv
	.stabn	224,0,0,LBE144-__ZN11MobKeyboard9toggleNumEv
	.stabn	224,0,0,LBE143-__ZN11MobKeyboard9toggleNumEv
	.stabs	"l_activeLanguage:(11,1)",128,0,432,-20
	.stabs	"a_activeLayoutType:r(8,1)",64,0,433,30
	.stabn	192,0,0,LBB146-__ZN11MobKeyboard9toggleNumEv
	.stabs	"this:r(0,92)",64,0,362,30
	.stabs	"index:r(0,3)",64,0,362,16
	.stabn	192,0,0,LBB152-__ZN11MobKeyboard9toggleNumEv
	.stabn	224,0,0,LBE152-__ZN11MobKeyboard9toggleNumEv
	.stabn	224,0,0,LBE146-__ZN11MobKeyboard9toggleNumEv
	.stabs	"l_activeLanguage:(11,1)",128,0,432,-20
	.stabs	"a_activeLayoutType:r(8,1)",64,0,433,30
	.stabn	192,0,0,LBB156-__ZN11MobKeyboard9toggleNumEv
	.stabn	224,0,0,LBE156-__ZN11MobKeyboard9toggleNumEv
Lscope21:
	.stabs	"_ZN11MobKeyboard11toggleShiftEv:F(0,6)",36,0,410,__ZN11MobKeyboard11toggleShiftEv
	.stabs	"this:P(0,90)",64,0,410,4
	.global	__ZN11MobKeyboard11toggleShiftEv

.func __ZN11MobKeyboard11toggleShiftEv, 1, void
	.line 410
	push rt,d1
	sub  sp,#0x4
	ld   fr,sp
	add  fr,#0x14
	ld   d0,i0
	.dlab LBB157
	.dlab LBB158
	.line 411
	ld   r14,[i0,128]
	ld   r0,#0x0
	jc   lt,r14,r0,#L157
	.dlab LBB159
	.stabs	"c:/MoSync/include/MAUtil/Vector.h",132,0,0,Ltext81
Ltext81:
	.line 265
	ld   r0,[i0,124]
	.dlab LBE159
	ld   r1,[r0]
	jc   lt,r14,r1,#L173
L157:
	.dlab LBE158
	.dlab LBE157
	.stabs	"E:\\My Dropbox\\workspace\\GameCards\\MobidexANC\\UI\\MobKeyboard.cpp",132,0,0,Ltext82
Ltext82:
	.line 425
	add  sp,#0x4
	pop  rt,d1
	ret
L173:
	.dlab LBB160
	.dlab LBB161
	.dlab LBB162
	.dlab LBB163
	.dlab LBB164
	.stabs	"c:/MoSync/include/MAUtil/Vector.h",132,0,0,Ltext83
Ltext83:
	.line 362
	sll  r14,#0x2
	ld   r0,[r0,8]
	add  r14,r0
	.dlab LBE164
	.dlab LBE163
	.dlab LBB165
	.stabs	"E:\\My Dropbox\\workspace\\GameCards\\MobidexANC\\UI\\/MobKeyboard.h",132,0,0,Ltext84
Ltext84:
	.line 159
	ld   d1,fr
	add  d1,#0xffffffec
	ld   i0,d1
	ld   i1,[r14]
	add  i1,#0x4
	call &__ZN6MAUtil11BasicStringIcEC1ERKS1_ ; call non-native
	.dlab LBE165
	.dlab LBE162
	.dlab LBB166
	.dlab LBB167
	.stabs	"c:/MoSync/include/MAUtil/Vector.h",132,0,0,Ltext85
Ltext85:
	.line 362
	ld   r14,[d0,124]
	ld   r0,[d0,128]
	.dlab LBB168
	sll  r0,#0x2
	ld   r14,[r14,8]
	add  r0,r14
	.dlab LBE168
	.dlab LBE167
	ld   r14,[r0]
	.dlab LBB169
	.stabs	"E:\\My Dropbox\\workspace\\GameCards\\MobidexANC\\UI\\/MobKeyboard.h",132,0,0,Ltext86
Ltext86:
	.line 160
	ld   r14,[r14,8]
	.dlab LBE169
	.dlab LBE166
	.stabs	"E:\\My Dropbox\\workspace\\GameCards\\MobidexANC\\UI\\MobKeyboard.cpp",132,0,0,Ltext87
Ltext87:
	.line 417
	ld   r0,#0x0
	jc   eq,r14,r0,#L174
	.line 419
	ld   r1,#0x1
	jc   eq,r14,r1,#L175
	.line 421
	ld   r0,#0x2
	jc   eq,r14,r0,#L176
	.line 423
	ld   r1,#0x3
	jc   eq,r14,r1,#L177
	.line 424
	ld   i0,d1
	call &__ZN6MAUtil11BasicStringIcED1Ev ; call non-native
L178:
	.dlab LBE161
	.dlab LBE160
	.line 425
	add  sp,#0x4
	pop  rt,d1
	ret
L174:
	.dlab LBB170
	.dlab LBB171
	.line 418
	ld   i0,d0
	ld   i1,d1
	ld   i2,#0x1
	.line 424
	call &__ZN11MobKeyboard15setActiveLayoutERKN6MAUtil11BasicStringIcEENS_10LayoutTypeE ; call non-native
L179:
	ld   i0,d1
	call &__ZN6MAUtil11BasicStringIcED1Ev ; call non-native
	jp   #L178
L177:
	ld   i0,d0
	ld   i1,d1
	ld   i2,#0x2
	call &__ZN11MobKeyboard15setActiveLayoutERKN6MAUtil11BasicStringIcEENS_10LayoutTypeE ; call non-native
	jp   #L179
L175:
	.line 420
	ld   i0,d0
	ld   i1,d1
	ld   i2,#0x0
	.line 424
	call &__ZN11MobKeyboard15setActiveLayoutERKN6MAUtil11BasicStringIcEENS_10LayoutTypeE ; call non-native
	jp   #L179
L176:
	.line 422
	ld   i0,d0
	ld   i1,d1
	ld   i2,#0x3
	.line 424
	call &__ZN11MobKeyboard15setActiveLayoutERKN6MAUtil11BasicStringIcEENS_10LayoutTypeE ; call non-native
	jp   #L179
	.dlab LBE171
	.dlab LBE170
	.stabs	"l_activeLanguage:(11,1)",128,0,414,-20
	.stabs	"a_activeLayoutType:r(8,1)",64,0,415,30
	.stabn	192,0,0,LBB158-__ZN11MobKeyboard11toggleShiftEv
	.stabs	"this:r(0,91)",64,0,265,16
	.stabn	192,0,0,LBB159-__ZN11MobKeyboard11toggleShiftEv
	.stabn	224,0,0,LBE159-__ZN11MobKeyboard11toggleShiftEv
	.stabn	224,0,0,LBE158-__ZN11MobKeyboard11toggleShiftEv
	.stabs	"l_activeLanguage:(11,1)",128,0,414,-20
	.stabs	"a_activeLayoutType:r(8,1)",64,0,415,30
	.stabn	192,0,0,LBB161-__ZN11MobKeyboard11toggleShiftEv
	.stabs	"this:r(0,92)",64,0,362,30
	.stabs	"index:r(0,3)",64,0,362,16
	.stabn	192,0,0,LBB167-__ZN11MobKeyboard11toggleShiftEv
	.stabn	224,0,0,LBE167-__ZN11MobKeyboard11toggleShiftEv
	.stabn	224,0,0,LBE161-__ZN11MobKeyboard11toggleShiftEv
	.stabs	"l_activeLanguage:(11,1)",128,0,414,-20
	.stabs	"a_activeLayoutType:r(8,1)",64,0,415,30
	.stabn	192,0,0,LBB171-__ZN11MobKeyboard11toggleShiftEv
	.stabn	224,0,0,LBE171-__ZN11MobKeyboard11toggleShiftEv
Lscope22:
	.set	%2=__ZN11MobKeyboard19pointerReleaseEventE9MAPoint2d
	.stabs	"this:P(0,90)",64,0,264,12
	.stabs	"p:p(3,23)",160,0,264,-16
	.global	__ZThn116_N11MobKeyboard19pointerReleaseEventE9MAPoint2d

.func __ZThn116_N11MobKeyboard19pointerReleaseEventE9MAPoint2d, 3, void
	.stabs	"E:\\My Dropbox\\workspace\\GameCards\\MobidexANC\\UI\\/MobKeyboard.h",132,0,0,Ltext88
Ltext88:
	.line 18
	push rt,fr
	sub  sp,#0x8
	ld   fr,sp
	add  fr,#0x10
	ld   [fr,-16],i1
	ld   [fr,-12],i2
	.line 18
	add  i0,#0xffffff8c
	call &%2 ; call non-native
	add  sp,#0x8
	pop  rt,fr
	ret
Lscope23:
.data
LC3:
	.ascii "Bs\0"
LC4:
	.ascii "Hide\0"
LC5:
	.ascii "Lang\0"
LC6:
	.ascii "Space\0"
LC7:
	.ascii " \0"
LC8:
	.ascii "Enter\0"
LC9:
	.ascii "\12\0"
.code
	.stabs	"_ZN11MobKeyboard19pointerReleaseEventE9MAPoint2d:F(0,6)",36,0,264,__ZN11MobKeyboard19pointerReleaseEventE9MAPoint2d
	.stabs	"this:P(0,90)",64,0,264,7
	.stabs	"p:p(3,23)",160,0,264,-84
	.global	__ZN11MobKeyboard19pointerReleaseEventE9MAPoint2d

.func __ZN11MobKeyboard19pointerReleaseEventE9MAPoint2d, 3, void
	.stabs	"E:\\My Dropbox\\workspace\\GameCards\\MobidexANC\\UI\\MobKeyboard.cpp",132,0,0,Ltext89
Ltext89:
	.line 264
	push rt,d6
	sub  sp,#0x34
	ld   fr,sp
	add  fr,#0x58
	ld   d3,i0
	ld   [fr,-84],i1
	ld   [fr,-80],i2
	.dlab LBB172
	.dlab LBB173
	.line 266
	ld   r14,[i0]
	ld   d0,[r14,36]
	call d0 ; call non-native
	ld   r0,[fr,-80]
	ld   r14,[r14,8]
	jc   ge,r0,r14,#L209
L181:
	.dlab LBE173
	.dlab LBE172
	.line 354
	add  sp,#0x34
	pop  rt,d6
	ret
L209:
	.dlab LBB174
	.dlab LBB175
	.line 266
	ld   r14,[d3]
	ld   d0,[r14,36]
	ld   i0,d3
	call d0 ; call non-native
	ld   d1,r14
	ld   r14,[d3]
	ld   d0,[r14,36]
	ld   i0,d3
	call d0 ; call non-native
	ld   r14,[r14,16]
	ld   d1,[d1,8]
	add  r14,d1
	ld   r0,[fr,-80]
	jc   gt,r0,r14,#L181
	.dlab LBB176
	.stabs	"E:\\My Dropbox\\workspace\\GameCards\\MobidexANC\\UI\\/MobKeyboard.h",132,0,0,Ltext90
Ltext90:
	.line 123
	ld   r14,[d3,156]
	.dlab LBB177
	.line 124
	ld   r1,#0x0
	ld.b [r14,32],r1
	.dlab LBE177
	.dlab LBE176
	.stabs	"E:\\My Dropbox\\workspace\\GameCards\\MobidexANC\\UI\\MobKeyboard.cpp",132,0,0,Ltext91
Ltext91:
	.line 271
	ld   d5,fr
	add  d5,#0xffffffd8
	ld   i2,[fr,-84]
	ld   i3,r0
	ld.b [sp],r1
	ld   i0,d5
	ld   i1,d3
	call &__ZN11MobKeyboard19getClickedCharacterE9MAPoint2db ; call non-native
	.dlab LBB178
	.line 273
	ld   d0,fr
	add  d0,#0xffffffd4
	ld   i0,d0
	ld   i1,#LC1
	call &__ZN6MAUtil11BasicStringIcEC1EPKc ; call non-native
	ld   i0,d5
	ld   i1,d0
	call &__ZNK6MAUtil11BasicStringIcEeqERKS1_ ; call non-native
	ld   d1,r14
	ld   i0,d0
	call &__ZN6MAUtil11BasicStringIcED1Ev ; call non-native
	ld   d2,d1
	and  d2,#0xff  ; zero extend
	ld   r14,#0x0
	jc   ne,d2,r14,#L210
	.dlab LBB179
	.dlab LBB180
	.line 277
	ld   d0,fr
	add  d0,#0xffffffd0
	ld   i0,d0
	ld   i1,#LC3
	call &__ZN6MAUtil11BasicStringIcEC1EPKc ; call non-native
	ld   i0,d5
	ld   i1,d0
	call &__ZNK6MAUtil11BasicStringIcEeqERKS1_ ; call non-native
	ld   d1,r14
	ld   i0,d0
	call &__ZN6MAUtil11BasicStringIcED1Ev ; call non-native
	ld   d4,d1
	and  d4,#0xff  ; zero extend
	jc   eq,d4,d2,#L187
	.dlab LBB181
	.line 281
	ld   i0,[d3,148]
	call &__ZNK4MAUI7EditBox7getTextEv ; call non-native
	ld   d1,fr
	add  d1,#0xffffffcc
	ld   i0,d1
	ld   i1,r14
	call &__ZN6MAUtil11BasicStringIcEC1ERKS1_ ; call non-native
	.dlab LBB182
	.line 282
	ld   i0,d1
	call &__ZNK6MAUtil11BasicStringIcE6lengthEv ; call non-native
	ld   r0,#0x0
	jc   le,r14,r0,#L188
	.dlab LBB183
	.line 284
	ld   i0,[d3,148]
	call &__ZN10MobEditBox14isPasswordModeEv ; call non-native
	.line 285
	ld   d2,r14
	and  d2,#0xff  ; zero extend
	ld   r1,#0x0
	jc   ne,d2,r1,#L211
L189:
	.line 289
	ld   i0,[d3,148]
	ld   i1,#0xffffffff
	ld   i2,#0x1
	call &__ZN4MAUI7EditBox20moveCursorHorizontalEib ; call non-native
	.line 290
	ld   i0,[d3,148]
	call &__ZNK4MAUI7EditBox7getTextEv ; call non-native
	ld   i0,r14
	call &__ZNK6MAUtil11BasicStringIcE6lengthEv ; call non-native
	ld   i0,d1
	ld   i1,r14
	add  i1,#0xffffffff
	ld   i2,#0x1
	call &__ZN6MAUtil11BasicStringIcE6removeEii ; call non-native
	.line 291
	ld   i0,[d3,148]
	ld   r14,[i0]
	ld   d0,[r14,116]
	ld   i1,d1
	call d0 ; call non-native
	.line 293
	ld   r14,#0x0
	jc   ne,d2,r14,#L212
L188:
	.dlab LBE183
	.dlab LBE182
	.line 294
	ld   i0,d1
	call &__ZN6MAUtil11BasicStringIcED1Ev ; call non-native
L186:
	.dlab LBE181
	.dlab LBE180
	.dlab LBE179
	.dlab LBE178
	.line 350
	ld   i0,d5
	call &__ZN6MAUtil11BasicStringIcED1Ev ; call non-native
	jp   #L181
L210:
	.dlab LBB184
	.line 275
	ld   i0,d3
	call &__ZN11MobKeyboard11toggleShiftEv ; call non-native
	.dlab LBE184
	.line 350
	ld   i0,d5
	call &__ZN6MAUtil11BasicStringIcED1Ev ; call non-native
	jp   #L181
L212:
	.dlab LBB185
	.dlab LBB186
	.dlab LBB187
	.dlab LBB188
	.dlab LBB189
	.dlab LBB190
	.line 294
	ld   i0,[d3,148]
	ld   i1,#0x1
	call &__ZN4MAUI7EditBox15setPasswordModeEb ; call non-native
	.dlab LBE190
	.dlab LBE189
	ld   i0,d1
	call &__ZN6MAUtil11BasicStringIcED1Ev ; call non-native
	jp   #L186
L187:
	.dlab LBE188
	.dlab LBB191
	.dlab LBB192
	.line 299
	ld   d0,fr
	add  d0,#0xffffffcc
	ld   i0,d0
	ld   i1,#LC4
	call &__ZN6MAUtil11BasicStringIcEC1EPKc ; call non-native
	ld   i0,d5
	ld   i1,d0
	call &__ZNK6MAUtil11BasicStringIcEeqERKS1_ ; call non-native
	ld   d1,r14
	ld   i0,d0
	call &__ZN6MAUtil11BasicStringIcED1Ev ; call non-native
	ld   d2,d1
	and  d2,#0xff  ; zero extend
	jc   eq,d2,d4,#L192
	.line 302
	ld   i0,d3
	call &__ZN11MobKeyboard4hideEv ; call non-native
	.dlab LBE192
	.dlab LBE191
	.dlab LBE187
	.dlab LBE186
	.dlab LBE185
	.line 350
	ld   i0,d5
	call &__ZN6MAUtil11BasicStringIcED1Ev ; call non-native
	jp   #L181
L211:
	.dlab LBB193
	.dlab LBB194
	.dlab LBB195
	.dlab LBB196
	.dlab LBB197
	.dlab LBB198
	.line 286
	ld   i0,[d3,148]
	ld   i1,#0x0
	call &__ZN4MAUI7EditBox15setPasswordModeEb ; call non-native
	jp   #L189
L192:
	.dlab LBE198
	.dlab LBE197
	.dlab LBE196
	.dlab LBB199
	.dlab LBB200
	.dlab LBB201
	.dlab LBB202
	.line 305
	ld   d0,fr
	add  d0,#0xffffffc8
	ld   i0,d0
	ld   i1,#LC5
	call &__ZN6MAUtil11BasicStringIcEC1EPKc ; call non-native
	ld   i0,d5
	ld   i1,d0
	call &__ZNK6MAUtil11BasicStringIcEeqERKS1_ ; call non-native
	ld   d1,r14
	ld   i0,d0
	call &__ZN6MAUtil11BasicStringIcED1Ev ; call non-native
	ld   d4,d1
	and  d4,#0xff  ; zero extend
	jc   eq,d4,d2,#L194
	.line 307
	ld   i0,d3
	call &__ZN11MobKeyboard14toggleLanguageEv ; call non-native
	.dlab LBE202
	.dlab LBE201
	.dlab LBE200
	.dlab LBE199
	.dlab LBE195
	.dlab LBE194
	.dlab LBE193
	.line 350
	ld   i0,d5
	call &__ZN6MAUtil11BasicStringIcED1Ev ; call non-native
	jp   #L181
L194:
	.dlab LBB203
	.dlab LBB204
	.dlab LBB205
	.dlab LBB206
	.dlab LBB207
	.dlab LBB208
	.dlab LBB209
	.dlab LBB210
	.dlab LBB211
	.line 309
	ld   d0,fr
	add  d0,#0xffffffc4
	ld   i0,d0
	ld   i1,#LC6
	call &__ZN6MAUtil11BasicStringIcEC1EPKc ; call non-native
	ld   i0,d5
	ld   i1,d0
	call &__ZNK6MAUtil11BasicStringIcEeqERKS1_ ; call non-native
	ld   d1,r14
	ld   i0,d0
	call &__ZN6MAUtil11BasicStringIcED1Ev ; call non-native
	ld   d6,d1
	and  d6,#0xff  ; zero extend
	jc   eq,d6,d4,#L196
	.line 311
	ld   i0,[d3,148]
	jc   eq,i0,d4,#L186
	.line 315
	ld   d1,fr
	add  d1,#0xffffffc0
	call &__ZNK4MAUI7EditBox7getTextEv ; call non-native
	ld   d0,r14
	ld   d2,fr
	add  d2,#0xffffffbc
	ld   i0,d2
	ld   i1,#LC7
L208:
	.dlab LBB212
	.dlab LBB213
	.dlab LBB214
	.dlab LBB215
	.line 328
	call &__ZN6MAUtil11BasicStringIcEC1EPKc ; call non-native
	ld   i0,d1
	ld   i1,d0
	ld   i2,d2
	call &__ZNK6MAUtil11BasicStringIcEplERKS1_ ; call non-native
	ld   i0,[d3,148]
	ld   r14,[i0]
	ld   d0,[r14,116]
	ld   i1,d1
	call d0 ; call non-native
	ld   i0,d1
	call &__ZN6MAUtil11BasicStringIcED1Ev ; call non-native
	ld   i0,d2
	call &__ZN6MAUtil11BasicStringIcED1Ev ; call non-native
	.line 329
	ld   i0,[d3,148]
	ld   i1,#0x1
	ld   i2,i1
	call &__ZN4MAUI7EditBox20moveCursorHorizontalEib ; call non-native
	.dlab LBE215
	.dlab LBE214
	.dlab LBE213
	.dlab LBE212
	.dlab LBE211
	.dlab LBE210
	.dlab LBE209
	.dlab LBE208
	.dlab LBE207
	.dlab LBE206
	.dlab LBE205
	.dlab LBE204
	.dlab LBE203
	.line 350
	ld   i0,d5
	call &__ZN6MAUtil11BasicStringIcED1Ev ; call non-native
	jp   #L181
L196:
	.dlab LBB216
	.dlab LBB217
	.dlab LBB218
	.dlab LBB219
	.dlab LBB220
	.dlab LBB221
	.dlab LBB222
	.dlab LBB223
	.dlab LBB224
	.dlab LBB225
	.dlab LBB226
	.line 320
	ld   d0,fr
	add  d0,#0xffffffbc
	ld   i0,d0
	ld   i1,#LC2
	call &__ZN6MAUtil11BasicStringIcEC1EPKc ; call non-native
	ld   i0,d5
	ld   i1,d0
	call &__ZNK6MAUtil11BasicStringIcEeqERKS1_ ; call non-native
	ld   d1,r14
	ld   i0,d0
	call &__ZN6MAUtil11BasicStringIcED1Ev ; call non-native
	ld   d2,d1
	and  d2,#0xff  ; zero extend
	jc   eq,d2,d6,#L199
	.line 322
	ld   i0,d3
	call &__ZN11MobKeyboard9toggleNumEv ; call non-native
	.dlab LBE226
	.dlab LBE225
	.dlab LBE224
	.dlab LBE223
	.dlab LBE222
	.dlab LBE221
	.dlab LBE220
	.dlab LBE219
	.dlab LBE218
	.dlab LBE217
	.dlab LBE216
	.line 350
	ld   i0,d5
	call &__ZN6MAUtil11BasicStringIcED1Ev ; call non-native
	jp   #L181
L199:
	.dlab LBB227
	.dlab LBB228
	.dlab LBB229
	.dlab LBB230
	.dlab LBB231
	.dlab LBB232
	.dlab LBB233
	.dlab LBB234
	.dlab LBB235
	.dlab LBB236
	.dlab LBB237
	.dlab LBB238
	.dlab LBB239
	.line 324
	ld   d0,fr
	add  d0,#0xffffffc0
	ld   i0,d0
	ld   i1,#LC8
	call &__ZN6MAUtil11BasicStringIcEC1EPKc ; call non-native
	ld   i0,d5
	ld   i1,d0
	call &__ZNK6MAUtil11BasicStringIcEeqERKS1_ ; call non-native
	ld   d1,r14
	ld   i0,d0
	call &__ZN6MAUtil11BasicStringIcED1Ev ; call non-native
	ld   d4,d1
	and  d4,#0xff  ; zero extend
	jc   eq,d4,d2,#L201
	.line 326
	ld   i0,[d3,148]
	jc   eq,i0,d2,#L202
	call &__ZN4MAUI5Label11isMultiLineEv ; call non-native
	and  r14,#0xff  ; zero extend
	jc   eq,r14,d2,#L202
	.line 328
	ld   d1,fr
	add  d1,#0xffffffb8
	ld   i0,[d3,148]
	call &__ZNK4MAUI7EditBox7getTextEv ; call non-native
	ld   d0,r14
	ld   d2,fr
	add  d2,#0xffffffb4
	ld   i0,d2
	ld   i1,#LC9
	jp   #L208
L201:
	.dlab LBB240
	.dlab LBB241
	.line 337
	ld   i0,[d3,148]
	jc   eq,i0,d4,#L186
	.dlab LBB242
	.line 339
	call &__ZN10MobEditBox14isPasswordModeEv ; call non-native
	.line 340
	ld   d2,r14
	and  d2,#0xff  ; zero extend
	jc   eq,d2,d4,#L206
	.line 341
	ld   i0,[d3,148]
	ld   i1,d4
	call &__ZN4MAUI7EditBox15setPasswordModeEb ; call non-native
L206:
	.line 346
	ld   d0,fr
	add  d0,#0xffffffb4
	ld   i0,[d3,148]
	call &__ZNK4MAUI7EditBox7getTextEv ; call non-native
	ld   i0,d0
	ld   i1,r14
	ld   i2,d5
	call &__ZNK6MAUtil11BasicStringIcEplERKS1_ ; call non-native
	ld   i0,[d3,148]
	ld   r14,[i0]
	ld   d1,[r14,116]
	ld   i1,d0
	call d1 ; call non-native
	ld   i0,d0
	call &__ZN6MAUtil11BasicStringIcED1Ev ; call non-native
	.line 347
	ld   i0,[d3,148]
	ld   i1,#0x1
	ld   i2,i1
	call &__ZN4MAUI7EditBox20moveCursorHorizontalEib ; call non-native
	.line 349
	jc   eq,d2,d4,#L186
	.line 350
	ld   i0,[d3,148]
	ld   i1,#0x1
	call &__ZN4MAUI7EditBox15setPasswordModeEb ; call non-native
	.dlab LBE242
	.dlab LBE241
	.dlab LBE240
	.dlab LBE239
	.dlab LBE238
	.dlab LBE237
	.dlab LBE236
	.dlab LBE235
	.dlab LBE234
	.dlab LBE233
	.dlab LBE232
	.dlab LBE231
	.dlab LBE230
	.dlab LBE229
	.dlab LBE228
	.dlab LBE227
	ld   i0,d5
	call &__ZN6MAUtil11BasicStringIcED1Ev ; call non-native
	jp   #L181
L202:
	.dlab LBB243
	.dlab LBB244
	.dlab LBB245
	.dlab LBB246
	.dlab LBB247
	.dlab LBB248
	.dlab LBB249
	.dlab LBB250
	.dlab LBB251
	.dlab LBB252
	.dlab LBB253
	.dlab LBB254
	.dlab LBB255
	.line 332
	ld   i0,d3
	call &__ZN4MAUI6Widget14requestRepaintEv ; call non-native
	.dlab LBE255
	.dlab LBE254
	.dlab LBE253
	.dlab LBE252
	.dlab LBE251
	.dlab LBE250
	.dlab LBE249
	.dlab LBE248
	.dlab LBE247
	.dlab LBE246
	.dlab LBE245
	.dlab LBE244
	.dlab LBE243
	.line 350
	ld   i0,d5
	call &__ZN6MAUtil11BasicStringIcED1Ev ; call non-native
	jp   #L181
	.dlab LBE175
	.dlab LBE174
	.stabs	"l_char:(11,1)",128,0,271,-40
	.stabn	192,0,0,LBB173-__ZN11MobKeyboard19pointerReleaseEventE9MAPoint2d
	.stabn	224,0,0,LBE173-__ZN11MobKeyboard19pointerReleaseEventE9MAPoint2d
	.stabs	"l_char:(11,1)",128,0,271,-40
	.stabn	192,0,0,LBB175-__ZN11MobKeyboard19pointerReleaseEventE9MAPoint2d
	.stabs	"this:r(8,76)",64,0,123,30
	.stabn	192,0,0,LBB176-__ZN11MobKeyboard19pointerReleaseEventE9MAPoint2d
	.stabn	224,0,0,LBE176-__ZN11MobKeyboard19pointerReleaseEventE9MAPoint2d
	.stabs	"s:(11,1)",128,0,281,-52
	.stabn	192,0,0,LBB181-__ZN11MobKeyboard19pointerReleaseEventE9MAPoint2d
	.stabn	224,0,0,LBE181-__ZN11MobKeyboard19pointerReleaseEventE9MAPoint2d
	.stabs	"s:(11,1)",128,0,281,-52
	.stabn	192,0,0,LBB188-__ZN11MobKeyboard19pointerReleaseEventE9MAPoint2d
	.stabn	224,0,0,LBE188-__ZN11MobKeyboard19pointerReleaseEventE9MAPoint2d
	.stabs	"s:(11,1)",128,0,281,-52
	.stabn	192,0,0,LBB196-__ZN11MobKeyboard19pointerReleaseEventE9MAPoint2d
	.stabn	224,0,0,LBE196-__ZN11MobKeyboard19pointerReleaseEventE9MAPoint2d
	.stabn	224,0,0,LBE175-__ZN11MobKeyboard19pointerReleaseEventE9MAPoint2d
Lscope24:
	.stabs	"_ZN11MobKeyboard11addLanguageEP17MobKeyboardLayoutS1_S1_S1_:F(0,6)",36,0,48,__ZN11MobKeyboard11addLanguageEP17MobKeyboardLayoutS1_S1_S1_
	.stabs	"this:P(0,90)",64,0,48,7
	.stabs	"a_lowercase:p(8,61)",160,0,48,-32
	.stabs	"a_uppercase:p(8,61)",160,0,48,-36
	.stabs	"a_num1:p(8,61)",160,0,48,-40
	.stabs	"a_num2:p(8,61)",160,0,48,0
	.global	__ZN11MobKeyboard11addLanguageEP17MobKeyboardLayoutS1_S1_S1_

.func __ZN11MobKeyboard11addLanguageEP17MobKeyboardLayoutS1_S1_S1_, 5, void
	.line 48
	push rt,d4
	sub  sp,#0xc
	ld   fr,sp
	add  fr,#0x28
	ld   d3,i0
	ld   [fr,-32],i1
	ld   [fr,-36],i2
	ld   [fr,-40],i3
	.dlab LBB256
	.dlab LBB257
	.stabs	"c:/MoSync/include/MAUtil/Vector.h",132,0,0,Ltext92
Ltext92:
	.line 167
	ld   d1,[i0,124]
	ld   d4,d1
	.dlab LBB258
	.line 168
	ld   d0,[d1,4]
	ld   r14,d0
	add  r14,#0xffffffff
	ld   r1,[d1]
	jc   lt,r1,r14,#L311
	.line 169
	ld   r0,#0x0
	jc   eq,d0,r0,#L215
	.dlab LBB259
	.line 293
	ld   d2,d0
	add  d2,d0
	.dlab LBB260
	.dlab LBB261
	.line 295
	jc   lt,d0,d2,#L330
L311:
	ld   i0,[d1,8]
L214:
	.dlab LBE261
	.dlab LBE260
	.dlab LBE259
	.line 174
	ld   r14,r1
	sll  r14,#0x2
	add  r14,i0
	ld   r0,[fr,-32]
	ld   [r14],r0
	add  r1,#0x1
	ld   [d4],r1
	.dlab LBE258
	.dlab LBE257
	.dlab LBB262
	.line 167
	ld   d4,d1
	.dlab LBB263
	.line 168
	ld   d0,[d1,4]
	ld   r14,d0
	add  r14,#0xffffffff
	ld   r1,[d1]
	jc   lt,r1,r14,#L315
	.line 169
	ld   r14,#0x0
	jc   eq,d0,r14,#L235
	.dlab LBB264
	.line 293
	ld   d2,d0
	add  d2,d0
	.dlab LBB265
	.dlab LBB266
	.line 295
	jc   lt,d0,d2,#L331
L315:
	ld   i0,[d1,8]
L234:
	.dlab LBE266
	.dlab LBE265
	.dlab LBE264
	.line 174
	ld   r14,r1
	sll  r14,#0x2
	add  r14,i0
	ld   r0,[fr,-36]
	ld   [r14],r0
	add  r1,#0x1
	ld   [d4],r1
	.dlab LBE263
	.dlab LBE262
	.dlab LBB267
	.line 167
	ld   d4,d1
	.dlab LBB268
	.line 168
	ld   d0,[d1,4]
	ld   r14,d0
	add  r14,#0xffffffff
	ld   r1,[d1]
	jc   lt,r1,r14,#L319
	.line 169
	ld   r14,#0x0
	jc   eq,d0,r14,#L255
	.dlab LBB269
	.line 293
	ld   d2,d0
	add  d2,d0
	.dlab LBB270
	.dlab LBB271
	.line 295
	jc   lt,d0,d2,#L332
L319:
	ld   i0,[d1,8]
L254:
	.dlab LBE271
	.dlab LBE270
	.dlab LBE269
	.line 174
	ld   r14,r1
	sll  r14,#0x2
	add  r14,i0
	ld   r0,[fr,-40]
	ld   [r14],r0
	add  r1,#0x1
	ld   [d4],r1
	.dlab LBE268
	.dlab LBE267
	.dlab LBB272
	.dlab LBB273
	.line 168
	ld   d0,[d1,4]
	ld   r14,d0
	add  r14,#0xffffffff
	ld   r1,[d1]
	jc   lt,r1,r14,#L323
	.line 169
	ld   r14,#0x0
	jc   eq,d0,r14,#L275
	.dlab LBB274
	.line 293
	ld   d2,d0
	add  d2,d0
	.dlab LBB275
	.dlab LBB276
	.line 295
	jc   lt,d0,d2,#L333
L323:
	ld   i0,[d1,8]
	.dlab LBE276
	.dlab LBE275
	.dlab LBE274
	.line 174
	ld   r14,r1
	sll  r14,#0x2
	add  r14,i0
	ld   r0,[fr]
	ld   [r14],r0
	add  r1,#0x1
	ld   [d1],r1
	.dlab LBE273
	.dlab LBE272
	.dlab LBE256
	add  sp,#0xc
	pop  rt,d4
	ret
L215:
	.dlab LBB277
	.dlab LBB278
	.dlab LBB279
	.dlab LBB280
	.dlab LBB281
	.dlab LBB282
	.line 298
	ld   i0,#0x10
	call &__Znam ; call non-native
	ld   d2,r14
	.dlab LBB283
	.line 300
	ld   r2,d0
	ld   r1,[d1]
	jc   le,r1,d0,#L313
	ld   i0,[d1,8]
L230:
	.line 301
	ld   r14,r2
	sll  r14,#0x2
	ld   r0,r14
	add  r0,d2
	add  r14,i0
	ld   r14,[r14]
	ld   [r0],r14
	.line 300
	add  r2,#0x1
	jc   gt,r1,r2,#L230
L297:
	.dlab LBE283
	.line 304
	ld   r0,#0x4
	ld   [d1,4],r0
	.line 305
	ld   r14,#0x0
	jc   ne,i0,r14,#L334
	.line 307
	ld   i0,d2
L326:
	ld   [d1,8],i0
	ld   d1,[d3,124]
	jp   #L214
L235:
	.dlab LBE282
	.dlab LBE281
	.dlab LBE280
	.dlab LBE279
	.dlab LBE278
	.dlab LBB284
	.dlab LBB285
	.dlab LBB286
	.dlab LBB287
	.dlab LBB288
	.line 298
	ld   i0,#0x10
	call &__Znam ; call non-native
	ld   d2,r14
	.dlab LBB289
	.line 300
	ld   r2,d0
	ld   r1,[d1]
	jc   le,r1,d0,#L317
	ld   i0,[d1,8]
L250:
	.line 301
	ld   r14,r2
	sll  r14,#0x2
	ld   r0,r14
	add  r0,d2
	add  r14,i0
	ld   r14,[r14]
	ld   [r0],r14
	.line 300
	add  r2,#0x1
	jc   gt,r1,r2,#L250
L301:
	.dlab LBE289
	.line 304
	ld   r14,#0x4
	ld   [d1,4],r14
	.line 305
	ld   r0,#0x0
	jc   ne,i0,r0,#L335
	.line 307
	ld   i0,d2
L327:
	ld   [d1,8],i0
	ld   d1,[d3,124]
	jp   #L234
L255:
	.dlab LBE288
	.dlab LBE287
	.dlab LBE286
	.dlab LBE285
	.dlab LBE284
	.dlab LBB290
	.dlab LBB291
	.dlab LBB292
	.dlab LBB293
	.dlab LBB294
	.line 298
	ld   i0,#0x10
	call &__Znam ; call non-native
	ld   d2,r14
	.dlab LBB295
	.line 300
	ld   r2,d0
	ld   r1,[d1]
	jc   le,r1,d0,#L321
	ld   i0,[d1,8]
L270:
	.line 301
	ld   r14,r2
	sll  r14,#0x2
	ld   r0,r14
	add  r0,d2
	add  r14,i0
	ld   r14,[r14]
	ld   [r0],r14
	.line 300
	add  r2,#0x1
	jc   gt,r1,r2,#L270
L305:
	.dlab LBE295
	.line 304
	ld   r14,#0x4
	ld   [d1,4],r14
	.line 305
	ld   r0,#0x0
	jc   ne,i0,r0,#L336
	.line 307
	ld   i0,d2
L328:
	ld   [d1,8],i0
	ld   d1,[d3,124]
	jp   #L254
L275:
	.dlab LBE294
	.dlab LBE293
	.dlab LBE292
	.dlab LBE291
	.dlab LBE290
	.dlab LBB296
	.dlab LBB297
	.dlab LBB298
	.dlab LBB299
	.dlab LBB300
	.line 298
	ld   i0,#0x10
	call &__Znam ; call non-native
	ld   d2,r14
	.dlab LBB301
	.line 300
	ld   r2,d0
	ld   r1,[d1]
	jc   le,r1,d0,#L325
	ld   i0,[d1,8]
L290:
	.line 301
	ld   r14,r2
	sll  r14,#0x2
	ld   r0,r14
	add  r0,d2
	add  r14,i0
	ld   r14,[r14]
	ld   [r0],r14
	.line 300
	add  r2,#0x1
	jc   gt,r1,r2,#L290
L309:
	.dlab LBE301
	.line 304
	ld   r14,#0x4
	ld   [d1,4],r14
	.line 305
	ld   r0,#0x0
	jc   ne,i0,r0,#L337
	.line 307
	ld   i0,d2
L329:
	ld   [d1,8],i0
L342:
	.dlab LBE300
	.dlab LBE299
	.dlab LBE298
	.line 174
	ld   r14,r1
	sll  r14,#0x2
	add  r14,i0
	ld   r0,[fr]
	ld   [r14],r0
	add  r1,#0x1
	ld   [d1],r1
	.dlab LBE297
	.dlab LBE296
	.dlab LBE277
	add  sp,#0xc
	pop  rt,d4
	ret
L331:
	.dlab LBB302
	.dlab LBB303
	.dlab LBB304
	.dlab LBB305
	.dlab LBB306
	.dlab LBB307
	.line 298
	ld   i0,d2
	sll  i0,#0x2
	call &__Znam ; call non-native
	ld   d0,r14
	.dlab LBB308
	.line 300
	ld   r2,#0x0
	ld   r1,[d1]
	jc   le,r1,r2,#L316
	ld   i0,[d1,8]
L241:
	.line 301
	ld   r14,r2
	sll  r14,#0x2
	ld   r0,r14
	add  r0,d0
	add  r14,i0
	ld   r14,[r14]
	ld   [r0],r14
	.line 300
	add  r2,#0x1
	jc   gt,r1,r2,#L241
L299:
	.dlab LBE308
	.line 304
	ld   [d1,4],d2
	.line 305
	ld   r0,#0x0
	jc   ne,i0,r0,#L338
	.line 307
	ld   i0,d0
L343:
	.dlab LBE307
	.dlab LBE306
	.dlab LBE305
	.dlab LBB309
	.dlab LBB310
	.dlab LBB311
	ld   [d1,8],i0
	ld   d1,[d3,124]
	jp   #L234
L332:
	.dlab LBE311
	.dlab LBE310
	.dlab LBE309
	.dlab LBE304
	.dlab LBE303
	.dlab LBB312
	.dlab LBB313
	.dlab LBB314
	.dlab LBB315
	.dlab LBB316
	.line 298
	ld   i0,d2
	sll  i0,#0x2
	call &__Znam ; call non-native
	ld   d0,r14
	.dlab LBB317
	.line 300
	ld   r2,#0x0
	ld   r1,[d1]
	jc   le,r1,r2,#L320
	ld   i0,[d1,8]
L261:
	.line 301
	ld   r14,r2
	sll  r14,#0x2
	ld   r0,r14
	add  r0,d0
	add  r14,i0
	ld   r14,[r14]
	ld   [r0],r14
	.line 300
	add  r2,#0x1
	jc   gt,r1,r2,#L261
L303:
	.dlab LBE317
	.line 304
	ld   [d1,4],d2
	.line 305
	ld   r0,#0x0
	jc   ne,i0,r0,#L339
	.line 307
	ld   i0,d0
L346:
	.dlab LBE316
	.dlab LBE315
	.dlab LBE314
	.dlab LBB318
	.dlab LBB319
	.dlab LBB320
	ld   [d1,8],i0
	ld   d1,[d3,124]
	jp   #L254
L330:
	.dlab LBE320
	.dlab LBE319
	.dlab LBE318
	.dlab LBE313
	.dlab LBE312
	.dlab LBB321
	.dlab LBB322
	.dlab LBB323
	.dlab LBB324
	.dlab LBB325
	.line 298
	ld   i0,d2
	sll  i0,#0x2
	call &__Znam ; call non-native
	ld   d0,r14
	.dlab LBB326
	.line 300
	ld   r2,#0x0
	ld   r1,[d1]
	jc   le,r1,r2,#L312
	ld   i0,[d1,8]
L221:
	.line 301
	ld   r14,r2
	sll  r14,#0x2
	ld   r0,r14
	add  r0,d0
	add  r14,i0
	ld   r14,[r14]
	ld   [r0],r14
	.line 300
	add  r2,#0x1
	jc   gt,r1,r2,#L221
L295:
	.dlab LBE326
	.line 304
	ld   [d1,4],d2
	.line 305
	ld   r14,#0x0
	jc   ne,i0,r14,#L340
	.line 307
	ld   i0,d0
L345:
	.dlab LBE325
	.dlab LBE324
	.dlab LBE323
	.dlab LBB327
	.dlab LBB328
	.dlab LBB329
	ld   [d1,8],i0
	ld   d1,[d3,124]
	jp   #L214
L333:
	.dlab LBE329
	.dlab LBE328
	.dlab LBE327
	.dlab LBE322
	.dlab LBE321
	.dlab LBB330
	.dlab LBB331
	.dlab LBB332
	.dlab LBB333
	.dlab LBB334
	.line 298
	ld   i0,d2
	sll  i0,#0x2
	call &__Znam ; call non-native
	ld   d0,r14
	.dlab LBB335
	.line 300
	ld   r2,#0x0
	ld   r1,[d1]
	jc   le,r1,r2,#L324
	ld   i0,[d1,8]
L281:
	.line 301
	ld   r14,r2
	sll  r14,#0x2
	ld   r0,r14
	add  r0,d0
	add  r14,i0
	ld   r14,[r14]
	ld   [r0],r14
	.line 300
	add  r2,#0x1
	jc   gt,r1,r2,#L281
L307:
	.dlab LBE335
	.line 304
	ld   [d1,4],d2
	.line 305
	ld   r0,#0x0
	jc   ne,i0,r0,#L341
	.line 307
	ld   i0,d0
L344:
	.dlab LBE334
	.dlab LBE333
	.dlab LBE332
	.dlab LBB336
	.dlab LBB337
	.dlab LBB338
	ld   [d1,8],i0
	jp   #L342
L321:
	ld   i0,[d1,8]
	jp   #L305
L313:
	ld   i0,[d1,8]
	jp   #L297
L317:
	ld   i0,[d1,8]
	jp   #L301
L325:
	ld   i0,[d1,8]
	jp   #L309
L337:
	.line 305
	call &__ZdaPv ; call non-native
	ld   r1,[d1]
	.line 307
	ld   i0,d2
	jp   #L329
L335:
	.dlab LBE338
	.dlab LBE337
	.dlab LBE336
	.dlab LBE331
	.dlab LBE330
	.dlab LBB339
	.dlab LBB340
	.dlab LBB341
	.dlab LBB342
	.dlab LBB343
	.line 305
	call &__ZdaPv ; call non-native
	ld   r1,[d1]
	.line 307
	ld   i0,d2
	jp   #L327
L334:
	.dlab LBE343
	.dlab LBE342
	.dlab LBE341
	.dlab LBE340
	.dlab LBE339
	.dlab LBB344
	.dlab LBB345
	.dlab LBB346
	.dlab LBB347
	.dlab LBB348
	.line 305
	call &__ZdaPv ; call non-native
	ld   r1,[d1]
	.line 307
	ld   i0,d2
	jp   #L326
L336:
	.dlab LBE348
	.dlab LBE347
	.dlab LBE346
	.dlab LBE345
	.dlab LBE344
	.dlab LBB349
	.dlab LBB350
	.dlab LBB351
	.dlab LBB352
	.dlab LBB353
	.line 305
	call &__ZdaPv ; call non-native
	ld   r1,[d1]
	.line 307
	ld   i0,d2
	jp   #L328
L338:
	.dlab LBE353
	.dlab LBE352
	.dlab LBE351
	.dlab LBE350
	.dlab LBE349
	.dlab LBB354
	.dlab LBB355
	.dlab LBB356
	.dlab LBB357
	.dlab LBB358
	.line 305
	call &__ZdaPv ; call non-native
	ld   r1,[d1]
	.line 307
	ld   i0,d0
	jp   #L343
L341:
	.dlab LBE358
	.dlab LBE357
	.dlab LBE356
	.dlab LBE355
	.dlab LBE354
	.dlab LBB359
	.dlab LBB360
	.dlab LBB361
	.dlab LBB362
	.dlab LBB363
	.line 305
	call &__ZdaPv ; call non-native
	ld   r1,[d1]
	.line 307
	ld   i0,d0
	jp   #L344
L340:
	.dlab LBE363
	.dlab LBE362
	.dlab LBE361
	.dlab LBE360
	.dlab LBE359
	.dlab LBB364
	.dlab LBB365
	.dlab LBB366
	.dlab LBB367
	.dlab LBB368
	.line 305
	call &__ZdaPv ; call non-native
	ld   r1,[d1]
	.line 307
	ld   i0,d0
	jp   #L345
L339:
	.dlab LBE368
	.dlab LBE367
	.dlab LBE366
	.dlab LBE365
	.dlab LBE364
	.dlab LBB369
	.dlab LBB370
	.dlab LBB371
	.dlab LBB372
	.dlab LBB373
	.line 305
	call &__ZdaPv ; call non-native
	ld   r1,[d1]
	.line 307
	ld   i0,d0
	jp   #L346
L324:
	ld   i0,[d1,8]
	jp   #L307
L312:
	ld   i0,[d1,8]
	jp   #L295
L320:
	ld   i0,[d1,8]
	jp   #L303
L316:
	ld   i0,[d1,8]
	jp   #L299
	.dlab LBE373
	.dlab LBE372
	.dlab LBE371
	.dlab LBE370
	.dlab LBE369
	.dlab LBE302
	.stabs	"this:r(0,92)",64,0,167,8
	.stabn	192,0,0,LBB257-__ZN11MobKeyboard11addLanguageEP17MobKeyboardLayoutS1_S1_S1_
	.stabs	"newCapacity:r(0,3)",64,0,293,6
	.stabn	192,0,0,LBB259-__ZN11MobKeyboard11addLanguageEP17MobKeyboardLayoutS1_S1_S1_
	.stabs	"newData:r(0,26)",64,0,298,4
	.stabn	192,0,0,LBB261-__ZN11MobKeyboard11addLanguageEP17MobKeyboardLayoutS1_S1_S1_
	.stabn	224,0,0,LBE261-__ZN11MobKeyboard11addLanguageEP17MobKeyboardLayoutS1_S1_S1_
	.stabn	224,0,0,LBE259-__ZN11MobKeyboard11addLanguageEP17MobKeyboardLayoutS1_S1_S1_
	.stabn	224,0,0,LBE257-__ZN11MobKeyboard11addLanguageEP17MobKeyboardLayoutS1_S1_S1_
	.stabs	"this:r(0,92)",64,0,167,8
	.stabn	192,0,0,LBB262-__ZN11MobKeyboard11addLanguageEP17MobKeyboardLayoutS1_S1_S1_
	.stabs	"newCapacity:r(0,3)",64,0,293,6
	.stabn	192,0,0,LBB264-__ZN11MobKeyboard11addLanguageEP17MobKeyboardLayoutS1_S1_S1_
	.stabs	"newData:r(0,26)",64,0,298,4
	.stabn	192,0,0,LBB266-__ZN11MobKeyboard11addLanguageEP17MobKeyboardLayoutS1_S1_S1_
	.stabn	224,0,0,LBE266-__ZN11MobKeyboard11addLanguageEP17MobKeyboardLayoutS1_S1_S1_
	.stabn	224,0,0,LBE264-__ZN11MobKeyboard11addLanguageEP17MobKeyboardLayoutS1_S1_S1_
	.stabn	224,0,0,LBE262-__ZN11MobKeyboard11addLanguageEP17MobKeyboardLayoutS1_S1_S1_
	.stabs	"this:r(0,92)",64,0,167,8
	.stabn	192,0,0,LBB267-__ZN11MobKeyboard11addLanguageEP17MobKeyboardLayoutS1_S1_S1_
	.stabs	"newCapacity:r(0,3)",64,0,293,6
	.stabn	192,0,0,LBB269-__ZN11MobKeyboard11addLanguageEP17MobKeyboardLayoutS1_S1_S1_
	.stabs	"newData:r(0,26)",64,0,298,4
	.stabn	192,0,0,LBB271-__ZN11MobKeyboard11addLanguageEP17MobKeyboardLayoutS1_S1_S1_
	.stabn	224,0,0,LBE271-__ZN11MobKeyboard11addLanguageEP17MobKeyboardLayoutS1_S1_S1_
	.stabn	224,0,0,LBE269-__ZN11MobKeyboard11addLanguageEP17MobKeyboardLayoutS1_S1_S1_
	.stabn	224,0,0,LBE267-__ZN11MobKeyboard11addLanguageEP17MobKeyboardLayoutS1_S1_S1_
	.stabs	"newCapacity:r(0,3)",64,0,293,6
	.stabn	192,0,0,LBB274-__ZN11MobKeyboard11addLanguageEP17MobKeyboardLayoutS1_S1_S1_
	.stabs	"newData:r(0,26)",64,0,298,4
	.stabn	192,0,0,LBB276-__ZN11MobKeyboard11addLanguageEP17MobKeyboardLayoutS1_S1_S1_
	.stabn	224,0,0,LBE276-__ZN11MobKeyboard11addLanguageEP17MobKeyboardLayoutS1_S1_S1_
	.stabn	224,0,0,LBE274-__ZN11MobKeyboard11addLanguageEP17MobKeyboardLayoutS1_S1_S1_
	.stabs	"this:r(0,92)",64,0,167,8
	.stabn	192,0,0,LBB278-__ZN11MobKeyboard11addLanguageEP17MobKeyboardLayoutS1_S1_S1_
	.stabs	"newData:r(0,26)",64,0,298,6
	.stabn	192,0,0,LBB282-__ZN11MobKeyboard11addLanguageEP17MobKeyboardLayoutS1_S1_S1_
	.stabs	"i:r(0,3)",64,0,300,18
	.stabn	192,0,0,LBB283-__ZN11MobKeyboard11addLanguageEP17MobKeyboardLayoutS1_S1_S1_
	.stabn	224,0,0,LBE283-__ZN11MobKeyboard11addLanguageEP17MobKeyboardLayoutS1_S1_S1_
	.stabn	224,0,0,LBE282-__ZN11MobKeyboard11addLanguageEP17MobKeyboardLayoutS1_S1_S1_
	.stabn	224,0,0,LBE278-__ZN11MobKeyboard11addLanguageEP17MobKeyboardLayoutS1_S1_S1_
	.stabs	"this:r(0,92)",64,0,167,8
	.stabn	192,0,0,LBB284-__ZN11MobKeyboard11addLanguageEP17MobKeyboardLayoutS1_S1_S1_
	.stabs	"newData:r(0,26)",64,0,298,6
	.stabn	192,0,0,LBB288-__ZN11MobKeyboard11addLanguageEP17MobKeyboardLayoutS1_S1_S1_
	.stabs	"i:r(0,3)",64,0,300,18
	.stabn	192,0,0,LBB289-__ZN11MobKeyboard11addLanguageEP17MobKeyboardLayoutS1_S1_S1_
	.stabn	224,0,0,LBE289-__ZN11MobKeyboard11addLanguageEP17MobKeyboardLayoutS1_S1_S1_
	.stabn	224,0,0,LBE288-__ZN11MobKeyboard11addLanguageEP17MobKeyboardLayoutS1_S1_S1_
	.stabn	224,0,0,LBE284-__ZN11MobKeyboard11addLanguageEP17MobKeyboardLayoutS1_S1_S1_
	.stabs	"this:r(0,92)",64,0,167,8
	.stabn	192,0,0,LBB290-__ZN11MobKeyboard11addLanguageEP17MobKeyboardLayoutS1_S1_S1_
	.stabs	"newData:r(0,26)",64,0,298,6
	.stabn	192,0,0,LBB294-__ZN11MobKeyboard11addLanguageEP17MobKeyboardLayoutS1_S1_S1_
	.stabs	"i:r(0,3)",64,0,300,18
	.stabn	192,0,0,LBB295-__ZN11MobKeyboard11addLanguageEP17MobKeyboardLayoutS1_S1_S1_
	.stabn	224,0,0,LBE295-__ZN11MobKeyboard11addLanguageEP17MobKeyboardLayoutS1_S1_S1_
	.stabn	224,0,0,LBE294-__ZN11MobKeyboard11addLanguageEP17MobKeyboardLayoutS1_S1_S1_
	.stabn	224,0,0,LBE290-__ZN11MobKeyboard11addLanguageEP17MobKeyboardLayoutS1_S1_S1_
	.stabs	"newData:r(0,26)",64,0,298,6
	.stabn	192,0,0,LBB300-__ZN11MobKeyboard11addLanguageEP17MobKeyboardLayoutS1_S1_S1_
	.stabs	"i:r(0,3)",64,0,300,18
	.stabn	192,0,0,LBB301-__ZN11MobKeyboard11addLanguageEP17MobKeyboardLayoutS1_S1_S1_
	.stabn	224,0,0,LBE301-__ZN11MobKeyboard11addLanguageEP17MobKeyboardLayoutS1_S1_S1_
	.stabn	224,0,0,LBE300-__ZN11MobKeyboard11addLanguageEP17MobKeyboardLayoutS1_S1_S1_
	.stabs	"this:r(0,92)",64,0,167,8
	.stabn	192,0,0,LBB303-__ZN11MobKeyboard11addLanguageEP17MobKeyboardLayoutS1_S1_S1_
	.stabs	"newCapacity:r(0,3)",64,0,293,6
	.stabn	192,0,0,LBB305-__ZN11MobKeyboard11addLanguageEP17MobKeyboardLayoutS1_S1_S1_
	.stabs	"newData:r(0,26)",64,0,298,4
	.stabn	192,0,0,LBB307-__ZN11MobKeyboard11addLanguageEP17MobKeyboardLayoutS1_S1_S1_
	.stabs	"i:r(0,3)",64,0,300,18
	.stabn	192,0,0,LBB308-__ZN11MobKeyboard11addLanguageEP17MobKeyboardLayoutS1_S1_S1_
	.stabn	224,0,0,LBE308-__ZN11MobKeyboard11addLanguageEP17MobKeyboardLayoutS1_S1_S1_
	.stabn	224,0,0,LBE307-__ZN11MobKeyboard11addLanguageEP17MobKeyboardLayoutS1_S1_S1_
	.stabn	224,0,0,LBE305-__ZN11MobKeyboard11addLanguageEP17MobKeyboardLayoutS1_S1_S1_
	.stabs	"newData:r(0,26)",64,0,298,6
	.stabn	192,0,0,LBB311-__ZN11MobKeyboard11addLanguageEP17MobKeyboardLayoutS1_S1_S1_
	.stabn	224,0,0,LBE311-__ZN11MobKeyboard11addLanguageEP17MobKeyboardLayoutS1_S1_S1_
	.stabn	224,0,0,LBE303-__ZN11MobKeyboard11addLanguageEP17MobKeyboardLayoutS1_S1_S1_
	.stabs	"this:r(0,92)",64,0,167,8
	.stabn	192,0,0,LBB312-__ZN11MobKeyboard11addLanguageEP17MobKeyboardLayoutS1_S1_S1_
	.stabs	"newCapacity:r(0,3)",64,0,293,6
	.stabn	192,0,0,LBB314-__ZN11MobKeyboard11addLanguageEP17MobKeyboardLayoutS1_S1_S1_
	.stabs	"newData:r(0,26)",64,0,298,4
	.stabn	192,0,0,LBB316-__ZN11MobKeyboard11addLanguageEP17MobKeyboardLayoutS1_S1_S1_
	.stabs	"i:r(0,3)",64,0,300,18
	.stabn	192,0,0,LBB317-__ZN11MobKeyboard11addLanguageEP17MobKeyboardLayoutS1_S1_S1_
	.stabn	224,0,0,LBE317-__ZN11MobKeyboard11addLanguageEP17MobKeyboardLayoutS1_S1_S1_
	.stabn	224,0,0,LBE316-__ZN11MobKeyboard11addLanguageEP17MobKeyboardLayoutS1_S1_S1_
	.stabn	224,0,0,LBE314-__ZN11MobKeyboard11addLanguageEP17MobKeyboardLayoutS1_S1_S1_
	.stabs	"newData:r(0,26)",64,0,298,6
	.stabn	192,0,0,LBB320-__ZN11MobKeyboard11addLanguageEP17MobKeyboardLayoutS1_S1_S1_
	.stabn	224,0,0,LBE320-__ZN11MobKeyboard11addLanguageEP17MobKeyboardLayoutS1_S1_S1_
	.stabn	224,0,0,LBE312-__ZN11MobKeyboard11addLanguageEP17MobKeyboardLayoutS1_S1_S1_
	.stabs	"this:r(0,92)",64,0,167,8
	.stabn	192,0,0,LBB321-__ZN11MobKeyboard11addLanguageEP17MobKeyboardLayoutS1_S1_S1_
	.stabs	"newCapacity:r(0,3)",64,0,293,6
	.stabn	192,0,0,LBB323-__ZN11MobKeyboard11addLanguageEP17MobKeyboardLayoutS1_S1_S1_
	.stabs	"newData:r(0,26)",64,0,298,4
	.stabn	192,0,0,LBB325-__ZN11MobKeyboard11addLanguageEP17MobKeyboardLayoutS1_S1_S1_
	.stabs	"i:r(0,3)",64,0,300,18
	.stabn	192,0,0,LBB326-__ZN11MobKeyboard11addLanguageEP17MobKeyboardLayoutS1_S1_S1_
	.stabn	224,0,0,LBE326-__ZN11MobKeyboard11addLanguageEP17MobKeyboardLayoutS1_S1_S1_
	.stabn	224,0,0,LBE325-__ZN11MobKeyboard11addLanguageEP17MobKeyboardLayoutS1_S1_S1_
	.stabn	224,0,0,LBE323-__ZN11MobKeyboard11addLanguageEP17MobKeyboardLayoutS1_S1_S1_
	.stabs	"newData:r(0,26)",64,0,298,6
	.stabn	192,0,0,LBB329-__ZN11MobKeyboard11addLanguageEP17MobKeyboardLayoutS1_S1_S1_
	.stabn	224,0,0,LBE329-__ZN11MobKeyboard11addLanguageEP17MobKeyboardLayoutS1_S1_S1_
	.stabn	224,0,0,LBE321-__ZN11MobKeyboard11addLanguageEP17MobKeyboardLayoutS1_S1_S1_
	.stabs	"newCapacity:r(0,3)",64,0,293,6
	.stabn	192,0,0,LBB332-__ZN11MobKeyboard11addLanguageEP17MobKeyboardLayoutS1_S1_S1_
	.stabs	"newData:r(0,26)",64,0,298,4
	.stabn	192,0,0,LBB334-__ZN11MobKeyboard11addLanguageEP17MobKeyboardLayoutS1_S1_S1_
	.stabs	"i:r(0,3)",64,0,300,18
	.stabn	192,0,0,LBB335-__ZN11MobKeyboard11addLanguageEP17MobKeyboardLayoutS1_S1_S1_
	.stabn	224,0,0,LBE335-__ZN11MobKeyboard11addLanguageEP17MobKeyboardLayoutS1_S1_S1_
	.stabn	224,0,0,LBE334-__ZN11MobKeyboard11addLanguageEP17MobKeyboardLayoutS1_S1_S1_
	.stabn	224,0,0,LBE332-__ZN11MobKeyboard11addLanguageEP17MobKeyboardLayoutS1_S1_S1_
	.stabs	"newData:r(0,26)",64,0,298,6
	.stabn	192,0,0,LBB338-__ZN11MobKeyboard11addLanguageEP17MobKeyboardLayoutS1_S1_S1_
	.stabn	224,0,0,LBE338-__ZN11MobKeyboard11addLanguageEP17MobKeyboardLayoutS1_S1_S1_
	.stabs	"this:r(0,92)",64,0,167,8
	.stabn	192,0,0,LBB339-__ZN11MobKeyboard11addLanguageEP17MobKeyboardLayoutS1_S1_S1_
	.stabs	"newData:r(0,26)",64,0,298,6
	.stabn	192,0,0,LBB343-__ZN11MobKeyboard11addLanguageEP17MobKeyboardLayoutS1_S1_S1_
	.stabn	224,0,0,LBE343-__ZN11MobKeyboard11addLanguageEP17MobKeyboardLayoutS1_S1_S1_
	.stabn	224,0,0,LBE339-__ZN11MobKeyboard11addLanguageEP17MobKeyboardLayoutS1_S1_S1_
	.stabs	"this:r(0,92)",64,0,167,8
	.stabn	192,0,0,LBB344-__ZN11MobKeyboard11addLanguageEP17MobKeyboardLayoutS1_S1_S1_
	.stabs	"newData:r(0,26)",64,0,298,6
	.stabn	192,0,0,LBB348-__ZN11MobKeyboard11addLanguageEP17MobKeyboardLayoutS1_S1_S1_
	.stabn	224,0,0,LBE348-__ZN11MobKeyboard11addLanguageEP17MobKeyboardLayoutS1_S1_S1_
	.stabn	224,0,0,LBE344-__ZN11MobKeyboard11addLanguageEP17MobKeyboardLayoutS1_S1_S1_
	.stabs	"this:r(0,92)",64,0,167,8
	.stabn	192,0,0,LBB349-__ZN11MobKeyboard11addLanguageEP17MobKeyboardLayoutS1_S1_S1_
	.stabs	"newData:r(0,26)",64,0,298,6
	.stabn	192,0,0,LBB353-__ZN11MobKeyboard11addLanguageEP17MobKeyboardLayoutS1_S1_S1_
	.stabn	224,0,0,LBE353-__ZN11MobKeyboard11addLanguageEP17MobKeyboardLayoutS1_S1_S1_
	.stabn	224,0,0,LBE349-__ZN11MobKeyboard11addLanguageEP17MobKeyboardLayoutS1_S1_S1_
	.stabs	"this:r(0,92)",64,0,167,8
	.stabn	192,0,0,LBB354-__ZN11MobKeyboard11addLanguageEP17MobKeyboardLayoutS1_S1_S1_
	.stabs	"newCapacity:r(0,3)",64,0,293,6
	.stabn	192,0,0,LBB356-__ZN11MobKeyboard11addLanguageEP17MobKeyboardLayoutS1_S1_S1_
	.stabs	"newData:r(0,26)",64,0,298,4
	.stabn	192,0,0,LBB358-__ZN11MobKeyboard11addLanguageEP17MobKeyboardLayoutS1_S1_S1_
	.stabn	224,0,0,LBE358-__ZN11MobKeyboard11addLanguageEP17MobKeyboardLayoutS1_S1_S1_
	.stabn	224,0,0,LBE356-__ZN11MobKeyboard11addLanguageEP17MobKeyboardLayoutS1_S1_S1_
	.stabn	224,0,0,LBE354-__ZN11MobKeyboard11addLanguageEP17MobKeyboardLayoutS1_S1_S1_
	.stabs	"newCapacity:r(0,3)",64,0,293,6
	.stabn	192,0,0,LBB361-__ZN11MobKeyboard11addLanguageEP17MobKeyboardLayoutS1_S1_S1_
	.stabs	"newData:r(0,26)",64,0,298,4
	.stabn	192,0,0,LBB363-__ZN11MobKeyboard11addLanguageEP17MobKeyboardLayoutS1_S1_S1_
	.stabn	224,0,0,LBE363-__ZN11MobKeyboard11addLanguageEP17MobKeyboardLayoutS1_S1_S1_
	.stabn	224,0,0,LBE361-__ZN11MobKeyboard11addLanguageEP17MobKeyboardLayoutS1_S1_S1_
	.stabs	"this:r(0,92)",64,0,167,8
	.stabn	192,0,0,LBB364-__ZN11MobKeyboard11addLanguageEP17MobKeyboardLayoutS1_S1_S1_
	.stabs	"newCapacity:r(0,3)",64,0,293,6
	.stabn	192,0,0,LBB366-__ZN11MobKeyboard11addLanguageEP17MobKeyboardLayoutS1_S1_S1_
	.stabs	"newData:r(0,26)",64,0,298,4
	.stabn	192,0,0,LBB368-__ZN11MobKeyboard11addLanguageEP17MobKeyboardLayoutS1_S1_S1_
	.stabn	224,0,0,LBE368-__ZN11MobKeyboard11addLanguageEP17MobKeyboardLayoutS1_S1_S1_
	.stabn	224,0,0,LBE366-__ZN11MobKeyboard11addLanguageEP17MobKeyboardLayoutS1_S1_S1_
	.stabn	224,0,0,LBE364-__ZN11MobKeyboard11addLanguageEP17MobKeyboardLayoutS1_S1_S1_
	.stabs	"this:r(0,92)",64,0,167,8
	.stabn	192,0,0,LBB369-__ZN11MobKeyboard11addLanguageEP17MobKeyboardLayoutS1_S1_S1_
	.stabs	"newCapacity:r(0,3)",64,0,293,6
	.stabn	192,0,0,LBB371-__ZN11MobKeyboard11addLanguageEP17MobKeyboardLayoutS1_S1_S1_
	.stabs	"newData:r(0,26)",64,0,298,4
	.stabn	192,0,0,LBB373-__ZN11MobKeyboard11addLanguageEP17MobKeyboardLayoutS1_S1_S1_
	.stabn	224,0,0,LBE373-__ZN11MobKeyboard11addLanguageEP17MobKeyboardLayoutS1_S1_S1_
	.stabn	224,0,0,LBE371-__ZN11MobKeyboard11addLanguageEP17MobKeyboardLayoutS1_S1_S1_
	.stabn	224,0,0,LBE369-__ZN11MobKeyboard11addLanguageEP17MobKeyboardLayoutS1_S1_S1_
Lscope25:
	.stabs	"_ZN11MobKeyboard13addButtonLineEP17MobKeyboardLayoutiiPN6MAUtil11BasicStringIcEEiiii:F(0,6)",36,0,172,__ZN11MobKeyboard13addButtonLineEP17MobKeyboardLayoutiiPN6MAUtil11BasicStringIcEEiiii
	.stabs	"this:P(0,90)",64,0,172,12
	.stabs	"a_layout:p(8,61)",160,0,172,-160
	.stabs	"a_lineHeight:p(0,3)",160,0,172,-164
	.stabs	"a_buttonCount:p(0,3)",160,0,172,-168
	.stabs	"a_lineChars:p(0,68)",160,0,172,0
	.stabs	"a_buttonWidth:p(0,3)",160,0,172,4
	.stabs	"a_buttonHeight:p(0,3)",160,0,172,8
	.stabs	"a_leftLinePadding:p(0,3)",160,0,172,12
	.stabs	"a_rightLinePadding:p(0,3)",160,0,172,16
	.global	__ZN11MobKeyboard13addButtonLineEP17MobKeyboardLayoutiiPN6MAUtil11BasicStringIcEEiiii

.func __ZN11MobKeyboard13addButtonLineEP17MobKeyboardLayoutiiPN6MAUtil11BasicStringIcEEiiii, 9, void
	.stabs	"E:\\My Dropbox\\workspace\\GameCards\\MobidexANC\\UI\\MobKeyboard.cpp",132,0,0,Ltext93
Ltext93:
	.line 172
	push rt,d7
	sub  sp,#0x8c
	ld   fr,sp
	add  fr,#0xb4
	ld   [fr,-160],i1
	ld   [fr,-164],i2
	ld   [fr,-168],i3
	.dlab LBB374
	.dlab LBB375
	.dlab LBB376
	.stabs	"E:\\My Dropbox\\workspace\\GameCards\\MobidexANC\\UI\\/MobKeyboard.h",132,0,0,Ltext94
Ltext94:
	.line 101
	ld   r14,[i0]
	ld   d0,[r14,36]
	call d0 ; call non-native
	.dlab LBB377
	ld   r0,#__ZTVN6MAUtil4RectE+8
	ld   [fr,-60],r0
	ld   r1,[r14,4]
	ld   [fr,-56],r1
	ld   r7,[r14,12]
	ld   [fr,-48],r7
	ld   r14,[r14,16]
	ld   [fr,-44],r14
	.dlab LBE377
	.dlab LBE376
	.stabs	"E:\\My Dropbox\\workspace\\GameCards\\MobidexANC\\UI\\MobKeyboard.cpp",132,0,0,Ltext95
Ltext95:
	.line 174
	ld   r14,#0x0
	ld   [fr,-52],r14
	.dlab LBB378
	.dlab LBB379
	.dlab LBB380
	.stabs	"E:\\My Dropbox\\workspace\\GameCards\\MobidexANC\\UI\\/MobKeyboard.h",132,0,0,Ltext96
Ltext96:
	.line 161
	ld   r0,[fr,-160]
	ld   d2,[r0,12]
	.dlab LBE380
	.dlab LBE379
	.dlab LBB381
	.stabs	"c:/MoSync/include/MAUtil/Vector.h",132,0,0,Ltext97
Ltext97:
	.line 265
	ld   r1,[d2]
	ld   [fr,-172],r1
	.dlab LBE381
	.dlab LBE378
	.stabs	"E:\\My Dropbox\\workspace\\GameCards\\MobidexANC\\UI\\MobKeyboard.cpp",132,0,0,Ltext98
Ltext98:
	.line 185
	ld   [fr,-176],r14
	.dlab LBB382
	.line 186
	ld   d6,r14
	ld   r7,[fr,-168]
	jc   le,r7,r14,#L420
	ld   d7,fr
	add  d7,#0xffffffac
L403:
	.dlab LBB383
	.dlab LBB384
	.line 188
	ld   i0,#0xffffffb0
	add  i0,fr
	call &__ZN6MAUtil4RectC1Ev ; call non-native
	.line 189
	ld   i0,d7
	ld   i1,#LC1
	call &__ZN6MAUtil11BasicStringIcEC1EPKc ; call non-native
	ld   d5,d6
	sll  d5,#0x2
	ld   d3,[fr]
	add  d3,d5
	ld   i0,d3
	ld   i1,d7
	call &__ZNK6MAUtil11BasicStringIcEeqERKS1_ ; call non-native
	ld   d0,r14
	ld   i0,d7
	call &__ZN6MAUtil11BasicStringIcED1Ev ; call non-native
	ld   d2,d0
	and  d2,#0xff  ; zero extend
	ld   r14,#0x0
	jc   eq,d2,r14,#L354
	.dlab LBB385
	.stabs	"E:\\My Dropbox\\workspace\\GameCards\\MobidexANC\\UI\\/MobKeyboard.h",132,0,0,Ltext99
Ltext99:
	.line 90
	ld   i0,[fr,4]
	call &___floatsidf ; call non-native
	ld i0,r14
	ld i1,r15 ;1
	ld i2,#0x0
	ld i3,#0x3ff80000 ;3
	call &___muldf3 ; call non-native
	ld i0,r14
	ld i1,r15 ;1
	call &_floor ; call non-native
	ld i0,r14
	ld i1,r15 ;1
	call &___fixdfsi ; call non-native
	ld   r0,[fr,8]
	ld   [sp],r0
	ld   i0,#0xffffff98
	add  i0,fr
	ld   i1,#0x0
L432:
	.dlab LBE385
	.dlab LBB386
	ld   i2,i1
	ld   i3,r14
	call &__ZN6MAUtil4RectC1Eiiii ; call non-native
	.dlab LBB387
	ld   r1,[fr,-100]
	ld   [fr,-76],r1
	ld   r7,[fr,-96]
	ld   [fr,-72],r7
	ld   r14,[fr,-92]
	ld   [fr,-68],r14
	ld   r0,[fr,-88]
	ld   [fr,-64],r0
L356:
	.dlab LBE387
	.dlab LBE386
	.stabs	"E:\\My Dropbox\\workspace\\GameCards\\MobidexANC\\UI\\MobKeyboard.cpp",132,0,0,Ltext100
Ltext100:
	.line 206
	ld   r7,[fr,-176]
	ld   r14,[fr,-68]
	add  r7,r14
	ld   [fr,-176],r7
	.dlab LBB388
	.dlab LBB389
	.stabs	"c:/MoSync/include/MAUtil/Geometry.h",132,0,0,Ltext101
Ltext101:
	.line 40
	ld   r0,#0x0
	ld   [fr,-136],r0
	ld   [fr,-132],r0
	.dlab LBE389
	.dlab LBE388
	ld   i0,#0x24
	call &__Znwm ; call non-native
	ld   d0,r14
	.dlab LBB390
	.stabs	"E:\\My Dropbox\\workspace\\GameCards\\MobidexANC\\UI\\/MobKeyboard.h",132,0,0,Ltext102
Ltext102:
	.line 89
	ld   r1,[fr]
	add  d5,r1
	.dlab LBB391
	ld   i0,r14
	call &__ZN6MAUtil4RectC1Ev ; call non-native
	ld   d2,d0
	add  d2,#0x14
	ld   i0,d2
	call &__ZN6MAUtil11BasicStringIcEC1Ev ; call non-native
	.dlab LBB392
	.stabs	"c:/MoSync/include/MAUtil/Geometry.h",132,0,0,Ltext103
Ltext103:
	.line 39
	ld   d1,d0
	add  d1,#0x18
	.dlab LBB393
	ld   r7,#0x0
	ld   [d1,4],r7
	ld   [d1],r7
	.dlab LBE393
	.dlab LBE392
	.dlab LBB394
	.dlab LBB395
	.stabs	"E:\\My Dropbox\\workspace\\GameCards\\MobidexANC\\UI\\/MobKeyboard.h",132,0,0,Ltext104
Ltext104:
	.line 90
	ld   r14,[fr,-76]
	ld   [d0,4],r14
	ld   r0,[fr,-72]
	ld   [d0,8],r0
	ld   r1,[fr,-68]
	ld   [d0,12],r1
	ld   r7,[fr,-64]
	ld   [d0,16],r7
	.dlab LBE395
	.dlab LBE394
	.line 91
	ld   i0,d2
	ld   i1,d5
	call &__ZN6MAUtil11BasicStringIcEaSERKS1_ ; call non-native
	.line 92
	ld   r14,[fr,-136]
	ld   [d1],r14
	ld   r0,[fr,-132]
	ld   [d0,28],r0
	.line 94
	ld   r1,#0x0
	ld.b [d0,32],r1
	.dlab LBE391
	.dlab LBE390
	ld   [fr,-140],d0
	.dlab LBB396
	.dlab LBB397
	.dlab LBB398
	.line 161
	ld   r7,[fr,-160]
	ld   d2,[r7,12]
	.dlab LBE398
	.dlab LBE397
	.dlab LBB399
	.stabs	"c:/MoSync/include/MAUtil/Vector.h",132,0,0,Ltext105
Ltext105:
	.line 168
	ld   d0,[d2,4]
	ld   r14,d0
	add  r14,#0xffffffff
	ld   r1,[d2]
	jc   lt,r1,r14,#L428
	.line 169
	ld   r14,#0x0
	jc   eq,d0,r14,#L384
	.dlab LBB400
	.line 293
	ld   d1,d0
	add  d1,d0
	.dlab LBB401
	.dlab LBB402
	.line 295
	jc   lt,d0,d1,#L436
L428:
	ld   i0,[d2,8]
L383:
	.dlab LBE402
	.dlab LBE401
	.dlab LBE400
	.line 174
	ld   r14,r1
	sll  r14,#0x2
	add  r14,i0
	ld   r0,[fr,-140]
	ld   [r14],r0
	add  r1,#0x1
	ld   [d2],r1
	.dlab LBE399
	.dlab LBE396
	.dlab LBE384
	.dlab LBE383
	.stabs	"E:\\My Dropbox\\workspace\\GameCards\\MobidexANC\\UI\\MobKeyboard.cpp",132,0,0,Ltext106
Ltext106:
	.line 186
	add  d6,#0x1
	ld   r1,[fr,-168]
	jc   lt,d6,r1,#L403
	ld   r7,[fr,-160]
	ld   d2,[r7,12]
L420:
	.dlab LBE382
	.line 212
	ld   i0,[fr,-48]
	ld   r14,[fr,16]
	sub  i0,r14
	ld   r0,[fr,12]
	sub  i0,r0
	.line 214
	ld   r1,[fr,-176]
	sub  i0,r1
	call &___floatsidf ; call non-native
	ld d0,r14
	ld d1,r15 ;1
	ld   i0,[fr,-168]
	call &___floatsidf ; call non-native
	ld i0,d0
	ld i1,d1 ;1
	ld i2,r14
	ld i3,r15 ;1
	call &___divdf3 ; call non-native
	ld i0,r14
	ld i1,r15 ;1
	call &_floor ; call non-native
	ld i0,r14
	ld i1,r15 ;1
	call &___fixdfsi ; call non-native
	ld   r4,r14
	.line 216
	ld   r2,r14
	srl  r2,#0x1f
	add  r2,r14
	sra  r2,#0x1
	ld   r7,[fr,12]
	add  r2,r7
	.dlab LBB403
	.line 217
	ld   r3,[fr,-172]
	.dlab LBB404
	.dlab LBB405
	.stabs	"c:/MoSync/include/MAUtil/Vector.h",132,0,0,Ltext107
Ltext107:
	.line 265
	ld   r14,[d2]
	.dlab LBE405
	.dlab LBE404
	.line 161
	jc   le,r14,r3,#L426
	ld   r6,fr
	add  r6,#0xffffff6c
	ld   r5,fr
	add  r5,#0xffffff64
L418:
	.dlab LBB406
	.dlab LBB407
	.dlab LBB408
	.dlab LBB409
	.line 362
	ld   r14,r3
	sll  r14,#0x2
	ld   r0,[d2,8]
	add  r14,r0
	.dlab LBE409
	.dlab LBE408
	ld   r14,[r14]
	.dlab LBB410
	.dlab LBB411
	.dlab LBB412
	.stabs	"c:/MoSync/include/MAUtil/Geometry.h",132,0,0,Ltext108
Ltext108:
	.line 40
	ld   [fr,-148],r2
	ld   r1,[fr,-164]
	ld   [r6,4],r1
	.dlab LBE412
	.dlab LBE411
	.dlab LBB413
	ld   r0,r2
	ld   r7,[fr,-56]
	sub  r0,r7
	ld   r7,[fr,-52]
	sub  r1,r7
	.dlab LBB414
	ld   [fr,-156],r0
	ld   [r5,4],r1
	.dlab LBE414
	.dlab LBE413
	.dlab LBB415
	.stabs	"E:\\My Dropbox\\workspace\\GameCards\\MobidexANC\\UI\\/MobKeyboard.h",132,0,0,Ltext109
Ltext109:
	.line 116
	ld   [r14,4],r2
	.line 117
	ld   r0,[r6,4]
	ld   [r14,8],r0
	.line 119
	ld   r1,[fr,-156]
	ld   [r14,24],r1
	.line 120
	ld   r7,[r5,4]
	ld   [r14,28],r7
	.dlab LBE415
	.dlab LBE410
	.dlab LBB416
	.dlab LBB417
	.dlab LBB418
	.dlab LBB419
	.line 101
	ld   [fr,-100],r2
	ld   [fr,-96],r0
	ld   r1,[r14,12]
	ld   [fr,-92],r1
	ld   r14,[r14,16]
	ld   [fr,-88],r14
	.dlab LBE419
	.dlab LBE418
	.dlab LBE417
	.dlab LBE416
	.line 100
	ld   r14,r1
	add  r14,r4
	add  r2,r14
	.dlab LBE407
	.dlab LBE406
	.stabs	"E:\\My Dropbox\\workspace\\GameCards\\MobidexANC\\UI\\MobKeyboard.cpp",132,0,0,Ltext110
Ltext110:
	.line 217
	add  r3,#0x1
	.dlab LBB420
	.dlab LBB421
	.stabs	"c:/MoSync/include/MAUtil/Vector.h",132,0,0,Ltext111
Ltext111:
	.line 265
	ld   r14,[d2]
	.dlab LBE421
	.dlab LBE420
	.line 161
	jc   gt,r14,r3,#L418
	ld   r7,#__ZTVN6MAUtil4RectE+8
	ld   [fr,-104],r7
L426:
	.dlab LBE403
	.dlab LBE375
	.dlab LBE374
	add  sp,#0x8c
	pop  rt,d7
	ret
L354:
	.dlab LBB422
	.dlab LBB423
	.dlab LBB424
	.dlab LBB425
	.dlab LBB426
	.stabs	"E:\\My Dropbox\\workspace\\GameCards\\MobidexANC\\UI\\MobKeyboard.cpp",132,0,0,Ltext112
Ltext112:
	.line 191
	ld   d0,fr
	add  d0,#0xffffff94
	ld   i0,d0
	ld   i1,#LC3
	call &__ZN6MAUtil11BasicStringIcEC1EPKc ; call non-native
	ld   i0,d3
	ld   i1,d0
	call &__ZNK6MAUtil11BasicStringIcEeqERKS1_ ; call non-native
	ld   d1,r14
	ld   i0,d0
	call &__ZN6MAUtil11BasicStringIcED1Ev ; call non-native
	ld   d4,d1
	and  d4,#0xff  ; zero extend
	jc   eq,d4,d2,#L357
	.dlab LBB427
	.stabs	"E:\\My Dropbox\\workspace\\GameCards\\MobidexANC\\UI\\/MobKeyboard.h",132,0,0,Ltext113
Ltext113:
	.line 90
	ld   i0,[fr,4]
	call &___floatsidf ; call non-native
	ld i0,r14
	ld i1,r15 ;1
	ld i2,#0x0
	ld i3,#0x3ff80000 ;3
	call &___muldf3 ; call non-native
	ld i0,r14
	ld i1,r15 ;1
	call &_floor ; call non-native
	ld i0,r14
	ld i1,r15 ;1
	call &___fixdfsi ; call non-native
	ld   r1,[fr,8]
	ld   [sp],r1
	ld   i0,#0xffffff98
	add  i0,fr
	ld   i1,#0x0
L435:
	.dlab LBE427
	.dlab LBB428
	ld   i2,i1
	ld   i3,r14
L431:
	.dlab LBE428
	.dlab LBB429
	call &__ZN6MAUtil4RectC1Eiiii ; call non-native
	.dlab LBB430
	ld   r7,[fr,-100]
	ld   [fr,-76],r7
	ld   r14,[fr,-96]
	ld   [fr,-72],r14
	ld   r0,[fr,-92]
	ld   [fr,-68],r0
	ld   r1,[fr,-88]
	ld   [fr,-64],r1
	jp   #L356
L436:
	.dlab LBE430
	.dlab LBE429
	.dlab LBB431
	.dlab LBB432
	.dlab LBB433
	.dlab LBB434
	.dlab LBB435
	.stabs	"c:/MoSync/include/MAUtil/Vector.h",132,0,0,Ltext114
Ltext114:
	.line 298
	ld   i0,d1
	sll  i0,#0x2
	call &__Znam ; call non-native
	ld   d0,r14
	.dlab LBB436
	.line 300
	ld   r2,#0x0
	ld   r1,[d2]
	jc   le,r1,r2,#L429
	ld   i0,[d2,8]
L390:
	.line 301
	ld   r14,r2
	sll  r14,#0x2
	ld   r0,r14
	add  r0,d0
	add  r14,i0
	ld   r14,[r14]
	ld   [r0],r14
	.line 300
	add  r2,#0x1
	jc   gt,r1,r2,#L390
	.dlab LBE436
	.line 304
	ld   [d2,4],d1
	.line 305
	ld   r0,#0x0
	jc   ne,i0,r0,#L437
L392:
	.line 307
	ld   i0,d0
L434:
	.dlab LBE435
	.dlab LBE434
	.dlab LBE433
	.dlab LBB437
	.dlab LBB438
	.dlab LBB439
	ld   [d2,8],i0
	jp   #L383
L384:
	.line 298
	ld   i0,#0x10
	call &__Znam ; call non-native
	ld   d1,r14
	.dlab LBB440
	.line 300
	ld   r2,d0
	ld   r1,[d2]
	jc   le,r1,d0,#L430
	ld   i0,[d2,8]
L399:
	.line 301
	ld   r14,r2
	sll  r14,#0x2
	ld   r0,r14
	add  r0,d1
	add  r14,i0
	ld   r14,[r14]
	ld   [r0],r14
	.line 300
	add  r2,#0x1
	jc   gt,r1,r2,#L399
	.dlab LBE440
	.line 304
	ld   r7,#0x4
	ld   [d2,4],r7
	.line 305
	ld   r14,#0x0
	jc   ne,i0,r14,#L438
L401:
	.line 307
	ld   i0,d1
L439:
	ld   [d2,8],i0
	jp   #L383
L357:
	.dlab LBE439
	.dlab LBE438
	.dlab LBE437
	.dlab LBE432
	.dlab LBE431
	.stabs	"E:\\My Dropbox\\workspace\\GameCards\\MobidexANC\\UI\\MobKeyboard.cpp",132,0,0,Ltext115
Ltext115:
	.line 193
	ld   d0,fr
	add  d0,#0xffffff90
	ld   i0,d0
	ld   i1,#LC4
	call &__ZN6MAUtil11BasicStringIcEC1EPKc ; call non-native
	ld   i0,d3
	ld   i1,d0
	call &__ZNK6MAUtil11BasicStringIcEeqERKS1_ ; call non-native
	ld   d1,r14
	ld   i0,d0
	call &__ZN6MAUtil11BasicStringIcED1Ev ; call non-native
	ld   d2,d1
	and  d2,#0xff  ; zero extend
	jc   eq,d2,d4,#L360
	.dlab LBB441
	.stabs	"E:\\My Dropbox\\workspace\\GameCards\\MobidexANC\\UI\\/MobKeyboard.h",132,0,0,Ltext116
Ltext116:
	.line 90
	ld   i0,[fr,4]
	call &___floatsidf ; call non-native
	ld i0,r14
	ld i1,r15 ;1
	ld i2,r14
	ld i3,r15 ;1
	call &___adddf3 ; call non-native
	ld i0,r14
	ld i1,r15 ;1
	call &_floor ; call non-native
	ld i0,r14
	ld i1,r15 ;1
	call &___fixdfsi ; call non-native
	ld   r7,[fr,8]
	ld   [sp],r7
	ld   i0,#0xffffff98
	add  i0,fr
	ld   i1,d4
L433:
	.dlab LBE441
	.dlab LBB442
	ld   i2,i1
	ld   i3,r14
	call &__ZN6MAUtil4RectC1Eiiii ; call non-native
	.dlab LBB443
	ld   r14,[fr,-100]
	ld   [fr,-76],r14
	ld   r0,[fr,-96]
	ld   [fr,-72],r0
	ld   r1,[fr,-92]
	ld   [fr,-68],r1
	ld   r7,[fr,-88]
	ld   [fr,-64],r7
	jp   #L356
L430:
	ld   i0,[d2,8]
	.dlab LBE443
	.dlab LBE442
	.dlab LBB444
	.dlab LBB445
	.dlab LBB446
	.dlab LBB447
	.dlab LBB448
	.stabs	"c:/MoSync/include/MAUtil/Vector.h",132,0,0,Ltext117
Ltext117:
	.line 304
	ld   r7,#0x4
	ld   [d2,4],r7
	.line 305
	ld   r14,#0x0
	jc   eq,i0,r14,#L401
L438:
	call &__ZdaPv ; call non-native
	ld   r1,[d2]
	.line 307
	ld   i0,d1
	jp   #L439
L360:
	.dlab LBE448
	.dlab LBE447
	.dlab LBE446
	.dlab LBE445
	.dlab LBE444
	.stabs	"E:\\My Dropbox\\workspace\\GameCards\\MobidexANC\\UI\\MobKeyboard.cpp",132,0,0,Ltext118
Ltext118:
	.line 195
	ld   d0,fr
	add  d0,#0xffffff8c
	ld   i0,d0
	ld   i1,#LC5
	call &__ZN6MAUtil11BasicStringIcEC1EPKc ; call non-native
	ld   i0,d3
	ld   i1,d0
	call &__ZNK6MAUtil11BasicStringIcEeqERKS1_ ; call non-native
	ld   d1,r14
	ld   i0,d0
	call &__ZN6MAUtil11BasicStringIcED1Ev ; call non-native
	ld   d4,d1
	and  d4,#0xff  ; zero extend
	jc   eq,d4,d2,#L363
	.dlab LBB449
	.stabs	"E:\\My Dropbox\\workspace\\GameCards\\MobidexANC\\UI\\/MobKeyboard.h",132,0,0,Ltext119
Ltext119:
	.line 90
	ld   i0,[fr,4]
	call &___floatsidf ; call non-native
	ld i0,r14
	ld i1,r15 ;1
	ld i2,#0x33333333
	ld i3,#0x3ffb3333 ;3
	call &___muldf3 ; call non-native
	ld i0,r14
	ld i1,r15 ;1
	call &_floor ; call non-native
	ld i0,r14
	ld i1,r15 ;1
	call &___fixdfsi ; call non-native
	ld   r0,[fr,8]
	ld   [sp],r0
	ld   i0,#0xffffff98
	add  i0,fr
	ld   i1,d2
	jp   #L432
L437:
	.dlab LBE449
	.dlab LBB450
	.dlab LBB451
	.dlab LBB452
	.dlab LBB453
	.dlab LBB454
	.stabs	"c:/MoSync/include/MAUtil/Vector.h",132,0,0,Ltext120
Ltext120:
	.line 305
	call &__ZdaPv ; call non-native
	ld   r1,[d2]
	.line 307
	ld   i0,d0
	jp   #L434
L429:
	ld   i0,[d2,8]
	.line 304
	ld   [d2,4],d1
	.line 305
	ld   r0,#0x0
	jc   eq,i0,r0,#L392
	jp   #L437
L363:
	.dlab LBE454
	.dlab LBE453
	.dlab LBE452
	.dlab LBE451
	.dlab LBE450
	.stabs	"E:\\My Dropbox\\workspace\\GameCards\\MobidexANC\\UI\\MobKeyboard.cpp",132,0,0,Ltext121
Ltext121:
	.line 197
	ld   d0,fr
	add  d0,#0xffffff88
	ld   i0,d0
	ld   i1,#LC6
	call &__ZN6MAUtil11BasicStringIcEC1EPKc ; call non-native
	ld   i0,d3
	ld   i1,d0
	call &__ZNK6MAUtil11BasicStringIcEeqERKS1_ ; call non-native
	ld   d1,r14
	ld   i0,d0
	call &__ZN6MAUtil11BasicStringIcED1Ev ; call non-native
	ld   d2,d1
	and  d2,#0xff  ; zero extend
	jc   eq,d2,d4,#L366
	.dlab LBB455
	.stabs	"E:\\My Dropbox\\workspace\\GameCards\\MobidexANC\\UI\\/MobKeyboard.h",132,0,0,Ltext122
Ltext122:
	.line 90
	ld   i0,[fr,4]
	call &___floatsidf ; call non-native
	ld i0,r14
	ld i1,r15 ;1
	ld i2,#0x0
	ld i3,#0x40080000 ;3
	call &___muldf3 ; call non-native
	ld i0,r14
	ld i1,r15 ;1
	call &_floor ; call non-native
	ld i0,r14
	ld i1,r15 ;1
	call &___fixdfsi ; call non-native
	ld   r1,[fr,8]
	ld   [sp],r1
	ld   i0,#0xffffff98
	add  i0,fr
	ld   i1,d4
	jp   #L435
L366:
	.dlab LBE455
	.stabs	"E:\\My Dropbox\\workspace\\GameCards\\MobidexANC\\UI\\MobKeyboard.cpp",132,0,0,Ltext123
Ltext123:
	.line 199
	ld   d0,fr
	add  d0,#0xffffff84
	ld   i0,d0
	ld   i1,#LC2
	call &__ZN6MAUtil11BasicStringIcEC1EPKc ; call non-native
	ld   i0,d3
	ld   i1,d0
	call &__ZNK6MAUtil11BasicStringIcEeqERKS1_ ; call non-native
	ld   d1,r14
	ld   i0,d0
	call &__ZN6MAUtil11BasicStringIcED1Ev ; call non-native
	ld   d4,d1
	and  d4,#0xff  ; zero extend
	jc   eq,d4,d2,#L369
	.dlab LBB456
	.stabs	"E:\\My Dropbox\\workspace\\GameCards\\MobidexANC\\UI\\/MobKeyboard.h",132,0,0,Ltext124
Ltext124:
	.line 90
	ld   i0,[fr,4]
	call &___floatsidf ; call non-native
	ld i0,r14
	ld i1,r15 ;1
	ld i2,#0x33333333
	ld i3,#0x3ffb3333 ;3
	call &___muldf3 ; call non-native
	ld i0,r14
	ld i1,r15 ;1
	call &_floor ; call non-native
	ld i0,r14
	ld i1,r15 ;1
	call &___fixdfsi ; call non-native
	ld   r7,[fr,8]
	ld   [sp],r7
	ld   i0,#0xffffff98
	add  i0,fr
	ld   i1,d2
	jp   #L433
L369:
	.dlab LBE456
	.stabs	"E:\\My Dropbox\\workspace\\GameCards\\MobidexANC\\UI\\MobKeyboard.cpp",132,0,0,Ltext125
Ltext125:
	.line 201
	ld   d0,fr
	add  d0,#0xffffff80
	ld   i0,d0
	ld   i1,#LC8
	call &__ZN6MAUtil11BasicStringIcEC1EPKc ; call non-native
	ld   i0,d3
	ld   i1,d0
	call &__ZNK6MAUtil11BasicStringIcEeqERKS1_ ; call non-native
	ld   d1,r14
	ld   i0,d0
	call &__ZN6MAUtil11BasicStringIcED1Ev ; call non-native
	ld   i1,d1
	and  i1,#0xff  ; zero extend
	jc   eq,i1,d4,#L372
	.dlab LBB457
	.stabs	"E:\\My Dropbox\\workspace\\GameCards\\MobidexANC\\UI\\/MobKeyboard.h",132,0,0,Ltext126
Ltext126:
	.line 90
	ld   i0,[fr,4]
	call &___floatsidf ; call non-native
	ld i0,r14
	ld i1,r15 ;1
	ld i2,r14
	ld i3,r15 ;1
	call &___adddf3 ; call non-native
	ld i0,r14
	ld i1,r15 ;1
	call &_floor ; call non-native
	ld i0,r14
	ld i1,r15 ;1
	call &___fixdfsi ; call non-native
	ld   r0,[fr,8]
	ld   [sp],r0
	ld   i0,#0xffffff98
	add  i0,fr
	ld   i1,d4
	jp   #L432
L372:
	.dlab LBE457
	.dlab LBB458
	ld   r1,[fr,8]
	ld   [sp],r1
	ld   i0,#0xffffff98
	add  i0,fr
	ld   i2,i1
	ld   i3,[fr,4]
	jp   #L431
	.dlab LBE458
	.dlab LBE426
	.dlab LBE425
	.dlab LBE424
	.dlab LBE423
	.dlab LBE422
	.stabs	"l_bounds:(8,37)",128,0,173,-60
	.stabs	"l_startingIndex:(0,3)",128,0,183,-172
	.stabs	"l_sumButtonWidth:(0,3)",128,0,185,-176
	.stabs	"l_singleSpacingWidth:r(0,3)",64,0,214,20
	.stabs	"l_currentWidth:r(0,3)",64,0,216,18
	.stabn	192,0,0,LBB375-__ZN11MobKeyboard13addButtonLineEP17MobKeyboardLayoutiiPN6MAUtil11BasicStringIcEEiiii
	.stabs	"_ctor_arg:r(8,40)",64,0,101,30
	.stabn	192,0,0,LBB376-__ZN11MobKeyboard13addButtonLineEP17MobKeyboardLayoutiiPN6MAUtil11BasicStringIcEEiiii
	.stabn	224,0,0,LBE376-__ZN11MobKeyboard13addButtonLineEP17MobKeyboardLayoutiiPN6MAUtil11BasicStringIcEEiiii
	.stabs	"i:r(0,3)",64,0,186,10
	.stabn	192,0,0,LBB382-__ZN11MobKeyboard13addButtonLineEP17MobKeyboardLayoutiiPN6MAUtil11BasicStringIcEEiiii
	.stabs	"l_buttonBounds:(8,37)",128,0,188,-80
	.stabs	"l_button:(8,39)",128,0,208,-140
	.stabn	192,0,0,LBB384-__ZN11MobKeyboard13addButtonLineEP17MobKeyboardLayoutiiPN6MAUtil11BasicStringIcEEiiii
	.stabs	"this:r(0,93)=k(12,3)",64,0,39,5
	.stabn	192,0,0,LBB392-__ZN11MobKeyboard13addButtonLineEP17MobKeyboardLayoutiiPN6MAUtil11BasicStringIcEEiiii
	.stabn	224,0,0,LBE392-__ZN11MobKeyboard13addButtonLineEP17MobKeyboardLayoutiiPN6MAUtil11BasicStringIcEEiiii
	.stabs	"newCapacity:r(0,3)",64,0,293,5
	.stabn	192,0,0,LBB400-__ZN11MobKeyboard13addButtonLineEP17MobKeyboardLayoutiiPN6MAUtil11BasicStringIcEEiiii
	.stabs	"newData:r(8,72)",64,0,298,4
	.stabn	192,0,0,LBB402-__ZN11MobKeyboard13addButtonLineEP17MobKeyboardLayoutiiPN6MAUtil11BasicStringIcEEiiii
	.stabn	224,0,0,LBE402-__ZN11MobKeyboard13addButtonLineEP17MobKeyboardLayoutiiPN6MAUtil11BasicStringIcEEiiii
	.stabn	224,0,0,LBE400-__ZN11MobKeyboard13addButtonLineEP17MobKeyboardLayoutiiPN6MAUtil11BasicStringIcEEiiii
	.stabn	224,0,0,LBE384-__ZN11MobKeyboard13addButtonLineEP17MobKeyboardLayoutiiPN6MAUtil11BasicStringIcEEiiii
	.stabn	224,0,0,LBE382-__ZN11MobKeyboard13addButtonLineEP17MobKeyboardLayoutiiPN6MAUtil11BasicStringIcEEiiii
	.stabs	"i:r(0,3)",64,0,217,19
	.stabn	192,0,0,LBB403-__ZN11MobKeyboard13addButtonLineEP17MobKeyboardLayoutiiPN6MAUtil11BasicStringIcEEiiii
	.stabs	"l_button:r(8,39)",64,0,219,30
	.stabn	192,0,0,LBB407-__ZN11MobKeyboard13addButtonLineEP17MobKeyboardLayoutiiPN6MAUtil11BasicStringIcEEiiii
	.stabs	"ax:r(0,3)",64,0,40,16
	.stabs	"ay:r(0,3)",64,0,40,17
	.stabn	192,0,0,LBB413-__ZN11MobKeyboard13addButtonLineEP17MobKeyboardLayoutiiPN6MAUtil11BasicStringIcEEiiii
	.stabn	224,0,0,LBE413-__ZN11MobKeyboard13addButtonLineEP17MobKeyboardLayoutiiPN6MAUtil11BasicStringIcEEiiii
	.stabn	224,0,0,LBE407-__ZN11MobKeyboard13addButtonLineEP17MobKeyboardLayoutiiPN6MAUtil11BasicStringIcEEiiii
	.stabn	224,0,0,LBE403-__ZN11MobKeyboard13addButtonLineEP17MobKeyboardLayoutiiPN6MAUtil11BasicStringIcEEiiii
	.stabn	224,0,0,LBE375-__ZN11MobKeyboard13addButtonLineEP17MobKeyboardLayoutiiPN6MAUtil11BasicStringIcEEiiii
	.stabs	"l_bounds:(8,37)",128,0,173,-60
	.stabs	"l_startingIndex:(0,3)",128,0,183,-172
	.stabs	"l_sumButtonWidth:(0,3)",128,0,185,-176
	.stabs	"l_singleSpacingWidth:r(0,3)",64,0,214,20
	.stabs	"l_currentWidth:r(0,3)",64,0,216,18
	.stabn	192,0,0,LBB423-__ZN11MobKeyboard13addButtonLineEP17MobKeyboardLayoutiiPN6MAUtil11BasicStringIcEEiiii
	.stabs	"i:r(0,3)",64,0,186,10
	.stabn	192,0,0,LBB424-__ZN11MobKeyboard13addButtonLineEP17MobKeyboardLayoutiiPN6MAUtil11BasicStringIcEEiiii
	.stabs	"l_buttonBounds:(8,37)",128,0,188,-80
	.stabs	"l_button:(8,39)",128,0,208,-140
	.stabn	192,0,0,LBB426-__ZN11MobKeyboard13addButtonLineEP17MobKeyboardLayoutiiPN6MAUtil11BasicStringIcEEiiii
	.stabs	"newCapacity:r(0,3)",64,0,293,5
	.stabn	192,0,0,LBB433-__ZN11MobKeyboard13addButtonLineEP17MobKeyboardLayoutiiPN6MAUtil11BasicStringIcEEiiii
	.stabs	"newData:r(8,72)",64,0,298,4
	.stabn	192,0,0,LBB435-__ZN11MobKeyboard13addButtonLineEP17MobKeyboardLayoutiiPN6MAUtil11BasicStringIcEEiiii
	.stabs	"i:r(0,3)",64,0,300,18
	.stabn	192,0,0,LBB436-__ZN11MobKeyboard13addButtonLineEP17MobKeyboardLayoutiiPN6MAUtil11BasicStringIcEEiiii
	.stabn	224,0,0,LBE436-__ZN11MobKeyboard13addButtonLineEP17MobKeyboardLayoutiiPN6MAUtil11BasicStringIcEEiiii
	.stabn	224,0,0,LBE435-__ZN11MobKeyboard13addButtonLineEP17MobKeyboardLayoutiiPN6MAUtil11BasicStringIcEEiiii
	.stabn	224,0,0,LBE433-__ZN11MobKeyboard13addButtonLineEP17MobKeyboardLayoutiiPN6MAUtil11BasicStringIcEEiiii
	.stabs	"newData:r(8,72)",64,0,298,5
	.stabn	192,0,0,LBB439-__ZN11MobKeyboard13addButtonLineEP17MobKeyboardLayoutiiPN6MAUtil11BasicStringIcEEiiii
	.stabs	"i:r(0,3)",64,0,300,18
	.stabn	192,0,0,LBB440-__ZN11MobKeyboard13addButtonLineEP17MobKeyboardLayoutiiPN6MAUtil11BasicStringIcEEiiii
	.stabn	224,0,0,LBE440-__ZN11MobKeyboard13addButtonLineEP17MobKeyboardLayoutiiPN6MAUtil11BasicStringIcEEiiii
	.stabn	224,0,0,LBE439-__ZN11MobKeyboard13addButtonLineEP17MobKeyboardLayoutiiPN6MAUtil11BasicStringIcEEiiii
	.stabs	"newData:r(8,72)",64,0,298,5
	.stabn	192,0,0,LBB448-__ZN11MobKeyboard13addButtonLineEP17MobKeyboardLayoutiiPN6MAUtil11BasicStringIcEEiiii
	.stabn	224,0,0,LBE448-__ZN11MobKeyboard13addButtonLineEP17MobKeyboardLayoutiiPN6MAUtil11BasicStringIcEEiiii
	.stabs	"newCapacity:r(0,3)",64,0,293,5
	.stabn	192,0,0,LBB452-__ZN11MobKeyboard13addButtonLineEP17MobKeyboardLayoutiiPN6MAUtil11BasicStringIcEEiiii
	.stabs	"newData:r(8,72)",64,0,298,4
	.stabn	192,0,0,LBB454-__ZN11MobKeyboard13addButtonLineEP17MobKeyboardLayoutiiPN6MAUtil11BasicStringIcEEiiii
	.stabn	224,0,0,LBE454-__ZN11MobKeyboard13addButtonLineEP17MobKeyboardLayoutiiPN6MAUtil11BasicStringIcEEiiii
	.stabn	224,0,0,LBE452-__ZN11MobKeyboard13addButtonLineEP17MobKeyboardLayoutiiPN6MAUtil11BasicStringIcEEiiii
	.stabn	224,0,0,LBE426-__ZN11MobKeyboard13addButtonLineEP17MobKeyboardLayoutiiPN6MAUtil11BasicStringIcEEiiii
	.stabn	224,0,0,LBE424-__ZN11MobKeyboard13addButtonLineEP17MobKeyboardLayoutiiPN6MAUtil11BasicStringIcEEiiii
	.stabn	224,0,0,LBE423-__ZN11MobKeyboard13addButtonLineEP17MobKeyboardLayoutiiPN6MAUtil11BasicStringIcEEiiii
Lscope26:
.data
LC10:
	.ascii "en_lower\0"
LC11:
	.ascii "English\0"
LC12:
	.ascii "q\0"
LC13:
	.ascii "w\0"
LC14:
	.ascii "e\0"
LC15:
	.ascii "r\0"
LC16:
	.ascii "t\0"
LC17:
	.ascii "y\0"
LC18:
	.ascii "u\0"
LC19:
	.ascii "i\0"
LC20:
	.ascii "o\0"
LC21:
	.ascii "p\0"
LC22:
	.ascii "a\0"
LC23:
	.ascii "s\0"
LC24:
	.ascii "d\0"
LC25:
	.ascii "f\0"
LC26:
	.ascii "g\0"
LC27:
	.ascii "h\0"
LC28:
	.ascii "j\0"
LC29:
	.ascii "k\0"
LC30:
	.ascii "l\0"
LC31:
	.ascii "z\0"
LC32:
	.ascii "x\0"
LC33:
	.ascii "c\0"
LC34:
	.ascii "v\0"
LC35:
	.ascii "b\0"
LC36:
	.ascii "n\0"
LC37:
	.ascii "m\0"
LC38:
	.ascii "en_upper\0"
LC39:
	.ascii "Q\0"
LC40:
	.ascii "W\0"
LC41:
	.ascii "E\0"
LC42:
	.ascii "R\0"
LC43:
	.ascii "T\0"
LC44:
	.ascii "Y\0"
LC45:
	.ascii "U\0"
LC46:
	.ascii "I\0"
LC47:
	.ascii "O\0"
LC48:
	.ascii "P\0"
LC49:
	.ascii "A\0"
LC50:
	.ascii "S\0"
LC51:
	.ascii "D\0"
LC52:
	.ascii "F\0"
LC53:
	.ascii "G\0"
LC54:
	.ascii "H\0"
LC55:
	.ascii "J\0"
LC56:
	.ascii "K\0"
LC57:
	.ascii "L\0"
LC58:
	.ascii "Z\0"
LC59:
	.ascii "X\0"
LC60:
	.ascii "C\0"
LC61:
	.ascii "V\0"
LC62:
	.ascii "B\0"
LC63:
	.ascii "N\0"
LC64:
	.ascii "M\0"
LC65:
	.ascii "en_num1\0"
LC66:
	.ascii "1\0"
LC67:
	.ascii "2\0"
LC68:
	.ascii "3\0"
LC69:
	.ascii "4\0"
LC70:
	.ascii "5\0"
LC71:
	.ascii "6\0"
LC72:
	.ascii "7\0"
LC73:
	.ascii "8\0"
LC74:
	.ascii "9\0"
LC75:
	.ascii "0\0"
LC76:
	.ascii ".\0"
LC77:
	.ascii ",\0"
LC78:
	.ascii "+\0"
LC79:
	.ascii "-\0"
LC80:
	.ascii "!\0"
LC81:
	.ascii "?\0"
LC82:
	.ascii "@\0"
LC83:
	.ascii "&\0"
LC84:
	.ascii "/\0"
LC85:
	.ascii "_\0"
LC86:
	.ascii "*\0"
LC87:
	.ascii "'\0"
LC88:
	.ascii ";\0"
LC89:
	.ascii "(\0"
LC90:
	.ascii ")\0"
LC91:
	.ascii ":\0"
LC92:
	.ascii "en_num2\0"
LC93:
	.ascii "=\0"
LC94:
	.ascii "<\0"
LC95:
	.ascii ">\0"
LC96:
	.ascii "{\0"
LC97:
	.ascii "}\0"
LC98:
	.ascii "[\0"
LC99:
	.ascii "]\0"
LC100:
	.ascii "\243\0"
LC101:
	.ascii "$\0"
LC102:
	.ascii "\200\0"
LC103:
	.ascii "\245\0"
LC104:
	.ascii "~\0"
LC105:
	.ascii "^\0"
LC106:
	.ascii "%\0"
LC107:
	.ascii "\"\0"
LC108:
	.ascii "\206\0"
LC109:
	.ascii "#\0"
LC110:
	.ascii "\211\0"
LC111:
	.ascii "\\\0"
LC112:
	.ascii "\251\0"
LC113:
	.ascii "|\0"
LC114:
	.ascii "`\0"
LC115:
	.ascii "\261\0"
LC116:
	.ascii "\275\0"
LC117:
	.ascii "\253\0"
LC118:
	.ascii "\273\0"
LC119:
	.ascii "gr_lower\0"
LC120:
	.ascii "Greek\0"
LC121:
	.ascii "\362\0"
LC122:
	.ascii "\345\0"
LC123:
	.ascii "\361\0"
LC124:
	.ascii "\364\0"
LC125:
	.ascii "\365\0"
LC126:
	.ascii "\350\0"
LC127:
	.ascii "\351\0"
LC128:
	.ascii "\357\0"
LC129:
	.ascii "\360\0"
LC130:
	.ascii "\341\0"
LC131:
	.ascii "\363\0"
LC132:
	.ascii "\344\0"
LC133:
	.ascii "\366\0"
LC134:
	.ascii "\343\0"
LC135:
	.ascii "\347\0"
LC136:
	.ascii "\356\0"
LC137:
	.ascii "\352\0"
LC138:
	.ascii "\353\0"
LC139:
	.ascii "\346\0"
LC140:
	.ascii "\367\0"
LC141:
	.ascii "\370\0"
LC142:
	.ascii "\371\0"
LC143:
	.ascii "\342\0"
LC144:
	.ascii "\355\0"
LC145:
	.ascii "\354\0"
LC146:
	.ascii "gr_upper\0"
LC147:
	.ascii "\305\0"
LC148:
	.ascii "\321\0"
LC149:
	.ascii "\324\0"
LC150:
	.ascii "\325\0"
LC151:
	.ascii "\310\0"
LC152:
	.ascii "\311\0"
LC153:
	.ascii "\317\0"
LC154:
	.ascii "\320\0"
LC155:
	.ascii "\301\0"
LC156:
	.ascii "\323\0"
LC157:
	.ascii "\304\0"
LC158:
	.ascii "\326\0"
LC159:
	.ascii "\303\0"
LC160:
	.ascii "\307\0"
LC161:
	.ascii "\316\0"
LC162:
	.ascii "\312\0"
LC163:
	.ascii "\313\0"
LC164:
	.ascii "\306\0"
LC165:
	.ascii "\327\0"
LC166:
	.ascii "\330\0"
LC167:
	.ascii "\331\0"
LC168:
	.ascii "\302\0"
LC169:
	.ascii "\315\0"
LC170:
	.ascii "\314\0"
LC171:
	.ascii "gr_num1\0"
LC172:
	.ascii "gr_num2\0"
.code
	.stabs	"_ZN11MobKeyboard9setupKeysEv:F(0,6)",36,0,463,__ZN11MobKeyboard9setupKeysEv
	.stabs	"this:P(0,90)",64,0,463,6
	.global	__ZN11MobKeyboard9setupKeysEv

.func __ZN11MobKeyboard9setupKeysEv, 1, void
	.stabs	"E:\\My Dropbox\\workspace\\GameCards\\MobidexANC\\UI\\MobKeyboard.cpp",132,0,0,Ltext127
Ltext127:
	.line 463
	push rt,d7
	sub  sp,#0x454
	ld   fr,sp
	add  fr,#0x47c
	ld   d2,i0
	.dlab LBB459
	.dlab LBB460
	.line 470
	ld   d4,fr
	add  d4,#0xffffffd4
	ld   i0,d4
	ld   i1,#LC10
	call &__ZN6MAUtil11BasicStringIcEC1EPKc ; call non-native
	ld   i0,#0xffffffd0
	add  i0,fr
	ld   i1,#LC11
	call &__ZN6MAUtil11BasicStringIcEC1EPKc ; call non-native
	ld   i0,#0x10
	call &__Znwm ; call non-native
	ld   [fr,-1108],r14
	.dlab LBB461
	.dlab LBB462
	.stabs	"E:\\My Dropbox\\workspace\\GameCards\\MobidexANC\\UI\\/MobKeyboard.h",132,0,0,Ltext128
Ltext128:
	.line 137
	ld   i0,r14
	call &__ZN6MAUtil11BasicStringIcEC1Ev ; call non-native
	ld   d0,[fr,-1108]
	add  d0,#0x4
	ld   i0,d0
	call &__ZN6MAUtil11BasicStringIcEC1Ev ; call non-native
	.line 138
	ld   i0,[fr,-1108]
	ld   i1,d4
	call &__ZN6MAUtil11BasicStringIcEaSERKS1_ ; call non-native
	.line 139
	ld   i0,d0
	ld   i1,#0xffffffd0
	add  i1,fr
	call &__ZN6MAUtil11BasicStringIcEaSERKS1_ ; call non-native
	.line 140
	ld   r14,#0x0
	ld   r0,[fr,-1108]
	ld   [r0,8],r14
	.line 141
	ld   i0,#0xc
	call &__Znwm ; call non-native
	ld   d0,r14
	.dlab LBB463
	.dlab LBB464
	.stabs	"c:/MoSync/include/MAUtil/Vector.h",132,0,0,Ltext129
Ltext129:
	.line 109
	ld   i0,#0x10
	call &__Znam ; call non-native
	ld   [d0,8],r14
	.line 111
	ld   r0,#0x4
	ld   [d0,4],r0
	.line 113
	ld   r14,#0x0
	ld   [d0],r14
	.dlab LBE464
	.dlab LBE463
	ld   r0,[fr,-1108]
	ld   [r0,12],d0
	.dlab LBE462
	.dlab LBE461
	ld   i0,#0xffffffd0
	add  i0,fr
	call &__ZN6MAUtil11BasicStringIcED1Ev ; call non-native
	ld   i0,d4
	call &__ZN6MAUtil11BasicStringIcED1Ev ; call non-native
	.stabs	"E:\\My Dropbox\\workspace\\GameCards\\MobidexANC\\UI\\MobKeyboard.cpp",132,0,0,Ltext130
Ltext130:
	.line 472
	ld   i0,#0xffffffa8
	add  i0,fr
	ld   i1,#LC12
	call &__ZN6MAUtil11BasicStringIcEC1EPKc ; call non-native
	ld   i0,fr
	add  i0,#0xffffffac
	ld   i1,#LC13
	call &__ZN6MAUtil11BasicStringIcEC1EPKc ; call non-native
	ld   i0,fr
	add  i0,#0xffffffb0
	ld   i1,#LC14
	call &__ZN6MAUtil11BasicStringIcEC1EPKc ; call non-native
	ld   i0,fr
	add  i0,#0xffffffb4
	ld   i1,#LC15
	call &__ZN6MAUtil11BasicStringIcEC1EPKc ; call non-native
	ld   i0,fr
	add  i0,#0xffffffb8
	ld   i1,#LC16
	call &__ZN6MAUtil11BasicStringIcEC1EPKc ; call non-native
	ld   i0,fr
	add  i0,#0xffffffbc
	ld   i1,#LC17
	call &__ZN6MAUtil11BasicStringIcEC1EPKc ; call non-native
	ld   i0,fr
	add  i0,#0xffffffc0
	ld   i1,#LC18
	call &__ZN6MAUtil11BasicStringIcEC1EPKc ; call non-native
	ld   i0,fr
	add  i0,#0xffffffc4
	ld   i1,#LC19
	call &__ZN6MAUtil11BasicStringIcEC1EPKc ; call non-native
	ld   i0,fr
	add  i0,#0xffffffc8
	ld   i1,#LC20
	call &__ZN6MAUtil11BasicStringIcEC1EPKc ; call non-native
	ld   i0,fr
	add  i0,#0xffffffcc
	ld   i1,#LC21
	call &__ZN6MAUtil11BasicStringIcEC1EPKc ; call non-native
	.line 473
	ld   i0,#0xffffff84
	add  i0,fr
	ld   i1,#LC22
	call &__ZN6MAUtil11BasicStringIcEC1EPKc ; call non-native
	ld   i0,fr
	add  i0,#0xffffff88
	ld   i1,#LC23
	call &__ZN6MAUtil11BasicStringIcEC1EPKc ; call non-native
	ld   i0,fr
	add  i0,#0xffffff8c
	ld   i1,#LC24
	call &__ZN6MAUtil11BasicStringIcEC1EPKc ; call non-native
	ld   i0,fr
	add  i0,#0xffffff90
	ld   i1,#LC25
	call &__ZN6MAUtil11BasicStringIcEC1EPKc ; call non-native
	ld   i0,fr
	add  i0,#0xffffff94
	ld   i1,#LC26
	call &__ZN6MAUtil11BasicStringIcEC1EPKc ; call non-native
	ld   i0,fr
	add  i0,#0xffffff98
	ld   i1,#LC27
	call &__ZN6MAUtil11BasicStringIcEC1EPKc ; call non-native
	ld   i0,fr
	add  i0,#0xffffff9c
	ld   i1,#LC28
	call &__ZN6MAUtil11BasicStringIcEC1EPKc ; call non-native
	ld   i0,fr
	add  i0,#0xffffffa0
	ld   i1,#LC29
	call &__ZN6MAUtil11BasicStringIcEC1EPKc ; call non-native
	ld   i0,fr
	add  i0,#0xffffffa4
	ld   i1,#LC30
	call &__ZN6MAUtil11BasicStringIcEC1EPKc ; call non-native
	.line 474
	ld   i0,#0xffffff60
	add  i0,fr
	ld   i1,#LC1
	call &__ZN6MAUtil11BasicStringIcEC1EPKc ; call non-native
	ld   i0,fr
	add  i0,#0xffffff64
	ld   i1,#LC31
	call &__ZN6MAUtil11BasicStringIcEC1EPKc ; call non-native
	ld   i0,fr
	add  i0,#0xffffff68
	ld   i1,#LC32
	call &__ZN6MAUtil11BasicStringIcEC1EPKc ; call non-native
	ld   i0,fr
	add  i0,#0xffffff6c
	ld   i1,#LC33
	call &__ZN6MAUtil11BasicStringIcEC1EPKc ; call non-native
	ld   i0,fr
	add  i0,#0xffffff70
	ld   i1,#LC34
	call &__ZN6MAUtil11BasicStringIcEC1EPKc ; call non-native
	ld   i0,fr
	add  i0,#0xffffff74
	ld   i1,#LC35
	call &__ZN6MAUtil11BasicStringIcEC1EPKc ; call non-native
	ld   i0,fr
	add  i0,#0xffffff78
	ld   i1,#LC36
	call &__ZN6MAUtil11BasicStringIcEC1EPKc ; call non-native
	ld   i0,fr
	add  i0,#0xffffff7c
	ld   i1,#LC37
	call &__ZN6MAUtil11BasicStringIcEC1EPKc ; call non-native
	ld   i0,fr
	add  i0,#0xffffff80
	ld   i1,#LC3
	call &__ZN6MAUtil11BasicStringIcEC1EPKc ; call non-native
	.line 475
	ld   i0,#0xffffff4c
	add  i0,fr
	ld   i1,#LC4
	call &__ZN6MAUtil11BasicStringIcEC1EPKc ; call non-native
	ld   i0,fr
	add  i0,#0xffffff50
	ld   i1,#LC5
	call &__ZN6MAUtil11BasicStringIcEC1EPKc ; call non-native
	ld   i0,fr
	add  i0,#0xffffff54
	ld   i1,#LC6
	call &__ZN6MAUtil11BasicStringIcEC1EPKc ; call non-native
	ld   i0,fr
	add  i0,#0xffffff58
	ld   i1,#LC2
	call &__ZN6MAUtil11BasicStringIcEC1EPKc ; call non-native
	ld   i0,fr
	add  i0,#0xffffff5c
	ld   i1,#LC8
	call &__ZN6MAUtil11BasicStringIcEC1EPKc ; call non-native
	.line 477
	ld   r14,#0xffffffa8
	add  r14,fr
	ld   [sp],r14
	ld   r0,#0x15
	ld   [sp,4],r0
	ld   r14,#0x19
	ld   [sp,8],r14
	ld   r0,#0x5
	ld   [sp,12],r0
	ld   [sp,16],r0
	ld   i0,d2
	ld   i1,[fr,-1108]
	ld   i2,#0xa
	ld   i3,i2
	call &__ZN11MobKeyboard13addButtonLineEP17MobKeyboardLayoutiiPN6MAUtil11BasicStringIcEEiiii ; call non-native
	.line 478
	ld   r14,#0xffffff84
	add  r14,fr
	ld   [sp],r14
	ld   r0,#0x15
	ld   [sp,4],r0
	ld   r14,#0x19
	ld   [sp,8],r14
	ld   r0,#0xa
	ld   [sp,12],r0
	ld   [sp,16],r0
	ld   i0,d2
	ld   i1,[fr,-1108]
	ld   i2,#0x28
	ld   i3,#0x9
	call &__ZN11MobKeyboard13addButtonLineEP17MobKeyboardLayoutiiPN6MAUtil11BasicStringIcEEiiii ; call non-native
	.line 479
	ld   r14,#0xffffff60
	add  r14,fr
	ld   [sp],r14
	ld   r0,#0x15
	ld   [sp,4],r0
	ld   r14,#0x19
	ld   [sp,8],r14
	ld   r0,#0x5
	ld   [sp,12],r0
	ld   [sp,16],r0
	ld   i0,d2
	ld   i1,[fr,-1108]
	ld   i2,#0x46
	ld   i3,#0x9
	call &__ZN11MobKeyboard13addButtonLineEP17MobKeyboardLayoutiiPN6MAUtil11BasicStringIcEEiiii ; call non-native
	.line 480
	ld   r14,#0xffffff4c
	add  r14,fr
	ld   [sp],r14
	ld   r0,#0x15
	ld   [sp,4],r0
	ld   r14,#0x19
	ld   [sp,8],r14
	ld   r0,#0x5
	ld   [sp,12],r0
	ld   [sp,16],r0
	ld   i0,d2
	ld   i1,[fr,-1108]
	ld   i2,#0x64
	ld   i3,r0
	call &__ZN11MobKeyboard13addButtonLineEP17MobKeyboardLayoutiiPN6MAUtil11BasicStringIcEEiiii ; call non-native
	.line 485
	ld   i0,#0xffffffd0
	add  i0,fr
	ld   i1,#LC38
	call &__ZN6MAUtil11BasicStringIcEC1EPKc ; call non-native
	ld   i0,d4
	ld   i1,#LC11
	call &__ZN6MAUtil11BasicStringIcEC1EPKc ; call non-native
	ld   i0,#0x10
	call &__Znwm ; call non-native
	ld   [fr,-1112],r14
	.dlab LBB465
	.dlab LBB466
	.stabs	"E:\\My Dropbox\\workspace\\GameCards\\MobidexANC\\UI\\/MobKeyboard.h",132,0,0,Ltext131
Ltext131:
	.line 137
	ld   i0,r14
	call &__ZN6MAUtil11BasicStringIcEC1Ev ; call non-native
	ld   d0,[fr,-1112]
	add  d0,#0x4
	ld   i0,d0
	call &__ZN6MAUtil11BasicStringIcEC1Ev ; call non-native
	.line 138
	ld   i0,[fr,-1112]
	ld   i1,#0xffffffd0
	add  i1,fr
	call &__ZN6MAUtil11BasicStringIcEaSERKS1_ ; call non-native
	.line 139
	ld   i0,d0
	ld   i1,d4
	call &__ZN6MAUtil11BasicStringIcEaSERKS1_ ; call non-native
	.line 140
	ld   r0,#0x1
	ld   r14,[fr,-1112]
	ld   [r14,8],r0
	.line 141
	ld   i0,#0xc
	call &__Znwm ; call non-native
	ld   d0,r14
	.dlab LBB467
	.dlab LBB468
	.stabs	"c:/MoSync/include/MAUtil/Vector.h",132,0,0,Ltext132
Ltext132:
	.line 109
	ld   i0,#0x10
	call &__Znam ; call non-native
	ld   [d0,8],r14
	.line 111
	ld   r14,#0x4
	ld   [d0,4],r14
	.line 113
	ld   r0,#0x0
	ld   [d0],r0
	.dlab LBE468
	.dlab LBE467
	ld   r14,[fr,-1112]
	ld   [r14,12],d0
	.dlab LBE466
	.dlab LBE465
	ld   i0,d4
	call &__ZN6MAUtil11BasicStringIcED1Ev ; call non-native
	ld   i0,#0xffffffd0
	add  i0,fr
	call &__ZN6MAUtil11BasicStringIcED1Ev ; call non-native
	.stabs	"E:\\My Dropbox\\workspace\\GameCards\\MobidexANC\\UI\\MobKeyboard.cpp",132,0,0,Ltext133
Ltext133:
	.line 487
	ld   i0,#0xffffff24
	add  i0,fr
	ld   i1,#LC39
	call &__ZN6MAUtil11BasicStringIcEC1EPKc ; call non-native
	ld   i0,fr
	add  i0,#0xffffff28
	ld   i1,#LC40
	call &__ZN6MAUtil11BasicStringIcEC1EPKc ; call non-native
	ld   i0,fr
	add  i0,#0xffffff2c
	ld   i1,#LC41
	call &__ZN6MAUtil11BasicStringIcEC1EPKc ; call non-native
	ld   i0,fr
	add  i0,#0xffffff30
	ld   i1,#LC42
	call &__ZN6MAUtil11BasicStringIcEC1EPKc ; call non-native
	ld   i0,fr
	add  i0,#0xffffff34
	ld   i1,#LC43
	call &__ZN6MAUtil11BasicStringIcEC1EPKc ; call non-native
	ld   i0,fr
	add  i0,#0xffffff38
	ld   i1,#LC44
	call &__ZN6MAUtil11BasicStringIcEC1EPKc ; call non-native
	ld   i0,fr
	add  i0,#0xffffff3c
	ld   i1,#LC45
	call &__ZN6MAUtil11BasicStringIcEC1EPKc ; call non-native
	ld   i0,fr
	add  i0,#0xffffff40
	ld   i1,#LC46
	call &__ZN6MAUtil11BasicStringIcEC1EPKc ; call non-native
	ld   i0,fr
	add  i0,#0xffffff44
	ld   i1,#LC47
	call &__ZN6MAUtil11BasicStringIcEC1EPKc ; call non-native
	ld   i0,fr
	add  i0,#0xffffff48
	ld   i1,#LC48
	call &__ZN6MAUtil11BasicStringIcEC1EPKc ; call non-native
	.line 488
	ld   i0,#0xffffff00
	add  i0,fr
	ld   i1,#LC49
	call &__ZN6MAUtil11BasicStringIcEC1EPKc ; call non-native
	ld   i0,fr
	add  i0,#0xffffff04
	ld   i1,#LC50
	call &__ZN6MAUtil11BasicStringIcEC1EPKc ; call non-native
	ld   i0,fr
	add  i0,#0xffffff08
	ld   i1,#LC51
	call &__ZN6MAUtil11BasicStringIcEC1EPKc ; call non-native
	ld   i0,fr
	add  i0,#0xffffff0c
	ld   i1,#LC52
	call &__ZN6MAUtil11BasicStringIcEC1EPKc ; call non-native
	ld   i0,fr
	add  i0,#0xffffff10
	ld   i1,#LC53
	call &__ZN6MAUtil11BasicStringIcEC1EPKc ; call non-native
	ld   i0,fr
	add  i0,#0xffffff14
	ld   i1,#LC54
	call &__ZN6MAUtil11BasicStringIcEC1EPKc ; call non-native
	ld   i0,fr
	add  i0,#0xffffff18
	ld   i1,#LC55
	call &__ZN6MAUtil11BasicStringIcEC1EPKc ; call non-native
	ld   i0,fr
	add  i0,#0xffffff1c
	ld   i1,#LC56
	call &__ZN6MAUtil11BasicStringIcEC1EPKc ; call non-native
	ld   i0,fr
	add  i0,#0xffffff20
	ld   i1,#LC57
	call &__ZN6MAUtil11BasicStringIcEC1EPKc ; call non-native
	.line 489
	ld   i0,#0xfffffedc
	add  i0,fr
	ld   i1,#LC1
	call &__ZN6MAUtil11BasicStringIcEC1EPKc ; call non-native
	ld   i0,fr
	add  i0,#0xfffffee0
	ld   i1,#LC58
	call &__ZN6MAUtil11BasicStringIcEC1EPKc ; call non-native
	ld   i0,fr
	add  i0,#0xfffffee4
	ld   i1,#LC59
	call &__ZN6MAUtil11BasicStringIcEC1EPKc ; call non-native
	ld   i0,fr
	add  i0,#0xfffffee8
	ld   i1,#LC60
	call &__ZN6MAUtil11BasicStringIcEC1EPKc ; call non-native
	ld   i0,fr
	add  i0,#0xfffffeec
	ld   i1,#LC61
	call &__ZN6MAUtil11BasicStringIcEC1EPKc ; call non-native
	ld   i0,fr
	add  i0,#0xfffffef0
	ld   i1,#LC62
	call &__ZN6MAUtil11BasicStringIcEC1EPKc ; call non-native
	ld   i0,fr
	add  i0,#0xfffffef4
	ld   i1,#LC63
	call &__ZN6MAUtil11BasicStringIcEC1EPKc ; call non-native
	ld   i0,fr
	add  i0,#0xfffffef8
	ld   i1,#LC64
	call &__ZN6MAUtil11BasicStringIcEC1EPKc ; call non-native
	ld   i0,fr
	add  i0,#0xfffffefc
	ld   i1,#LC3
	call &__ZN6MAUtil11BasicStringIcEC1EPKc ; call non-native
	.line 490
	ld   i0,#0xfffffec8
	add  i0,fr
	ld   i1,#LC4
	call &__ZN6MAUtil11BasicStringIcEC1EPKc ; call non-native
	ld   i0,fr
	add  i0,#0xfffffecc
	ld   i1,#LC5
	call &__ZN6MAUtil11BasicStringIcEC1EPKc ; call non-native
	ld   i0,fr
	add  i0,#0xfffffed0
	ld   i1,#LC6
	call &__ZN6MAUtil11BasicStringIcEC1EPKc ; call non-native
	ld   i0,fr
	add  i0,#0xfffffed4
	ld   i1,#LC2
	call &__ZN6MAUtil11BasicStringIcEC1EPKc ; call non-native
	ld   i0,fr
	add  i0,#0xfffffed8
	ld   i1,#LC8
	call &__ZN6MAUtil11BasicStringIcEC1EPKc ; call non-native
	.line 492
	ld   r0,#0xffffff24
	add  r0,fr
	ld   [sp],r0
	ld   r14,#0x15
	ld   [sp,4],r14
	ld   r0,#0x19
	ld   [sp,8],r0
	ld   r14,#0x5
	ld   [sp,12],r14
	ld   [sp,16],r14
	ld   i0,d2
	ld   i1,[fr,-1112]
	ld   i2,#0xa
	ld   i3,i2
	call &__ZN11MobKeyboard13addButtonLineEP17MobKeyboardLayoutiiPN6MAUtil11BasicStringIcEEiiii ; call non-native
	.line 493
	ld   r0,#0xffffff00
	add  r0,fr
	ld   [sp],r0
	ld   r14,#0x15
	ld   [sp,4],r14
	ld   r0,#0x19
	ld   [sp,8],r0
	ld   r14,#0xa
	ld   [sp,12],r14
	ld   [sp,16],r14
	ld   i0,d2
	ld   i1,[fr,-1112]
	ld   i2,#0x28
	ld   i3,#0x9
	call &__ZN11MobKeyboard13addButtonLineEP17MobKeyboardLayoutiiPN6MAUtil11BasicStringIcEEiiii ; call non-native
	.line 494
	ld   r0,#0xfffffedc
	add  r0,fr
	ld   [sp],r0
	ld   r14,#0x15
	ld   [sp,4],r14
	ld   r0,#0x19
	ld   [sp,8],r0
	ld   r14,#0x5
	ld   [sp,12],r14
	ld   [sp,16],r14
	ld   i0,d2
	ld   i1,[fr,-1112]
	ld   i2,#0x46
	ld   i3,#0x9
	call &__ZN11MobKeyboard13addButtonLineEP17MobKeyboardLayoutiiPN6MAUtil11BasicStringIcEEiiii ; call non-native
	.line 495
	ld   r0,#0xfffffec8
	add  r0,fr
	ld   [sp],r0
	ld   r14,#0x15
	ld   [sp,4],r14
	ld   r0,#0x19
	ld   [sp,8],r0
	ld   r14,#0x5
	ld   [sp,12],r14
	ld   [sp,16],r14
	ld   i0,d2
	ld   i1,[fr,-1112]
	ld   i2,#0x64
	ld   i3,r14
	call &__ZN11MobKeyboard13addButtonLineEP17MobKeyboardLayoutiiPN6MAUtil11BasicStringIcEEiiii ; call non-native
	.line 500
	ld   i0,#0xffffffd0
	add  i0,fr
	ld   i1,#LC65
	call &__ZN6MAUtil11BasicStringIcEC1EPKc ; call non-native
	ld   i0,d4
	ld   i1,#LC11
	call &__ZN6MAUtil11BasicStringIcEC1EPKc ; call non-native
	ld   i0,#0x10
	call &__Znwm ; call non-native
	ld   [fr,-1116],r14
	.dlab LBB469
	.dlab LBB470
	.stabs	"E:\\My Dropbox\\workspace\\GameCards\\MobidexANC\\UI\\/MobKeyboard.h",132,0,0,Ltext134
Ltext134:
	.line 137
	ld   i0,r14
	call &__ZN6MAUtil11BasicStringIcEC1Ev ; call non-native
	ld   d0,[fr,-1116]
	add  d0,#0x4
	ld   i0,d0
	call &__ZN6MAUtil11BasicStringIcEC1Ev ; call non-native
	.line 138
	ld   i0,[fr,-1116]
	ld   i1,#0xffffffd0
	add  i1,fr
	call &__ZN6MAUtil11BasicStringIcEaSERKS1_ ; call non-native
	.line 139
	ld   i0,d0
	ld   i1,d4
	call &__ZN6MAUtil11BasicStringIcEaSERKS1_ ; call non-native
	.line 140
	ld   r14,#0x2
	ld   r0,[fr,-1116]
	ld   [r0,8],r14
	.line 141
	ld   i0,#0xc
	call &__Znwm ; call non-native
	ld   d0,r14
	.dlab LBB471
	.dlab LBB472
	.stabs	"c:/MoSync/include/MAUtil/Vector.h",132,0,0,Ltext135
Ltext135:
	.line 109
	ld   i0,#0x10
	call &__Znam ; call non-native
	ld   [d0,8],r14
	.line 111
	ld   r0,#0x4
	ld   [d0,4],r0
	.line 113
	ld   r14,#0x0
	ld   [d0],r14
	.dlab LBE472
	.dlab LBE471
	ld   r0,[fr,-1116]
	ld   [r0,12],d0
	.dlab LBE470
	.dlab LBE469
	ld   i0,d4
	call &__ZN6MAUtil11BasicStringIcED1Ev ; call non-native
	ld   i0,#0xffffffd0
	add  i0,fr
	call &__ZN6MAUtil11BasicStringIcED1Ev ; call non-native
	.stabs	"E:\\My Dropbox\\workspace\\GameCards\\MobidexANC\\UI\\MobKeyboard.cpp",132,0,0,Ltext136
Ltext136:
	.line 502
	ld   i0,#0xfffffea0
	add  i0,fr
	ld   i1,#LC66
	call &__ZN6MAUtil11BasicStringIcEC1EPKc ; call non-native
	ld   i0,fr
	add  i0,#0xfffffea4
	ld   i1,#LC67
	call &__ZN6MAUtil11BasicStringIcEC1EPKc ; call non-native
	ld   i0,fr
	add  i0,#0xfffffea8
	ld   i1,#LC68
	call &__ZN6MAUtil11BasicStringIcEC1EPKc ; call non-native
	ld   i0,fr
	add  i0,#0xfffffeac
	ld   i1,#LC69
	call &__ZN6MAUtil11BasicStringIcEC1EPKc ; call non-native
	ld   i0,fr
	add  i0,#0xfffffeb0
	ld   i1,#LC70
	call &__ZN6MAUtil11BasicStringIcEC1EPKc ; call non-native
	ld   i0,fr
	add  i0,#0xfffffeb4
	ld   i1,#LC71
	call &__ZN6MAUtil11BasicStringIcEC1EPKc ; call non-native
	ld   i0,fr
	add  i0,#0xfffffeb8
	ld   i1,#LC72
	call &__ZN6MAUtil11BasicStringIcEC1EPKc ; call non-native
	ld   i0,fr
	add  i0,#0xfffffebc
	ld   i1,#LC73
	call &__ZN6MAUtil11BasicStringIcEC1EPKc ; call non-native
	ld   i0,fr
	add  i0,#0xfffffec0
	ld   i1,#LC74
	call &__ZN6MAUtil11BasicStringIcEC1EPKc ; call non-native
	ld   i0,fr
	add  i0,#0xfffffec4
	ld   i1,#LC75
	call &__ZN6MAUtil11BasicStringIcEC1EPKc ; call non-native
	.line 503
	ld   i0,#0xfffffe7c
	add  i0,fr
	ld   i1,#LC76
	call &__ZN6MAUtil11BasicStringIcEC1EPKc ; call non-native
	ld   i0,fr
	add  i0,#0xfffffe80
	ld   i1,#LC77
	call &__ZN6MAUtil11BasicStringIcEC1EPKc ; call non-native
	ld   i0,fr
	add  i0,#0xfffffe84
	ld   i1,#LC78
	call &__ZN6MAUtil11BasicStringIcEC1EPKc ; call non-native
	ld   i0,fr
	add  i0,#0xfffffe88
	ld   i1,#LC79
	call &__ZN6MAUtil11BasicStringIcEC1EPKc ; call non-native
	ld   i0,fr
	add  i0,#0xfffffe8c
	ld   i1,#LC80
	call &__ZN6MAUtil11BasicStringIcEC1EPKc ; call non-native
	ld   i0,fr
	add  i0,#0xfffffe90
	ld   i1,#LC81
	call &__ZN6MAUtil11BasicStringIcEC1EPKc ; call non-native
	ld   i0,fr
	add  i0,#0xfffffe94
	ld   i1,#LC82
	call &__ZN6MAUtil11BasicStringIcEC1EPKc ; call non-native
	ld   i0,fr
	add  i0,#0xfffffe98
	ld   i1,#LC83
	call &__ZN6MAUtil11BasicStringIcEC1EPKc ; call non-native
	ld   i0,fr
	add  i0,#0xfffffe9c
	ld   i1,#LC84
	call &__ZN6MAUtil11BasicStringIcEC1EPKc ; call non-native
	.line 504
	ld   i0,#0xfffffe58
	add  i0,fr
	ld   i1,#LC1
	call &__ZN6MAUtil11BasicStringIcEC1EPKc ; call non-native
	ld   i0,fr
	add  i0,#0xfffffe5c
	ld   i1,#LC85
	call &__ZN6MAUtil11BasicStringIcEC1EPKc ; call non-native
	ld   i0,fr
	add  i0,#0xfffffe60
	ld   i1,#LC86
	call &__ZN6MAUtil11BasicStringIcEC1EPKc ; call non-native
	ld   i0,fr
	add  i0,#0xfffffe64
	ld   i1,#LC87
	call &__ZN6MAUtil11BasicStringIcEC1EPKc ; call non-native
	ld   i0,fr
	add  i0,#0xfffffe68
	ld   i1,#LC88
	call &__ZN6MAUtil11BasicStringIcEC1EPKc ; call non-native
	ld   i0,fr
	add  i0,#0xfffffe6c
	ld   i1,#LC89
	call &__ZN6MAUtil11BasicStringIcEC1EPKc ; call non-native
	ld   i0,fr
	add  i0,#0xfffffe70
	ld   i1,#LC90
	call &__ZN6MAUtil11BasicStringIcEC1EPKc ; call non-native
	ld   i0,fr
	add  i0,#0xfffffe74
	ld   i1,#LC91
	call &__ZN6MAUtil11BasicStringIcEC1EPKc ; call non-native
	ld   i0,fr
	add  i0,#0xfffffe78
	ld   i1,#LC3
	call &__ZN6MAUtil11BasicStringIcEC1EPKc ; call non-native
	.line 505
	ld   i0,#0xfffffe44
	add  i0,fr
	ld   i1,#LC4
	call &__ZN6MAUtil11BasicStringIcEC1EPKc ; call non-native
	ld   i0,fr
	add  i0,#0xfffffe48
	ld   i1,#LC5
	call &__ZN6MAUtil11BasicStringIcEC1EPKc ; call non-native
	ld   i0,fr
	add  i0,#0xfffffe4c
	ld   i1,#LC6
	call &__ZN6MAUtil11BasicStringIcEC1EPKc ; call non-native
	ld   i0,fr
	add  i0,#0xfffffe50
	ld   i1,#LC2
	call &__ZN6MAUtil11BasicStringIcEC1EPKc ; call non-native
	ld   i0,fr
	add  i0,#0xfffffe54
	ld   i1,#LC8
	call &__ZN6MAUtil11BasicStringIcEC1EPKc ; call non-native
	.line 507
	ld   r14,#0xfffffea0
	add  r14,fr
	ld   [sp],r14
	ld   r0,#0x15
	ld   [sp,4],r0
	ld   r14,#0x19
	ld   [sp,8],r14
	ld   r0,#0x5
	ld   [sp,12],r0
	ld   [sp,16],r0
	ld   i0,d2
	ld   i1,[fr,-1116]
	ld   i2,#0xa
	ld   i3,i2
	call &__ZN11MobKeyboard13addButtonLineEP17MobKeyboardLayoutiiPN6MAUtil11BasicStringIcEEiiii ; call non-native
	.line 508
	ld   r14,#0xfffffe7c
	add  r14,fr
	ld   [sp],r14
	ld   r0,#0x15
	ld   [sp,4],r0
	ld   r14,#0x19
	ld   [sp,8],r14
	ld   r0,#0xa
	ld   [sp,12],r0
	ld   [sp,16],r0
	ld   i0,d2
	ld   i1,[fr,-1116]
	ld   i2,#0x28
	ld   i3,#0x9
	call &__ZN11MobKeyboard13addButtonLineEP17MobKeyboardLayoutiiPN6MAUtil11BasicStringIcEEiiii ; call non-native
	.line 509
	ld   r14,#0xfffffe58
	add  r14,fr
	ld   [sp],r14
	ld   r0,#0x15
	ld   [sp,4],r0
	ld   r14,#0x19
	ld   [sp,8],r14
	ld   r0,#0x5
	ld   [sp,12],r0
	ld   [sp,16],r0
	ld   i0,d2
	ld   i1,[fr,-1116]
	ld   i2,#0x46
	ld   i3,#0x9
	call &__ZN11MobKeyboard13addButtonLineEP17MobKeyboardLayoutiiPN6MAUtil11BasicStringIcEEiiii ; call non-native
	.line 510
	ld   r14,#0xfffffe44
	add  r14,fr
	ld   [sp],r14
	ld   r0,#0x15
	ld   [sp,4],r0
	ld   r14,#0x19
	ld   [sp,8],r14
	ld   r0,#0x5
	ld   [sp,12],r0
	ld   [sp,16],r0
	ld   i0,d2
	ld   i1,[fr,-1116]
	ld   i2,#0x64
	ld   i3,r0
	call &__ZN11MobKeyboard13addButtonLineEP17MobKeyboardLayoutiiPN6MAUtil11BasicStringIcEEiiii ; call non-native
	.line 514
	ld   i0,#0xffffffd0
	add  i0,fr
	ld   i1,#LC92
	call &__ZN6MAUtil11BasicStringIcEC1EPKc ; call non-native
	ld   i0,d4
	ld   i1,#LC11
	call &__ZN6MAUtil11BasicStringIcEC1EPKc ; call non-native
	ld   i0,#0x10
	call &__Znwm ; call non-native
	ld   [fr,-1120],r14
	.dlab LBB473
	.dlab LBB474
	.stabs	"E:\\My Dropbox\\workspace\\GameCards\\MobidexANC\\UI\\/MobKeyboard.h",132,0,0,Ltext137
Ltext137:
	.line 137
	ld   i0,r14
	call &__ZN6MAUtil11BasicStringIcEC1Ev ; call non-native
	ld   d0,[fr,-1120]
	add  d0,#0x4
	ld   i0,d0
	call &__ZN6MAUtil11BasicStringIcEC1Ev ; call non-native
	.line 138
	ld   i0,[fr,-1120]
	ld   i1,#0xffffffd0
	add  i1,fr
	call &__ZN6MAUtil11BasicStringIcEaSERKS1_ ; call non-native
	.line 139
	ld   i0,d0
	ld   i1,d4
	call &__ZN6MAUtil11BasicStringIcEaSERKS1_ ; call non-native
	.line 140
	ld   r0,#0x3
	ld   r14,[fr,-1120]
	ld   [r14,8],r0
	.line 141
	ld   i0,#0xc
	call &__Znwm ; call non-native
	ld   d0,r14
	.dlab LBB475
	.dlab LBB476
	.stabs	"c:/MoSync/include/MAUtil/Vector.h",132,0,0,Ltext138
Ltext138:
	.line 109
	ld   i0,#0x10
	call &__Znam ; call non-native
	ld   [d0,8],r14
	.line 111
	ld   r14,#0x4
	ld   [d0,4],r14
	.line 113
	ld   r0,#0x0
	ld   [d0],r0
	.dlab LBE476
	.dlab LBE475
	ld   r14,[fr,-1120]
	ld   [r14,12],d0
	.dlab LBE474
	.dlab LBE473
	ld   i0,d4
	call &__ZN6MAUtil11BasicStringIcED1Ev ; call non-native
	ld   i0,#0xffffffd0
	add  i0,fr
	call &__ZN6MAUtil11BasicStringIcED1Ev ; call non-native
	.stabs	"E:\\My Dropbox\\workspace\\GameCards\\MobidexANC\\UI\\MobKeyboard.cpp",132,0,0,Ltext139
Ltext139:
	.line 516
	ld   i0,#0xfffffe1c
	add  i0,fr
	ld   i1,#LC93
	call &__ZN6MAUtil11BasicStringIcEC1EPKc ; call non-native
	ld   i0,fr
	add  i0,#0xfffffe20
	ld   i1,#LC94
	call &__ZN6MAUtil11BasicStringIcEC1EPKc ; call non-native
	ld   i0,fr
	add  i0,#0xfffffe24
	ld   i1,#LC95
	call &__ZN6MAUtil11BasicStringIcEC1EPKc ; call non-native
	ld   i0,fr
	add  i0,#0xfffffe28
	ld   i1,#LC96
	call &__ZN6MAUtil11BasicStringIcEC1EPKc ; call non-native
	ld   i0,fr
	add  i0,#0xfffffe2c
	ld   i1,#LC97
	call &__ZN6MAUtil11BasicStringIcEC1EPKc ; call non-native
	ld   i0,fr
	add  i0,#0xfffffe30
	ld   i1,#LC98
	call &__ZN6MAUtil11BasicStringIcEC1EPKc ; call non-native
	ld   i0,fr
	add  i0,#0xfffffe34
	ld   i1,#LC99
	call &__ZN6MAUtil11BasicStringIcEC1EPKc ; call non-native
	ld   i0,fr
	add  i0,#0xfffffe38
	ld   i1,#LC100
	call &__ZN6MAUtil11BasicStringIcEC1EPKc ; call non-native
	ld   i0,fr
	add  i0,#0xfffffe3c
	ld   i1,#LC101
	call &__ZN6MAUtil11BasicStringIcEC1EPKc ; call non-native
	ld   i0,fr
	add  i0,#0xfffffe40
	ld   i1,#LC102
	call &__ZN6MAUtil11BasicStringIcEC1EPKc ; call non-native
	.line 517
	ld   i0,#0xfffffdf8
	add  i0,fr
	ld   i1,#LC103
	call &__ZN6MAUtil11BasicStringIcEC1EPKc ; call non-native
	ld   i0,fr
	add  i0,#0xfffffdfc
	ld   i1,#LC104
	call &__ZN6MAUtil11BasicStringIcEC1EPKc ; call non-native
	ld   i0,fr
	add  i0,#0xfffffe00
	ld   i1,#LC105
	call &__ZN6MAUtil11BasicStringIcEC1EPKc ; call non-native
	ld   i0,fr
	add  i0,#0xfffffe04
	ld   i1,#LC106
	call &__ZN6MAUtil11BasicStringIcEC1EPKc ; call non-native
	ld   i0,fr
	add  i0,#0xfffffe08
	ld   i1,#LC107
	call &__ZN6MAUtil11BasicStringIcEC1EPKc ; call non-native
	ld   i0,fr
	add  i0,#0xfffffe0c
	ld   i1,#LC108
	call &__ZN6MAUtil11BasicStringIcEC1EPKc ; call non-native
	ld   i0,fr
	add  i0,#0xfffffe10
	ld   i1,#LC109
	call &__ZN6MAUtil11BasicStringIcEC1EPKc ; call non-native
	ld   i0,fr
	add  i0,#0xfffffe14
	ld   i1,#LC110
	call &__ZN6MAUtil11BasicStringIcEC1EPKc ; call non-native
	ld   i0,fr
	add  i0,#0xfffffe18
	ld   i1,#LC111
	call &__ZN6MAUtil11BasicStringIcEC1EPKc ; call non-native
	.line 518
	ld   i0,#0xfffffdd4
	add  i0,fr
	ld   i1,#LC1
	call &__ZN6MAUtil11BasicStringIcEC1EPKc ; call non-native
	ld   i0,fr
	add  i0,#0xfffffdd8
	ld   i1,#LC112
	call &__ZN6MAUtil11BasicStringIcEC1EPKc ; call non-native
	ld   i0,fr
	add  i0,#0xfffffddc
	ld   i1,#LC113
	call &__ZN6MAUtil11BasicStringIcEC1EPKc ; call non-native
	ld   i0,fr
	add  i0,#0xfffffde0
	ld   i1,#LC114
	call &__ZN6MAUtil11BasicStringIcEC1EPKc ; call non-native
	ld   i0,fr
	add  i0,#0xfffffde4
	ld   i1,#LC115
	call &__ZN6MAUtil11BasicStringIcEC1EPKc ; call non-native
	ld   i0,fr
	add  i0,#0xfffffde8
	ld   i1,#LC116
	call &__ZN6MAUtil11BasicStringIcEC1EPKc ; call non-native
	ld   i0,fr
	add  i0,#0xfffffdec
	ld   i1,#LC117
	call &__ZN6MAUtil11BasicStringIcEC1EPKc ; call non-native
	ld   i0,fr
	add  i0,#0xfffffdf0
	ld   i1,#LC118
	call &__ZN6MAUtil11BasicStringIcEC1EPKc ; call non-native
	ld   i0,fr
	add  i0,#0xfffffdf4
	ld   i1,#LC3
	call &__ZN6MAUtil11BasicStringIcEC1EPKc ; call non-native
	.line 519
	ld   i0,#0xfffffdc0
	add  i0,fr
	ld   i1,#LC4
	call &__ZN6MAUtil11BasicStringIcEC1EPKc ; call non-native
	ld   i0,fr
	add  i0,#0xfffffdc4
	ld   i1,#LC5
	call &__ZN6MAUtil11BasicStringIcEC1EPKc ; call non-native
	ld   i0,fr
	add  i0,#0xfffffdc8
	ld   i1,#LC6
	call &__ZN6MAUtil11BasicStringIcEC1EPKc ; call non-native
	ld   i0,fr
	add  i0,#0xfffffdcc
	ld   i1,#LC2
	call &__ZN6MAUtil11BasicStringIcEC1EPKc ; call non-native
	ld   i0,fr
	add  i0,#0xfffffdd0
	ld   i1,#LC8
	call &__ZN6MAUtil11BasicStringIcEC1EPKc ; call non-native
	.line 521
	ld   r0,#0xfffffe1c
	add  r0,fr
	ld   [sp],r0
	ld   r14,#0x15
	ld   [sp,4],r14
	ld   r0,#0x19
	ld   [sp,8],r0
	ld   r14,#0x5
	ld   [sp,12],r14
	ld   [sp,16],r14
	ld   i0,d2
	ld   i1,[fr,-1120]
	ld   i2,#0xa
	ld   i3,i2
	call &__ZN11MobKeyboard13addButtonLineEP17MobKeyboardLayoutiiPN6MAUtil11BasicStringIcEEiiii ; call non-native
	.line 522
	ld   r0,#0xfffffdf8
	add  r0,fr
	ld   [sp],r0
	ld   r14,#0x15
	ld   [sp,4],r14
	ld   r0,#0x19
	ld   [sp,8],r0
	ld   r14,#0xa
	ld   [sp,12],r14
	ld   [sp,16],r14
	ld   i0,d2
	ld   i1,[fr,-1120]
	ld   i2,#0x28
	ld   i3,#0x9
	call &__ZN11MobKeyboard13addButtonLineEP17MobKeyboardLayoutiiPN6MAUtil11BasicStringIcEEiiii ; call non-native
	.line 523
	ld   r0,#0xfffffdd4
	add  r0,fr
	ld   [sp],r0
	ld   r14,#0x15
	ld   [sp,4],r14
	ld   r0,#0x19
	ld   [sp,8],r0
	ld   r14,#0x5
	ld   [sp,12],r14
	ld   [sp,16],r14
	ld   i0,d2
	ld   i1,[fr,-1120]
	ld   i2,#0x46
	ld   i3,#0x9
	call &__ZN11MobKeyboard13addButtonLineEP17MobKeyboardLayoutiiPN6MAUtil11BasicStringIcEEiiii ; call non-native
	.line 524
	ld   r0,#0xfffffdc0
	add  r0,fr
	ld   [sp],r0
	ld   r14,#0x15
	ld   [sp,4],r14
	ld   r0,#0x19
	ld   [sp,8],r0
	ld   r14,#0x5
	ld   [sp,12],r14
	ld   [sp,16],r14
	ld   i0,d2
	ld   i1,[fr,-1120]
	ld   i2,#0x64
	ld   i3,r14
	call &__ZN11MobKeyboard13addButtonLineEP17MobKeyboardLayoutiiPN6MAUtil11BasicStringIcEEiiii ; call non-native
	.line 533
	ld   i0,#0xffffffd0
	add  i0,fr
	ld   i1,#LC119
	call &__ZN6MAUtil11BasicStringIcEC1EPKc ; call non-native
	ld   i0,d4
	ld   i1,#LC120
	call &__ZN6MAUtil11BasicStringIcEC1EPKc ; call non-native
	ld   i0,#0x10
	call &__Znwm ; call non-native
	ld   [fr,-1124],r14
	.dlab LBB477
	.dlab LBB478
	.stabs	"E:\\My Dropbox\\workspace\\GameCards\\MobidexANC\\UI\\/MobKeyboard.h",132,0,0,Ltext140
Ltext140:
	.line 137
	ld   i0,r14
	call &__ZN6MAUtil11BasicStringIcEC1Ev ; call non-native
	ld   d0,[fr,-1124]
	add  d0,#0x4
	ld   i0,d0
	call &__ZN6MAUtil11BasicStringIcEC1Ev ; call non-native
	.line 138
	ld   i0,[fr,-1124]
	ld   i1,#0xffffffd0
	add  i1,fr
	call &__ZN6MAUtil11BasicStringIcEaSERKS1_ ; call non-native
	.line 139
	ld   i0,d0
	ld   i1,d4
	call &__ZN6MAUtil11BasicStringIcEaSERKS1_ ; call non-native
	.line 140
	ld   r14,#0x0
	ld   r0,[fr,-1124]
	ld   [r0,8],r14
	.line 141
	ld   i0,#0xc
	call &__Znwm ; call non-native
	ld   d0,r14
	.dlab LBB479
	.dlab LBB480
	.stabs	"c:/MoSync/include/MAUtil/Vector.h",132,0,0,Ltext141
Ltext141:
	.line 109
	ld   i0,#0x10
	call &__Znam ; call non-native
	ld   [d0,8],r14
	.line 111
	ld   r0,#0x4
	ld   [d0,4],r0
	.line 113
	ld   r14,#0x0
	ld   [d0],r14
	.dlab LBE480
	.dlab LBE479
	ld   r0,[fr,-1124]
	ld   [r0,12],d0
	.dlab LBE478
	.dlab LBE477
	ld   i0,d4
	call &__ZN6MAUtil11BasicStringIcED1Ev ; call non-native
	ld   i0,#0xffffffd0
	add  i0,fr
	call &__ZN6MAUtil11BasicStringIcED1Ev ; call non-native
	.stabs	"E:\\My Dropbox\\workspace\\GameCards\\MobidexANC\\UI\\MobKeyboard.cpp",132,0,0,Ltext142
Ltext142:
	.line 535
	ld   i0,#0xfffffd98
	add  i0,fr
	ld   i1,#LC88
	call &__ZN6MAUtil11BasicStringIcEC1EPKc ; call non-native
	ld   i0,fr
	add  i0,#0xfffffd9c
	ld   i1,#LC121
	call &__ZN6MAUtil11BasicStringIcEC1EPKc ; call non-native
	ld   i0,fr
	add  i0,#0xfffffda0
	ld   i1,#LC122
	call &__ZN6MAUtil11BasicStringIcEC1EPKc ; call non-native
	ld   i0,fr
	add  i0,#0xfffffda4
	ld   i1,#LC123
	call &__ZN6MAUtil11BasicStringIcEC1EPKc ; call non-native
	ld   i0,fr
	add  i0,#0xfffffda8
	ld   i1,#LC124
	call &__ZN6MAUtil11BasicStringIcEC1EPKc ; call non-native
	ld   i0,fr
	add  i0,#0xfffffdac
	ld   i1,#LC125
	call &__ZN6MAUtil11BasicStringIcEC1EPKc ; call non-native
	ld   i0,fr
	add  i0,#0xfffffdb0
	ld   i1,#LC126
	call &__ZN6MAUtil11BasicStringIcEC1EPKc ; call non-native
	ld   i0,fr
	add  i0,#0xfffffdb4
	ld   i1,#LC127
	call &__ZN6MAUtil11BasicStringIcEC1EPKc ; call non-native
	ld   i0,fr
	add  i0,#0xfffffdb8
	ld   i1,#LC128
	call &__ZN6MAUtil11BasicStringIcEC1EPKc ; call non-native
	ld   i0,fr
	add  i0,#0xfffffdbc
	ld   i1,#LC129
	call &__ZN6MAUtil11BasicStringIcEC1EPKc ; call non-native
	.line 536
	ld   d1,fr
	add  d1,#0xfffffd74
	ld   i0,d1
	ld   i1,#LC130
	call &__ZN6MAUtil11BasicStringIcEC1EPKc ; call non-native
	ld   i0,fr
	add  i0,#0xfffffd78
	ld   i1,#LC131
	call &__ZN6MAUtil11BasicStringIcEC1EPKc ; call non-native
	ld   i0,fr
	add  i0,#0xfffffd7c
	ld   i1,#LC132
	call &__ZN6MAUtil11BasicStringIcEC1EPKc ; call non-native
	ld   i0,fr
	add  i0,#0xfffffd80
	ld   i1,#LC133
	call &__ZN6MAUtil11BasicStringIcEC1EPKc ; call non-native
	ld   i0,fr
	add  i0,#0xfffffd84
	ld   i1,#LC134
	call &__ZN6MAUtil11BasicStringIcEC1EPKc ; call non-native
	ld   i0,fr
	add  i0,#0xfffffd88
	ld   i1,#LC135
	call &__ZN6MAUtil11BasicStringIcEC1EPKc ; call non-native
	ld   i0,fr
	add  i0,#0xfffffd8c
	ld   i1,#LC136
	call &__ZN6MAUtil11BasicStringIcEC1EPKc ; call non-native
	ld   i0,fr
	add  i0,#0xfffffd90
	ld   i1,#LC137
	call &__ZN6MAUtil11BasicStringIcEC1EPKc ; call non-native
	ld   i0,fr
	add  i0,#0xfffffd94
	ld   i1,#LC138
	call &__ZN6MAUtil11BasicStringIcEC1EPKc ; call non-native
	.line 537
	ld   d0,fr
	add  d0,#0xfffffd50
	ld   i0,d0
	ld   i1,#LC1
	call &__ZN6MAUtil11BasicStringIcEC1EPKc ; call non-native
	ld   i0,fr
	add  i0,#0xfffffd54
	ld   i1,#LC139
	call &__ZN6MAUtil11BasicStringIcEC1EPKc ; call non-native
	ld   i0,fr
	add  i0,#0xfffffd58
	ld   i1,#LC140
	call &__ZN6MAUtil11BasicStringIcEC1EPKc ; call non-native
	ld   i0,fr
	add  i0,#0xfffffd5c
	ld   i1,#LC141
	call &__ZN6MAUtil11BasicStringIcEC1EPKc ; call non-native
	ld   i0,fr
	add  i0,#0xfffffd60
	ld   i1,#LC142
	call &__ZN6MAUtil11BasicStringIcEC1EPKc ; call non-native
	ld   i0,fr
	add  i0,#0xfffffd64
	ld   i1,#LC143
	call &__ZN6MAUtil11BasicStringIcEC1EPKc ; call non-native
	ld   i0,fr
	add  i0,#0xfffffd68
	ld   i1,#LC144
	call &__ZN6MAUtil11BasicStringIcEC1EPKc ; call non-native
	ld   i0,fr
	add  i0,#0xfffffd6c
	ld   i1,#LC145
	call &__ZN6MAUtil11BasicStringIcEC1EPKc ; call non-native
	ld   i0,fr
	add  i0,#0xfffffd70
	ld   i1,#LC3
	call &__ZN6MAUtil11BasicStringIcEC1EPKc ; call non-native
	.line 538
	ld   i0,#0xfffffd3c
	add  i0,fr
	ld   i1,#LC4
	call &__ZN6MAUtil11BasicStringIcEC1EPKc ; call non-native
	ld   i0,fr
	add  i0,#0xfffffd40
	ld   i1,#LC5
	call &__ZN6MAUtil11BasicStringIcEC1EPKc ; call non-native
	ld   i0,fr
	add  i0,#0xfffffd44
	ld   i1,#LC6
	call &__ZN6MAUtil11BasicStringIcEC1EPKc ; call non-native
	ld   i0,fr
	add  i0,#0xfffffd48
	ld   i1,#LC2
	call &__ZN6MAUtil11BasicStringIcEC1EPKc ; call non-native
	ld   i0,fr
	add  i0,#0xfffffd4c
	ld   i1,#LC8
	call &__ZN6MAUtil11BasicStringIcEC1EPKc ; call non-native
	.line 540
	ld   r14,#0xfffffd98
	add  r14,fr
	ld   [sp],r14
	ld   r0,#0x15
	ld   [sp,4],r0
	ld   r14,#0x19
	ld   [sp,8],r14
	ld   r0,#0x5
	ld   [sp,12],r0
	ld   [sp,16],r0
	ld   i0,d2
	ld   i1,[fr,-1124]
	ld   i2,#0xa
	ld   i3,i2
	call &__ZN11MobKeyboard13addButtonLineEP17MobKeyboardLayoutiiPN6MAUtil11BasicStringIcEEiiii ; call non-native
	.line 541
	ld   [sp],d1
	ld   r14,#0x15
	ld   [sp,4],r14
	ld   r0,#0x19
	ld   [sp,8],r0
	ld   r14,#0xa
	ld   [sp,12],r14
	ld   [sp,16],r14
	ld   i0,d2
	ld   i1,[fr,-1124]
	ld   i2,#0x28
	ld   i3,#0x9
	call &__ZN11MobKeyboard13addButtonLineEP17MobKeyboardLayoutiiPN6MAUtil11BasicStringIcEEiiii ; call non-native
	.line 542
	ld   [sp],d0
	ld   r0,#0x15
	ld   [sp,4],r0
	ld   r14,#0x19
	ld   [sp,8],r14
	ld   r0,#0x5
	ld   [sp,12],r0
	ld   [sp,16],r0
	ld   i0,d2
	ld   i1,[fr,-1124]
	ld   i2,#0x46
	ld   i3,#0x9
	call &__ZN11MobKeyboard13addButtonLineEP17MobKeyboardLayoutiiPN6MAUtil11BasicStringIcEEiiii ; call non-native
	.line 543
	ld   r14,#0xfffffd3c
	add  r14,fr
	ld   [sp],r14
	ld   r0,#0x15
	ld   [sp,4],r0
	ld   r14,#0x19
	ld   [sp,8],r14
	ld   r0,#0x5
	ld   [sp,12],r0
	ld   [sp,16],r0
	ld   i0,d2
	ld   i1,[fr,-1124]
	ld   i2,#0x64
	ld   i3,r0
	call &__ZN11MobKeyboard13addButtonLineEP17MobKeyboardLayoutiiPN6MAUtil11BasicStringIcEEiiii ; call non-native
	.line 548
	ld   i0,#0xffffffd0
	add  i0,fr
	ld   i1,#LC146
	call &__ZN6MAUtil11BasicStringIcEC1EPKc ; call non-native
	ld   i0,d4
	ld   i1,#LC120
	call &__ZN6MAUtil11BasicStringIcEC1EPKc ; call non-native
	ld   i0,#0x10
	call &__Znwm ; call non-native
	ld   [fr,-1128],r14
	.dlab LBB481
	.dlab LBB482
	.stabs	"E:\\My Dropbox\\workspace\\GameCards\\MobidexANC\\UI\\/MobKeyboard.h",132,0,0,Ltext143
Ltext143:
	.line 137
	ld   i0,r14
	call &__ZN6MAUtil11BasicStringIcEC1Ev ; call non-native
	ld   d0,[fr,-1128]
	add  d0,#0x4
	ld   i0,d0
	call &__ZN6MAUtil11BasicStringIcEC1Ev ; call non-native
	.line 138
	ld   i0,[fr,-1128]
	ld   i1,#0xffffffd0
	add  i1,fr
	call &__ZN6MAUtil11BasicStringIcEaSERKS1_ ; call non-native
	.line 139
	ld   i0,d0
	ld   i1,d4
	call &__ZN6MAUtil11BasicStringIcEaSERKS1_ ; call non-native
	.line 140
	ld   r0,#0x1
	ld   r14,[fr,-1128]
	ld   [r14,8],r0
	.line 141
	ld   i0,#0xc
	call &__Znwm ; call non-native
	ld   d0,r14
	.dlab LBB483
	.dlab LBB484
	.stabs	"c:/MoSync/include/MAUtil/Vector.h",132,0,0,Ltext144
Ltext144:
	.line 109
	ld   i0,#0x10
	call &__Znam ; call non-native
	ld   [d0,8],r14
	.line 111
	ld   r14,#0x4
	ld   [d0,4],r14
	.line 113
	ld   r0,#0x0
	ld   [d0],r0
	.dlab LBE484
	.dlab LBE483
	ld   r14,[fr,-1128]
	ld   [r14,12],d0
	.dlab LBE482
	.dlab LBE481
	ld   i0,d4
	call &__ZN6MAUtil11BasicStringIcED1Ev ; call non-native
	ld   i0,#0xffffffd0
	add  i0,fr
	call &__ZN6MAUtil11BasicStringIcED1Ev ; call non-native
	.stabs	"E:\\My Dropbox\\workspace\\GameCards\\MobidexANC\\UI\\MobKeyboard.cpp",132,0,0,Ltext145
Ltext145:
	.line 550
	ld   i0,#0xfffffd14
	add  i0,fr
	ld   i1,#LC88
	call &__ZN6MAUtil11BasicStringIcEC1EPKc ; call non-native
	ld   i0,fr
	add  i0,#0xfffffd18
	ld   i1,#LC121
	call &__ZN6MAUtil11BasicStringIcEC1EPKc ; call non-native
	ld   i0,fr
	add  i0,#0xfffffd1c
	ld   i1,#LC147
	call &__ZN6MAUtil11BasicStringIcEC1EPKc ; call non-native
	ld   i0,fr
	add  i0,#0xfffffd20
	ld   i1,#LC148
	call &__ZN6MAUtil11BasicStringIcEC1EPKc ; call non-native
	ld   i0,fr
	add  i0,#0xfffffd24
	ld   i1,#LC149
	call &__ZN6MAUtil11BasicStringIcEC1EPKc ; call non-native
	ld   i0,fr
	add  i0,#0xfffffd28
	ld   i1,#LC150
	call &__ZN6MAUtil11BasicStringIcEC1EPKc ; call non-native
	ld   i0,fr
	add  i0,#0xfffffd2c
	ld   i1,#LC151
	call &__ZN6MAUtil11BasicStringIcEC1EPKc ; call non-native
	ld   i0,fr
	add  i0,#0xfffffd30
	ld   i1,#LC152
	call &__ZN6MAUtil11BasicStringIcEC1EPKc ; call non-native
	ld   i0,fr
	add  i0,#0xfffffd34
	ld   i1,#LC153
	call &__ZN6MAUtil11BasicStringIcEC1EPKc ; call non-native
	ld   i0,fr
	add  i0,#0xfffffd38
	ld   i1,#LC154
	call &__ZN6MAUtil11BasicStringIcEC1EPKc ; call non-native
	.line 551
	ld   i0,#0xfffffcf0
	add  i0,fr
	ld   i1,#LC155
	call &__ZN6MAUtil11BasicStringIcEC1EPKc ; call non-native
	ld   i0,fr
	add  i0,#0xfffffcf4
	ld   i1,#LC156
	call &__ZN6MAUtil11BasicStringIcEC1EPKc ; call non-native
	ld   i0,fr
	add  i0,#0xfffffcf8
	ld   i1,#LC157
	call &__ZN6MAUtil11BasicStringIcEC1EPKc ; call non-native
	ld   i0,fr
	add  i0,#0xfffffcfc
	ld   i1,#LC158
	call &__ZN6MAUtil11BasicStringIcEC1EPKc ; call non-native
	ld   i0,fr
	add  i0,#0xfffffd00
	ld   i1,#LC159
	call &__ZN6MAUtil11BasicStringIcEC1EPKc ; call non-native
	ld   i0,fr
	add  i0,#0xfffffd04
	ld   i1,#LC160
	call &__ZN6MAUtil11BasicStringIcEC1EPKc ; call non-native
	ld   i0,fr
	add  i0,#0xfffffd08
	ld   i1,#LC161
	call &__ZN6MAUtil11BasicStringIcEC1EPKc ; call non-native
	ld   i0,fr
	add  i0,#0xfffffd0c
	ld   i1,#LC162
	call &__ZN6MAUtil11BasicStringIcEC1EPKc ; call non-native
	ld   i0,fr
	add  i0,#0xfffffd10
	ld   i1,#LC163
	call &__ZN6MAUtil11BasicStringIcEC1EPKc ; call non-native
	.line 552
	ld   i0,#0xfffffccc
	add  i0,fr
	ld   i1,#LC1
	call &__ZN6MAUtil11BasicStringIcEC1EPKc ; call non-native
	ld   i0,fr
	add  i0,#0xfffffcd0
	ld   i1,#LC164
	call &__ZN6MAUtil11BasicStringIcEC1EPKc ; call non-native
	ld   i0,fr
	add  i0,#0xfffffcd4
	ld   i1,#LC165
	call &__ZN6MAUtil11BasicStringIcEC1EPKc ; call non-native
	ld   i0,fr
	add  i0,#0xfffffcd8
	ld   i1,#LC166
	call &__ZN6MAUtil11BasicStringIcEC1EPKc ; call non-native
	ld   i0,fr
	add  i0,#0xfffffcdc
	ld   i1,#LC167
	call &__ZN6MAUtil11BasicStringIcEC1EPKc ; call non-native
	ld   i0,fr
	add  i0,#0xfffffce0
	ld   i1,#LC168
	call &__ZN6MAUtil11BasicStringIcEC1EPKc ; call non-native
	ld   i0,fr
	add  i0,#0xfffffce4
	ld   i1,#LC169
	call &__ZN6MAUtil11BasicStringIcEC1EPKc ; call non-native
	ld   i0,fr
	add  i0,#0xfffffce8
	ld   i1,#LC170
	call &__ZN6MAUtil11BasicStringIcEC1EPKc ; call non-native
	ld   i0,fr
	add  i0,#0xfffffcec
	ld   i1,#LC3
	call &__ZN6MAUtil11BasicStringIcEC1EPKc ; call non-native
	.line 553
	ld   i0,#0xfffffcb8
	add  i0,fr
	ld   i1,#LC4
	call &__ZN6MAUtil11BasicStringIcEC1EPKc ; call non-native
	ld   i0,fr
	add  i0,#0xfffffcbc
	ld   i1,#LC5
	call &__ZN6MAUtil11BasicStringIcEC1EPKc ; call non-native
	ld   i0,fr
	add  i0,#0xfffffcc0
	ld   i1,#LC6
	call &__ZN6MAUtil11BasicStringIcEC1EPKc ; call non-native
	ld   i0,fr
	add  i0,#0xfffffcc4
	ld   i1,#LC2
	call &__ZN6MAUtil11BasicStringIcEC1EPKc ; call non-native
	ld   i0,fr
	add  i0,#0xfffffcc8
	ld   i1,#LC8
	call &__ZN6MAUtil11BasicStringIcEC1EPKc ; call non-native
	.line 555
	ld   r0,#0xfffffd14
	add  r0,fr
	ld   [sp],r0
	ld   r14,#0x15
	ld   [sp,4],r14
	ld   r0,#0x19
	ld   [sp,8],r0
	ld   r14,#0x5
	ld   [sp,12],r14
	ld   [sp,16],r14
	ld   i0,d2
	ld   i1,[fr,-1128]
	ld   i2,#0xa
	ld   i3,i2
	call &__ZN11MobKeyboard13addButtonLineEP17MobKeyboardLayoutiiPN6MAUtil11BasicStringIcEEiiii ; call non-native
	.line 556
	ld   r0,#0xfffffcf0
	add  r0,fr
	ld   [sp],r0
	ld   r14,#0x15
	ld   [sp,4],r14
	ld   r0,#0x19
	ld   [sp,8],r0
	ld   r14,#0xa
	ld   [sp,12],r14
	ld   [sp,16],r14
	ld   i0,d2
	ld   i1,[fr,-1128]
	ld   i2,#0x28
	ld   i3,#0x9
	call &__ZN11MobKeyboard13addButtonLineEP17MobKeyboardLayoutiiPN6MAUtil11BasicStringIcEEiiii ; call non-native
	.line 557
	ld   r0,#0xfffffccc
	add  r0,fr
	ld   [sp],r0
	ld   r14,#0x15
	ld   [sp,4],r14
	ld   r0,#0x19
	ld   [sp,8],r0
	ld   r14,#0x5
	ld   [sp,12],r14
	ld   [sp,16],r14
	ld   i0,d2
	ld   i1,[fr,-1128]
	ld   i2,#0x46
	ld   i3,#0x9
	call &__ZN11MobKeyboard13addButtonLineEP17MobKeyboardLayoutiiPN6MAUtil11BasicStringIcEEiiii ; call non-native
	.line 558
	ld   r0,#0xfffffcb8
	add  r0,fr
	ld   [sp],r0
	ld   r14,#0x15
	ld   [sp,4],r14
	ld   r0,#0x19
	ld   [sp,8],r0
	ld   r14,#0x5
	ld   [sp,12],r14
	ld   [sp,16],r14
	ld   i0,d2
	ld   i1,[fr,-1128]
	ld   i2,#0x64
	ld   i3,r14
	call &__ZN11MobKeyboard13addButtonLineEP17MobKeyboardLayoutiiPN6MAUtil11BasicStringIcEEiiii ; call non-native
	.line 563
	ld   i0,#0xffffffd0
	add  i0,fr
	ld   i1,#LC171
	call &__ZN6MAUtil11BasicStringIcEC1EPKc ; call non-native
	ld   i0,d4
	ld   i1,#LC120
	call &__ZN6MAUtil11BasicStringIcEC1EPKc ; call non-native
	ld   i0,#0x10
	call &__Znwm ; call non-native
	ld   d3,r14
	.dlab LBB485
	.dlab LBB486
	.stabs	"E:\\My Dropbox\\workspace\\GameCards\\MobidexANC\\UI\\/MobKeyboard.h",132,0,0,Ltext146
Ltext146:
	.line 137
	ld   i0,r14
	call &__ZN6MAUtil11BasicStringIcEC1Ev ; call non-native
	ld   d0,d3
	add  d0,#0x4
	ld   i0,d0
	call &__ZN6MAUtil11BasicStringIcEC1Ev ; call non-native
	.line 138
	ld   i0,d3
	ld   i1,#0xffffffd0
	add  i1,fr
	call &__ZN6MAUtil11BasicStringIcEaSERKS1_ ; call non-native
	.line 139
	ld   i0,d0
	ld   i1,d4
	call &__ZN6MAUtil11BasicStringIcEaSERKS1_ ; call non-native
	.line 140
	ld   r0,#0x2
	ld   [d3,8],r0
	.line 141
	ld   i0,#0xc
	call &__Znwm ; call non-native
	ld   d0,r14
	.dlab LBB487
	.dlab LBB488
	.stabs	"c:/MoSync/include/MAUtil/Vector.h",132,0,0,Ltext147
Ltext147:
	.line 109
	ld   i0,#0x10
	call &__Znam ; call non-native
	ld   [d0,8],r14
	.line 111
	ld   r14,#0x4
	ld   [d0,4],r14
	.line 113
	ld   r0,#0x0
	ld   [d0],r0
	.dlab LBE488
	.dlab LBE487
	ld   [d3,12],d0
	.dlab LBE486
	.dlab LBE485
	ld   i0,d4
	call &__ZN6MAUtil11BasicStringIcED1Ev ; call non-native
	ld   i0,#0xffffffd0
	add  i0,fr
	call &__ZN6MAUtil11BasicStringIcED1Ev ; call non-native
	.stabs	"E:\\My Dropbox\\workspace\\GameCards\\MobidexANC\\UI\\MobKeyboard.cpp",132,0,0,Ltext148
Ltext148:
	.line 565
	ld   i0,#0xfffffc90
	add  i0,fr
	ld   i1,#LC66
	call &__ZN6MAUtil11BasicStringIcEC1EPKc ; call non-native
	ld   i0,fr
	add  i0,#0xfffffc94
	ld   i1,#LC67
	call &__ZN6MAUtil11BasicStringIcEC1EPKc ; call non-native
	ld   i0,fr
	add  i0,#0xfffffc98
	ld   i1,#LC68
	call &__ZN6MAUtil11BasicStringIcEC1EPKc ; call non-native
	ld   i0,fr
	add  i0,#0xfffffc9c
	ld   i1,#LC69
	call &__ZN6MAUtil11BasicStringIcEC1EPKc ; call non-native
	ld   i0,fr
	add  i0,#0xfffffca0
	ld   i1,#LC70
	call &__ZN6MAUtil11BasicStringIcEC1EPKc ; call non-native
	ld   i0,fr
	add  i0,#0xfffffca4
	ld   i1,#LC71
	call &__ZN6MAUtil11BasicStringIcEC1EPKc ; call non-native
	ld   i0,fr
	add  i0,#0xfffffca8
	ld   i1,#LC72
	call &__ZN6MAUtil11BasicStringIcEC1EPKc ; call non-native
	ld   i0,fr
	add  i0,#0xfffffcac
	ld   i1,#LC73
	call &__ZN6MAUtil11BasicStringIcEC1EPKc ; call non-native
	ld   i0,fr
	add  i0,#0xfffffcb0
	ld   i1,#LC74
	call &__ZN6MAUtil11BasicStringIcEC1EPKc ; call non-native
	ld   i0,fr
	add  i0,#0xfffffcb4
	ld   i1,#LC75
	call &__ZN6MAUtil11BasicStringIcEC1EPKc ; call non-native
	.line 566
	ld   i0,#0xfffffc6c
	add  i0,fr
	ld   i1,#LC76
	call &__ZN6MAUtil11BasicStringIcEC1EPKc ; call non-native
	ld   i0,fr
	add  i0,#0xfffffc70
	ld   i1,#LC77
	call &__ZN6MAUtil11BasicStringIcEC1EPKc ; call non-native
	ld   i0,fr
	add  i0,#0xfffffc74
	ld   i1,#LC78
	call &__ZN6MAUtil11BasicStringIcEC1EPKc ; call non-native
	ld   i0,fr
	add  i0,#0xfffffc78
	ld   i1,#LC79
	call &__ZN6MAUtil11BasicStringIcEC1EPKc ; call non-native
	ld   i0,fr
	add  i0,#0xfffffc7c
	ld   i1,#LC80
	call &__ZN6MAUtil11BasicStringIcEC1EPKc ; call non-native
	ld   i0,fr
	add  i0,#0xfffffc80
	ld   i1,#LC81
	call &__ZN6MAUtil11BasicStringIcEC1EPKc ; call non-native
	ld   i0,fr
	add  i0,#0xfffffc84
	ld   i1,#LC82
	call &__ZN6MAUtil11BasicStringIcEC1EPKc ; call non-native
	ld   i0,fr
	add  i0,#0xfffffc88
	ld   i1,#LC83
	call &__ZN6MAUtil11BasicStringIcEC1EPKc ; call non-native
	ld   i0,fr
	add  i0,#0xfffffc8c
	ld   i1,#LC84
	call &__ZN6MAUtil11BasicStringIcEC1EPKc ; call non-native
	.line 567
	ld   i0,#0xfffffc48
	add  i0,fr
	ld   i1,#LC1
	call &__ZN6MAUtil11BasicStringIcEC1EPKc ; call non-native
	ld   i0,fr
	add  i0,#0xfffffc4c
	ld   i1,#LC85
	call &__ZN6MAUtil11BasicStringIcEC1EPKc ; call non-native
	ld   i0,fr
	add  i0,#0xfffffc50
	ld   i1,#LC86
	call &__ZN6MAUtil11BasicStringIcEC1EPKc ; call non-native
	ld   i0,fr
	add  i0,#0xfffffc54
	ld   i1,#LC87
	call &__ZN6MAUtil11BasicStringIcEC1EPKc ; call non-native
	ld   i0,fr
	add  i0,#0xfffffc58
	ld   i1,#LC88
	call &__ZN6MAUtil11BasicStringIcEC1EPKc ; call non-native
	ld   i0,fr
	add  i0,#0xfffffc5c
	ld   i1,#LC89
	call &__ZN6MAUtil11BasicStringIcEC1EPKc ; call non-native
	ld   i0,fr
	add  i0,#0xfffffc60
	ld   i1,#LC90
	call &__ZN6MAUtil11BasicStringIcEC1EPKc ; call non-native
	ld   i0,fr
	add  i0,#0xfffffc64
	ld   i1,#LC91
	call &__ZN6MAUtil11BasicStringIcEC1EPKc ; call non-native
	ld   i0,fr
	add  i0,#0xfffffc68
	ld   i1,#LC3
	call &__ZN6MAUtil11BasicStringIcEC1EPKc ; call non-native
	.line 568
	ld   i0,#0xfffffc34
	add  i0,fr
	ld   i1,#LC4
	call &__ZN6MAUtil11BasicStringIcEC1EPKc ; call non-native
	ld   i0,fr
	add  i0,#0xfffffc38
	ld   i1,#LC5
	call &__ZN6MAUtil11BasicStringIcEC1EPKc ; call non-native
	ld   i0,fr
	add  i0,#0xfffffc3c
	ld   i1,#LC6
	call &__ZN6MAUtil11BasicStringIcEC1EPKc ; call non-native
	ld   i0,fr
	add  i0,#0xfffffc40
	ld   i1,#LC2
	call &__ZN6MAUtil11BasicStringIcEC1EPKc ; call non-native
	ld   i0,fr
	add  i0,#0xfffffc44
	ld   i1,#LC8
	call &__ZN6MAUtil11BasicStringIcEC1EPKc ; call non-native
	.line 570
	ld   r14,#0xfffffc90
	add  r14,fr
	ld   [sp],r14
	ld   r0,#0x15
	ld   [sp,4],r0
	ld   r14,#0x19
	ld   [sp,8],r14
	ld   r0,#0x5
	ld   [sp,12],r0
	ld   [sp,16],r0
	ld   i0,d2
	ld   i1,d3
	ld   i2,#0xa
	ld   i3,i2
	call &__ZN11MobKeyboard13addButtonLineEP17MobKeyboardLayoutiiPN6MAUtil11BasicStringIcEEiiii ; call non-native
	.line 571
	ld   r14,#0xfffffc6c
	add  r14,fr
	ld   [sp],r14
	ld   r0,#0x15
	ld   [sp,4],r0
	ld   r14,#0x19
	ld   [sp,8],r14
	ld   r0,#0xa
	ld   [sp,12],r0
	ld   [sp,16],r0
	ld   i0,d2
	ld   i1,d3
	ld   i2,#0x28
	ld   i3,#0x9
	call &__ZN11MobKeyboard13addButtonLineEP17MobKeyboardLayoutiiPN6MAUtil11BasicStringIcEEiiii ; call non-native
	.line 572
	ld   r14,#0xfffffc48
	add  r14,fr
	ld   [sp],r14
	ld   r0,#0x15
	ld   [sp,4],r0
	ld   r14,#0x19
	ld   [sp,8],r14
	ld   r0,#0x5
	ld   [sp,12],r0
	ld   [sp,16],r0
	ld   i0,d2
	ld   i1,d3
	ld   i2,#0x46
	ld   i3,#0x9
	call &__ZN11MobKeyboard13addButtonLineEP17MobKeyboardLayoutiiPN6MAUtil11BasicStringIcEEiiii ; call non-native
	.line 573
	ld   r14,#0xfffffc34
	add  r14,fr
	ld   [sp],r14
	ld   r0,#0x15
	ld   [sp,4],r0
	ld   r14,#0x19
	ld   [sp,8],r14
	ld   r0,#0x5
	ld   [sp,12],r0
	ld   [sp,16],r0
	ld   i0,d2
	ld   i1,d3
	ld   i2,#0x64
	ld   i3,r0
	call &__ZN11MobKeyboard13addButtonLineEP17MobKeyboardLayoutiiPN6MAUtil11BasicStringIcEEiiii ; call non-native
	.line 577
	ld   i0,#0xffffffd0
	add  i0,fr
	ld   i1,#LC172
	call &__ZN6MAUtil11BasicStringIcEC1EPKc ; call non-native
	ld   i0,d4
	ld   i1,#LC120
	call &__ZN6MAUtil11BasicStringIcEC1EPKc ; call non-native
	ld   i0,#0x10
	call &__Znwm ; call non-native
	ld   d1,r14
	.dlab LBB489
	.dlab LBB490
	.stabs	"E:\\My Dropbox\\workspace\\GameCards\\MobidexANC\\UI\\/MobKeyboard.h",132,0,0,Ltext149
Ltext149:
	.line 137
	ld   i0,r14
	call &__ZN6MAUtil11BasicStringIcEC1Ev ; call non-native
	ld   d0,d1
	add  d0,#0x4
	ld   i0,d0
	call &__ZN6MAUtil11BasicStringIcEC1Ev ; call non-native
	.line 138
	ld   i0,d1
	ld   i1,#0xffffffd0
	add  i1,fr
	call &__ZN6MAUtil11BasicStringIcEaSERKS1_ ; call non-native
	.line 139
	ld   i0,d0
	ld   i1,d4
	call &__ZN6MAUtil11BasicStringIcEaSERKS1_ ; call non-native
	.line 140
	ld   r14,#0x3
	ld   [d1,8],r14
	.line 141
	ld   i0,#0xc
	call &__Znwm ; call non-native
	ld   d0,r14
	.dlab LBB491
	.dlab LBB492
	.stabs	"c:/MoSync/include/MAUtil/Vector.h",132,0,0,Ltext150
Ltext150:
	.line 109
	ld   i0,#0x10
	call &__Znam ; call non-native
	ld   [d0,8],r14
	.line 111
	ld   r0,#0x4
	ld   [d0,4],r0
	.line 113
	ld   r14,#0x0
	ld   [d0],r14
	.dlab LBE492
	.dlab LBE491
	ld   [d1,12],d0
	.dlab LBE490
	.dlab LBE489
	ld   i0,d4
	call &__ZN6MAUtil11BasicStringIcED1Ev ; call non-native
	ld   i0,#0xffffffd0
	add  i0,fr
	call &__ZN6MAUtil11BasicStringIcED1Ev ; call non-native
	.stabs	"E:\\My Dropbox\\workspace\\GameCards\\MobidexANC\\UI\\MobKeyboard.cpp",132,0,0,Ltext151
Ltext151:
	.line 579
	ld   d5,fr
	add  d5,#0xfffffc0c
	ld   i0,d5
	ld   i1,#LC93
	call &__ZN6MAUtil11BasicStringIcEC1EPKc ; call non-native
	ld   i0,fr
	add  i0,#0xfffffc10
	ld   i1,#LC94
	call &__ZN6MAUtil11BasicStringIcEC1EPKc ; call non-native
	ld   i0,fr
	add  i0,#0xfffffc14
	ld   i1,#LC95
	call &__ZN6MAUtil11BasicStringIcEC1EPKc ; call non-native
	ld   i0,fr
	add  i0,#0xfffffc18
	ld   i1,#LC96
	call &__ZN6MAUtil11BasicStringIcEC1EPKc ; call non-native
	ld   i0,fr
	add  i0,#0xfffffc1c
	ld   i1,#LC97
	call &__ZN6MAUtil11BasicStringIcEC1EPKc ; call non-native
	ld   i0,fr
	add  i0,#0xfffffc20
	ld   i1,#LC98
	call &__ZN6MAUtil11BasicStringIcEC1EPKc ; call non-native
	ld   i0,fr
	add  i0,#0xfffffc24
	ld   i1,#LC99
	call &__ZN6MAUtil11BasicStringIcEC1EPKc ; call non-native
	ld   i0,fr
	add  i0,#0xfffffc28
	ld   i1,#LC100
	call &__ZN6MAUtil11BasicStringIcEC1EPKc ; call non-native
	ld   i0,fr
	add  i0,#0xfffffc2c
	ld   i1,#LC101
	call &__ZN6MAUtil11BasicStringIcEC1EPKc ; call non-native
	ld   i0,fr
	add  i0,#0xfffffc30
	ld   i1,#LC102
	call &__ZN6MAUtil11BasicStringIcEC1EPKc ; call non-native
	.line 580
	ld   d6,fr
	add  d6,#0xfffffbe8
	ld   i0,d6
	ld   i1,#LC103
	call &__ZN6MAUtil11BasicStringIcEC1EPKc ; call non-native
	ld   i0,fr
	add  i0,#0xfffffbec
	ld   i1,#LC104
	call &__ZN6MAUtil11BasicStringIcEC1EPKc ; call non-native
	ld   i0,fr
	add  i0,#0xfffffbf0
	ld   i1,#LC105
	call &__ZN6MAUtil11BasicStringIcEC1EPKc ; call non-native
	ld   i0,fr
	add  i0,#0xfffffbf4
	ld   i1,#LC106
	call &__ZN6MAUtil11BasicStringIcEC1EPKc ; call non-native
	ld   i0,fr
	add  i0,#0xfffffbf8
	ld   i1,#LC107
	call &__ZN6MAUtil11BasicStringIcEC1EPKc ; call non-native
	ld   i0,fr
	add  i0,#0xfffffbfc
	ld   i1,#LC108
	call &__ZN6MAUtil11BasicStringIcEC1EPKc ; call non-native
	ld   i0,fr
	add  i0,#0xfffffc00
	ld   i1,#LC109
	call &__ZN6MAUtil11BasicStringIcEC1EPKc ; call non-native
	ld   i0,fr
	add  i0,#0xfffffc04
	ld   i1,#LC110
	call &__ZN6MAUtil11BasicStringIcEC1EPKc ; call non-native
	ld   i0,fr
	add  i0,#0xfffffc08
	ld   i1,#LC111
	call &__ZN6MAUtil11BasicStringIcEC1EPKc ; call non-native
	.line 581
	ld   d7,fr
	add  d7,#0xfffffbc4
	ld   i0,d7
	ld   i1,#LC1
	call &__ZN6MAUtil11BasicStringIcEC1EPKc ; call non-native
	ld   i0,fr
	add  i0,#0xfffffbc8
	ld   i1,#LC112
	call &__ZN6MAUtil11BasicStringIcEC1EPKc ; call non-native
	ld   i0,fr
	add  i0,#0xfffffbcc
	ld   i1,#LC113
	call &__ZN6MAUtil11BasicStringIcEC1EPKc ; call non-native
	ld   i0,fr
	add  i0,#0xfffffbd0
	ld   i1,#LC114
	call &__ZN6MAUtil11BasicStringIcEC1EPKc ; call non-native
	ld   i0,fr
	add  i0,#0xfffffbd4
	ld   i1,#LC115
	call &__ZN6MAUtil11BasicStringIcEC1EPKc ; call non-native
	ld   i0,fr
	add  i0,#0xfffffbd8
	ld   i1,#LC116
	call &__ZN6MAUtil11BasicStringIcEC1EPKc ; call non-native
	ld   i0,fr
	add  i0,#0xfffffbdc
	ld   i1,#LC117
	call &__ZN6MAUtil11BasicStringIcEC1EPKc ; call non-native
	ld   i0,fr
	add  i0,#0xfffffbe0
	ld   i1,#LC118
	call &__ZN6MAUtil11BasicStringIcEC1EPKc ; call non-native
	ld   i0,fr
	add  i0,#0xfffffbe4
	ld   i1,#LC3
	call &__ZN6MAUtil11BasicStringIcEC1EPKc ; call non-native
	.line 582
	add  d4,#0xfffffbdc
	ld   i0,d4
	ld   i1,#LC4
	call &__ZN6MAUtil11BasicStringIcEC1EPKc ; call non-native
	ld   i0,fr
	add  i0,#0xfffffbb4
	ld   i1,#LC5
	call &__ZN6MAUtil11BasicStringIcEC1EPKc ; call non-native
	ld   i0,fr
	add  i0,#0xfffffbb8
	ld   i1,#LC6
	call &__ZN6MAUtil11BasicStringIcEC1EPKc ; call non-native
	ld   i0,fr
	add  i0,#0xfffffbbc
	ld   i1,#LC2
	call &__ZN6MAUtil11BasicStringIcEC1EPKc ; call non-native
	ld   i0,fr
	add  i0,#0xfffffbc0
	ld   i1,#LC8
	call &__ZN6MAUtil11BasicStringIcEC1EPKc ; call non-native
	.line 584
	ld   [sp],d5
	ld   r0,#0x15
	ld   [sp,4],r0
	ld   r14,#0x19
	ld   [sp,8],r14
	ld   r0,#0x5
	ld   [sp,12],r0
	ld   [sp,16],r0
	ld   i0,d2
	ld   i1,d1
	ld   i2,#0xa
	ld   i3,i2
	call &__ZN11MobKeyboard13addButtonLineEP17MobKeyboardLayoutiiPN6MAUtil11BasicStringIcEEiiii ; call non-native
	.line 585
	ld   [sp],d6
	ld   r14,#0x15
	ld   [sp,4],r14
	ld   r0,#0x19
	ld   [sp,8],r0
	ld   r14,#0xa
	ld   [sp,12],r14
	ld   [sp,16],r14
	ld   i0,d2
	ld   i1,d1
	ld   i2,#0x28
	ld   i3,#0x9
	call &__ZN11MobKeyboard13addButtonLineEP17MobKeyboardLayoutiiPN6MAUtil11BasicStringIcEEiiii ; call non-native
	.line 586
	ld   [sp],d7
	ld   r0,#0x15
	ld   [sp,4],r0
	ld   r14,#0x19
	ld   [sp,8],r14
	ld   r0,#0x5
	ld   [sp,12],r0
	ld   [sp,16],r0
	ld   i0,d2
	ld   i1,d1
	ld   i2,#0x46
	ld   i3,#0x9
	call &__ZN11MobKeyboard13addButtonLineEP17MobKeyboardLayoutiiPN6MAUtil11BasicStringIcEEiiii ; call non-native
	.line 587
	ld   [sp],d4
	ld   r14,#0x15
	ld   [sp,4],r14
	ld   r0,#0x19
	ld   [sp,8],r0
	ld   r14,#0x5
	ld   [sp,12],r14
	ld   [sp,16],r14
	ld   i0,d2
	ld   i1,d1
	ld   i2,#0x64
	ld   i3,r14
	call &__ZN11MobKeyboard13addButtonLineEP17MobKeyboardLayoutiiPN6MAUtil11BasicStringIcEEiiii ; call non-native
	.line 593
	ld   r0,[fr,-1120]
	ld   [sp],r0
	ld   i0,d2
	ld   i1,[fr,-1108]
	ld   i2,[fr,-1112]
	ld   i3,[fr,-1116]
	call &__ZN11MobKeyboard11addLanguageEP17MobKeyboardLayoutS1_S1_S1_ ; call non-native
	.line 594
	ld   [sp],d1
	ld   i0,d2
	ld   i1,[fr,-1124]
	ld   i2,[fr,-1128]
	ld   i3,d3
	call &__ZN11MobKeyboard11addLanguageEP17MobKeyboardLayoutS1_S1_S1_ ; call non-native
	ld   d0,d7
	jc   eq,d4,d0,#L460
L585:
	add  d0,#0xfffffffc
	ld   i0,d0
	call &__ZN6MAUtil11BasicStringIcED1Ev ; call non-native
	jc   ne,d4,d0,#L585
L460:
	ld   r14,#0x0
	jc   eq,d7,r14,#L462
	ld   d0,d6
	jc   eq,d7,d0,#L462
L586:
	add  d0,#0xfffffffc
	ld   i0,d0
	call &__ZN6MAUtil11BasicStringIcED1Ev ; call non-native
	jc   ne,d7,d0,#L586
L462:
	ld   r0,#0x0
	jc   eq,d6,r0,#L466
	ld   d0,d5
	jc   eq,d6,d0,#L466
L587:
	add  d0,#0xfffffffc
	ld   i0,d0
	call &__ZN6MAUtil11BasicStringIcED1Ev ; call non-native
	jc   ne,d6,d0,#L587
L466:
	ld   r14,#0x0
	jc   eq,d5,r14,#L470
	ld   d0,#0xfffffc34
	add  d0,fr
	jc   eq,d5,d0,#L470
L588:
	add  d0,#0xfffffffc
	ld   i0,d0
	call &__ZN6MAUtil11BasicStringIcED1Ev ; call non-native
	jc   ne,d5,d0,#L588
L470:
	ld   r0,#0xfffffc34
	add  r0,fr
	ld   r14,#0x0
	jc   eq,r0,r14,#L474
	ld   d0,#0xfffffc48
	add  d0,fr
	jp   #L475
L589:
	add  d0,#0xfffffffc
	ld   i0,d0
	call &__ZN6MAUtil11BasicStringIcED1Ev ; call non-native
L475:
	ld   r0,#0xfffffc34
	add  r0,fr
	jc   ne,r0,d0,#L589
L474:
	ld   r14,#0xfffffc48
	add  r14,fr
	ld   r0,#0x0
	jc   eq,r14,r0,#L478
	ld   d0,#0xfffffc6c
	add  d0,fr
	jp   #L479
L590:
	add  d0,#0xfffffffc
	ld   i0,d0
	call &__ZN6MAUtil11BasicStringIcED1Ev ; call non-native
L479:
	ld   r14,#0xfffffc48
	add  r14,fr
	jc   ne,r14,d0,#L590
L478:
	ld   r0,#0xfffffc6c
	add  r0,fr
	ld   r14,#0x0
	jc   eq,r0,r14,#L482
	ld   d0,#0xfffffc90
	add  d0,fr
	jp   #L483
L591:
	add  d0,#0xfffffffc
	ld   i0,d0
	call &__ZN6MAUtil11BasicStringIcED1Ev ; call non-native
L483:
	ld   r0,#0xfffffc6c
	add  r0,fr
	jc   ne,r0,d0,#L591
L482:
	ld   r14,#0xfffffc90
	add  r14,fr
	ld   r0,#0x0
	jc   eq,r14,r0,#L486
	ld   d0,#0xfffffcb8
	add  d0,fr
	jp   #L487
L592:
	add  d0,#0xfffffffc
	ld   i0,d0
	call &__ZN6MAUtil11BasicStringIcED1Ev ; call non-native
L487:
	ld   r14,#0xfffffc90
	add  r14,fr
	jc   ne,r14,d0,#L592
L486:
	ld   r0,#0xfffffcb8
	add  r0,fr
	ld   r14,#0x0
	jc   eq,r0,r14,#L490
	ld   d0,#0xfffffccc
	add  d0,fr
	jp   #L491
L593:
	add  d0,#0xfffffffc
	ld   i0,d0
	call &__ZN6MAUtil11BasicStringIcED1Ev ; call non-native
L491:
	ld   r0,#0xfffffcb8
	add  r0,fr
	jc   ne,r0,d0,#L593
L490:
	ld   r14,#0xfffffccc
	add  r14,fr
	ld   r0,#0x0
	jc   eq,r14,r0,#L494
	ld   d0,#0xfffffcf0
	add  d0,fr
	jp   #L495
L594:
	add  d0,#0xfffffffc
	ld   i0,d0
	call &__ZN6MAUtil11BasicStringIcED1Ev ; call non-native
L495:
	ld   r14,#0xfffffccc
	add  r14,fr
	jc   ne,r14,d0,#L594
L494:
	ld   r0,#0xfffffcf0
	add  r0,fr
	ld   r14,#0x0
	jc   eq,r0,r14,#L498
	ld   d0,#0xfffffd14
	add  d0,fr
	jp   #L499
L595:
	add  d0,#0xfffffffc
	ld   i0,d0
	call &__ZN6MAUtil11BasicStringIcED1Ev ; call non-native
L499:
	ld   r0,#0xfffffcf0
	add  r0,fr
	jc   ne,r0,d0,#L595
L498:
	ld   r14,#0xfffffd14
	add  r14,fr
	ld   r0,#0x0
	jc   eq,r14,r0,#L502
	ld   d0,#0xfffffd3c
	add  d0,fr
	jp   #L503
L596:
	add  d0,#0xfffffffc
	ld   i0,d0
	call &__ZN6MAUtil11BasicStringIcED1Ev ; call non-native
L503:
	ld   r14,#0xfffffd14
	add  r14,fr
	jc   ne,r14,d0,#L596
L502:
	ld   r0,#0xfffffd3c
	add  r0,fr
	ld   r14,#0x0
	jc   eq,r0,r14,#L506
	ld   d0,#0xfffffd50
	add  d0,fr
	jp   #L507
L597:
	add  d0,#0xfffffffc
	ld   i0,d0
	call &__ZN6MAUtil11BasicStringIcED1Ev ; call non-native
L507:
	ld   r0,#0xfffffd3c
	add  r0,fr
	jc   ne,r0,d0,#L597
L506:
	ld   r14,#0xfffffd50
	add  r14,fr
	ld   r0,#0x0
	jc   eq,r14,r0,#L510
	ld   d0,#0xfffffd74
	add  d0,fr
	jp   #L511
L598:
	add  d0,#0xfffffffc
	ld   i0,d0
	call &__ZN6MAUtil11BasicStringIcED1Ev ; call non-native
L511:
	ld   r14,#0xfffffd50
	add  r14,fr
	jc   ne,r14,d0,#L598
L510:
	ld   r0,#0xfffffd74
	add  r0,fr
	ld   r14,#0x0
	jc   eq,r0,r14,#L514
	ld   d0,#0xfffffd98
	add  d0,fr
	jp   #L515
L599:
	add  d0,#0xfffffffc
	ld   i0,d0
	call &__ZN6MAUtil11BasicStringIcED1Ev ; call non-native
L515:
	ld   r0,#0xfffffd74
	add  r0,fr
	jc   ne,r0,d0,#L599
L514:
	ld   r14,#0xfffffd98
	add  r14,fr
	ld   r0,#0x0
	jc   eq,r14,r0,#L518
	ld   d0,#0xfffffdc0
	add  d0,fr
	jp   #L519
L600:
	add  d0,#0xfffffffc
	ld   i0,d0
	call &__ZN6MAUtil11BasicStringIcED1Ev ; call non-native
L519:
	ld   r14,#0xfffffd98
	add  r14,fr
	jc   ne,r14,d0,#L600
L518:
	ld   r0,#0xfffffdc0
	add  r0,fr
	ld   r14,#0x0
	jc   eq,r0,r14,#L522
	ld   d0,#0xfffffdd4
	add  d0,fr
	jp   #L523
L601:
	add  d0,#0xfffffffc
	ld   i0,d0
	call &__ZN6MAUtil11BasicStringIcED1Ev ; call non-native
L523:
	ld   r0,#0xfffffdc0
	add  r0,fr
	jc   ne,r0,d0,#L601
L522:
	ld   r14,#0xfffffdd4
	add  r14,fr
	ld   r0,#0x0
	jc   eq,r14,r0,#L526
	ld   d0,#0xfffffdf8
	add  d0,fr
	jp   #L527
L602:
	add  d0,#0xfffffffc
	ld   i0,d0
	call &__ZN6MAUtil11BasicStringIcED1Ev ; call non-native
L527:
	ld   r14,#0xfffffdd4
	add  r14,fr
	jc   ne,r14,d0,#L602
L526:
	ld   r0,#0xfffffdf8
	add  r0,fr
	ld   r14,#0x0
	jc   eq,r0,r14,#L530
	ld   d0,#0xfffffe1c
	add  d0,fr
	jp   #L531
L603:
	add  d0,#0xfffffffc
	ld   i0,d0
	call &__ZN6MAUtil11BasicStringIcED1Ev ; call non-native
L531:
	ld   r0,#0xfffffdf8
	add  r0,fr
	jc   ne,r0,d0,#L603
L530:
	ld   r14,#0xfffffe1c
	add  r14,fr
	ld   r0,#0x0
	jc   eq,r14,r0,#L534
	ld   d0,#0xfffffe44
	add  d0,fr
	jp   #L535
L604:
	add  d0,#0xfffffffc
	ld   i0,d0
	call &__ZN6MAUtil11BasicStringIcED1Ev ; call non-native
L535:
	ld   r14,#0xfffffe1c
	add  r14,fr
	jc   ne,r14,d0,#L604
L534:
	ld   r0,#0xfffffe44
	add  r0,fr
	ld   r14,#0x0
	jc   eq,r0,r14,#L538
	ld   d0,#0xfffffe58
	add  d0,fr
	jp   #L539
L605:
	add  d0,#0xfffffffc
	ld   i0,d0
	call &__ZN6MAUtil11BasicStringIcED1Ev ; call non-native
L539:
	ld   r0,#0xfffffe44
	add  r0,fr
	jc   ne,r0,d0,#L605
L538:
	ld   r14,#0xfffffe58
	add  r14,fr
	ld   r0,#0x0
	jc   eq,r14,r0,#L542
	ld   d0,#0xfffffe7c
	add  d0,fr
	jp   #L543
L606:
	add  d0,#0xfffffffc
	ld   i0,d0
	call &__ZN6MAUtil11BasicStringIcED1Ev ; call non-native
L543:
	ld   r14,#0xfffffe58
	add  r14,fr
	jc   ne,r14,d0,#L606
L542:
	ld   r0,#0xfffffe7c
	add  r0,fr
	ld   r14,#0x0
	jc   eq,r0,r14,#L546
	ld   d0,#0xfffffea0
	add  d0,fr
	jp   #L547
L607:
	add  d0,#0xfffffffc
	ld   i0,d0
	call &__ZN6MAUtil11BasicStringIcED1Ev ; call non-native
L547:
	ld   r0,#0xfffffe7c
	add  r0,fr
	jc   ne,r0,d0,#L607
L546:
	ld   r14,#0xfffffea0
	add  r14,fr
	ld   r0,#0x0
	jc   eq,r14,r0,#L550
	ld   d0,#0xfffffec8
	add  d0,fr
	jp   #L551
L608:
	add  d0,#0xfffffffc
	ld   i0,d0
	call &__ZN6MAUtil11BasicStringIcED1Ev ; call non-native
L551:
	ld   r14,#0xfffffea0
	add  r14,fr
	jc   ne,r14,d0,#L608
L550:
	ld   r0,#0xfffffec8
	add  r0,fr
	ld   r14,#0x0
	jc   eq,r0,r14,#L554
	ld   d0,#0xfffffedc
	add  d0,fr
	jp   #L555
L609:
	add  d0,#0xfffffffc
	ld   i0,d0
	call &__ZN6MAUtil11BasicStringIcED1Ev ; call non-native
L555:
	ld   r0,#0xfffffec8
	add  r0,fr
	jc   ne,r0,d0,#L609
L554:
	ld   r14,#0xfffffedc
	add  r14,fr
	ld   r0,#0x0
	jc   eq,r14,r0,#L558
	ld   d0,#0xffffff00
	add  d0,fr
	jp   #L559
L610:
	add  d0,#0xfffffffc
	ld   i0,d0
	call &__ZN6MAUtil11BasicStringIcED1Ev ; call non-native
L559:
	ld   r14,#0xfffffedc
	add  r14,fr
	jc   ne,r14,d0,#L610
L558:
	ld   r0,#0xffffff00
	add  r0,fr
	ld   r14,#0x0
	jc   eq,r0,r14,#L562
	ld   d0,#0xffffff24
	add  d0,fr
	jp   #L563
L611:
	add  d0,#0xfffffffc
	ld   i0,d0
	call &__ZN6MAUtil11BasicStringIcED1Ev ; call non-native
L563:
	ld   r0,#0xffffff00
	add  r0,fr
	jc   ne,r0,d0,#L611
L562:
	ld   r14,#0xffffff24
	add  r14,fr
	ld   r0,#0x0
	jc   eq,r14,r0,#L566
	ld   d0,#0xffffff4c
	add  d0,fr
	jp   #L567
L612:
	add  d0,#0xfffffffc
	ld   i0,d0
	call &__ZN6MAUtil11BasicStringIcED1Ev ; call non-native
L567:
	ld   r14,#0xffffff24
	add  r14,fr
	jc   ne,r14,d0,#L612
L566:
	ld   r0,#0xffffff4c
	add  r0,fr
	ld   r14,#0x0
	jc   eq,r0,r14,#L570
	ld   d0,#0xffffff60
	add  d0,fr
	jp   #L571
L613:
	add  d0,#0xfffffffc
	ld   i0,d0
	call &__ZN6MAUtil11BasicStringIcED1Ev ; call non-native
L571:
	ld   r0,#0xffffff4c
	add  r0,fr
	jc   ne,r0,d0,#L613
L570:
	ld   r14,#0xffffff60
	add  r14,fr
	ld   r0,#0x0
	jc   eq,r14,r0,#L574
	ld   d0,#0xffffff84
	add  d0,fr
	jp   #L575
L614:
	add  d0,#0xfffffffc
	ld   i0,d0
	call &__ZN6MAUtil11BasicStringIcED1Ev ; call non-native
L575:
	ld   r14,#0xffffff60
	add  r14,fr
	jc   ne,r14,d0,#L614
L574:
	ld   r0,#0xffffff84
	add  r0,fr
	ld   r14,#0x0
	jc   eq,r0,r14,#L578
	ld   d0,#0xffffffa8
	add  d0,fr
	jp   #L579
L615:
	add  d0,#0xfffffffc
	ld   i0,d0
	call &__ZN6MAUtil11BasicStringIcED1Ev ; call non-native
L579:
	ld   r0,#0xffffff84
	add  r0,fr
	jc   ne,r0,d0,#L615
L578:
	ld   r14,#0xffffffa8
	add  r14,fr
	ld   r0,#0x0
	jc   eq,r14,r0,#L440
	ld   d0,#0xffffffd0
	add  d0,fr
	jp   #L583
L616:
	add  d0,#0xfffffffc
	ld   i0,d0
	call &__ZN6MAUtil11BasicStringIcED1Ev ; call non-native
L583:
	ld   r14,#0xffffffa8
	add  r14,fr
	jc   ne,r14,d0,#L616
L440:
	.dlab LBE460
	.dlab LBE459
	.line 595
	add  sp,#0x454
	pop  rt,d7
	ret
	.stabs	"l_l1_line1Chars:(0,94)=ar(3,53);0;9;(11,1)",128,0,472,-88
	.stabs	"l_l1_line2Chars:(0,95)=ar(3,53);0;8;(11,1)",128,0,473,-124
	.stabs	"l_l1_line3Chars:(0,95)",128,0,474,-160
	.stabs	"l_l1_line4Chars:(0,96)=ar(3,53);0;4;(11,1)",128,0,475,-180
	.stabs	"l_l2_line1Chars:(0,94)",128,0,487,-220
	.stabs	"l_l2_line2Chars:(0,95)",128,0,488,-256
	.stabs	"l_l2_line3Chars:(0,95)",128,0,489,-292
	.stabs	"l_l2_line4Chars:(0,96)",128,0,490,-312
	.stabs	"l_l3_line1Chars:(0,94)",128,0,502,-352
	.stabs	"l_l3_line2Chars:(0,95)",128,0,503,-388
	.stabs	"l_l3_line3Chars:(0,95)",128,0,504,-424
	.stabs	"l_l3_line4Chars:(0,96)",128,0,505,-444
	.stabs	"l_l4_line1Chars:(0,94)",128,0,516,-484
	.stabs	"l_l4_line2Chars:(0,95)",128,0,517,-520
	.stabs	"l_l4_line3Chars:(0,95)",128,0,518,-556
	.stabs	"l_l4_line4Chars:(0,96)",128,0,519,-576
	.stabs	"l_grl1_line1Chars:(0,94)",128,0,535,-616
	.stabs	"l_grl1_line2Chars:(0,95)",128,0,536,-652
	.stabs	"l_grl1_line3Chars:(0,95)",128,0,537,-688
	.stabs	"l_grl1_line4Chars:(0,96)",128,0,538,-708
	.stabs	"l_grl2_line1Chars:(0,94)",128,0,550,-748
	.stabs	"l_grl2_line2Chars:(0,95)",128,0,551,-784
	.stabs	"l_grl2_line3Chars:(0,95)",128,0,552,-820
	.stabs	"l_grl2_line4Chars:(0,96)",128,0,553,-840
	.stabs	"l_grl3_line1Chars:(0,94)",128,0,565,-880
	.stabs	"l_grl3_line2Chars:(0,95)",128,0,566,-916
	.stabs	"l_grl3_line3Chars:(0,95)",128,0,567,-952
	.stabs	"l_grl3_line4Chars:(0,96)",128,0,568,-972
	.stabs	"l_grl4_line1Chars:(0,94)",128,0,579,-1012
	.stabs	"l_grl4_line2Chars:(0,95)",128,0,580,-1048
	.stabs	"l_grl4_line3Chars:(0,95)",128,0,581,-1084
	.stabs	"l_grl4_line4Chars:(0,96)",128,0,582,-1104
	.stabn	192,0,0,LBB460-__ZN11MobKeyboard9setupKeysEv
	.stabn	224,0,0,LBE460-__ZN11MobKeyboard9setupKeysEv
Lscope27:
	.stabs	"_ZN11MobKeyboardC1Eiiii:F(0,6)",36,0,10,__ZN11MobKeyboardC1Eiiii
	.stabs	"this:P(0,90)",64,0,10,4
	.stabs	"x:P(0,3)",64,0,10,13
	.stabs	"y:P(0,3)",64,0,10,14
	.stabs	"width:P(0,3)",64,0,10,15
	.stabs	"height:p(0,3)",160,0,10,0
	.global	__ZN11MobKeyboardC1Eiiii

.func __ZN11MobKeyboardC1Eiiii, 5, void
	.line 10
	push rt,d2
	sub  sp,#0x14
	ld   fr,sp
	add  fr,#0x28
	ld   d0,i0
	.dlab LBB493
	.line 11
	ld   r14,[fr]
	ld   [sp],r14
	ld   r14,#0x0
	ld   [sp,4],r14
	call &__ZN4MAUI6WidgetC2EiiiiPS0_ ; call non-native
	ld   r14,#__ZTV11MobKeyboard+8
	ld   [d0],r14
	ld   r14,#__ZTV11MobKeyboard+120
	ld   [d0,116],r14
	.line 12
	ld   r14,#0x1
	ld.b [d0,60],r14
	.line 13
	ld   r14,#0x0
	ld.b [d0,120],r14
	.line 14
	ld   i0,#0xc
	call &__Znwm ; call non-native
	ld   d1,r14
	.dlab LBB494
	.dlab LBB495
	.stabs	"c:/MoSync/include/MAUtil/Vector.h",132,0,0,Ltext152
Ltext152:
	.line 109
	ld   d2,#0x10
	ld   i0,d2
	call &__Znam ; call non-native
	ld   [d1,8],r14
	.line 111
	ld   r14,#0x4
	ld   [d1,4],r14
	.line 113
	ld   r14,#0x0
	ld   [d1],r14
	.dlab LBE495
	.dlab LBE494
	ld   [d0,124],d1
	.stabs	"E:\\My Dropbox\\workspace\\GameCards\\MobidexANC\\UI\\MobKeyboard.cpp",132,0,0,Ltext153
Ltext153:
	.line 15
	ld   [d0,148],r14
	.line 16
	ld   r14,#0xffffffff
	ld   [d0,128],r14
	.line 18
	ld   r14,#0x262626
	ld   [d0,132],r14
	.line 19
	ld   r14,#0xdadaeb
	ld   [d0,136],r14
	.line 20
	ld   r14,#0xaeaed2
	ld   [d0,140],r14
	.line 21
	ld   r14,#0x7873a8
	ld   [d0,144],r14
	.line 23
	ld   i0,#0xc4
	call &__Znwm ; call non-native
	ld   d1,r14
	ld   [sp],d2
	ld   r14,#0x8
	ld   [sp,4],r14
	ld   [sp,8],d2
	ld   r14,#0x1
	ld.b [sp,12],r14
	ld.b [sp,16],r14
	ld   i0,d1
	ld   i1,#0x16
	ld   i2,#0x17
	ld   i3,#0x8
	call &__ZN4MAUI10WidgetSkinC1Eiiiiiibb ; call non-native
	ld   [d0,152],d1
	.line 25
	ld   i0,d0
	call &__ZN11MobKeyboard9setupKeysEv ; call non-native
	.line 26
	ld   r14,#0x0
	ld   [d0,128],r14
	.line 28
	ld   [d0,160],r14
	.line 29
	ld   [d0,164],r14
	ld   [d0,168],r14
	.dlab LBE493
	add  sp,#0x14
	pop  rt,d2
	ret
Lscope28:
	.stabs	"_ZN11MobKeyboardC2Eiiii:F(0,6)",36,0,10,__ZN11MobKeyboardC2Eiiii
	.stabs	"this:P(0,90)",64,0,10,4
	.stabs	"x:P(0,3)",64,0,10,13
	.stabs	"y:P(0,3)",64,0,10,14
	.stabs	"width:P(0,3)",64,0,10,15
	.stabs	"height:p(0,3)",160,0,10,0
	.global	__ZN11MobKeyboardC2Eiiii

.func __ZN11MobKeyboardC2Eiiii, 5, void
	.line 10
	push rt,d2
	sub  sp,#0x14
	ld   fr,sp
	add  fr,#0x28
	ld   d0,i0
	.dlab LBB496
	.line 11
	ld   r14,[fr]
	ld   [sp],r14
	ld   r14,#0x0
	ld   [sp,4],r14
	call &__ZN4MAUI6WidgetC2EiiiiPS0_ ; call non-native
	ld   r14,#__ZTV11MobKeyboard+8
	ld   [d0],r14
	ld   r14,#__ZTV11MobKeyboard+120
	ld   [d0,116],r14
	.line 12
	ld   r14,#0x1
	ld.b [d0,60],r14
	.line 13
	ld   r14,#0x0
	ld.b [d0,120],r14
	.line 14
	ld   i0,#0xc
	call &__Znwm ; call non-native
	ld   d1,r14
	.dlab LBB497
	.dlab LBB498
	.stabs	"c:/MoSync/include/MAUtil/Vector.h",132,0,0,Ltext154
Ltext154:
	.line 109
	ld   d2,#0x10
	ld   i0,d2
	call &__Znam ; call non-native
	ld   [d1,8],r14
	.line 111
	ld   r14,#0x4
	ld   [d1,4],r14
	.line 113
	ld   r14,#0x0
	ld   [d1],r14
	.dlab LBE498
	.dlab LBE497
	ld   [d0,124],d1
	.stabs	"E:\\My Dropbox\\workspace\\GameCards\\MobidexANC\\UI\\MobKeyboard.cpp",132,0,0,Ltext155
Ltext155:
	.line 15
	ld   [d0,148],r14
	.line 16
	ld   r14,#0xffffffff
	ld   [d0,128],r14
	.line 18
	ld   r14,#0x262626
	ld   [d0,132],r14
	.line 19
	ld   r14,#0xdadaeb
	ld   [d0,136],r14
	.line 20
	ld   r14,#0xaeaed2
	ld   [d0,140],r14
	.line 21
	ld   r14,#0x7873a8
	ld   [d0,144],r14
	.line 23
	ld   i0,#0xc4
	call &__Znwm ; call non-native
	ld   d1,r14
	ld   [sp],d2
	ld   r14,#0x8
	ld   [sp,4],r14
	ld   [sp,8],d2
	ld   r14,#0x1
	ld.b [sp,12],r14
	ld.b [sp,16],r14
	ld   i0,d1
	ld   i1,#0x16
	ld   i2,#0x17
	ld   i3,#0x8
	call &__ZN4MAUI10WidgetSkinC1Eiiiiiibb ; call non-native
	ld   [d0,152],d1
	.line 25
	ld   i0,d0
	call &__ZN11MobKeyboard9setupKeysEv ; call non-native
	.line 26
	ld   r14,#0x0
	ld   [d0,128],r14
	.line 28
	ld   [d0,160],r14
	.line 29
	ld   [d0,164],r14
	ld   [d0,168],r14
	.dlab LBE496
	add  sp,#0x14
	pop  rt,d2
	ret
Lscope29:
	.set	%3=__ZN11MobKeyboardD0Ev
	.stabs	"this:P(0,90)",64,0,33,12
	.global	__ZThn116_N11MobKeyboardD0Ev

.func __ZThn116_N11MobKeyboardD0Ev, 1, void
	.stabs	"E:\\My Dropbox\\workspace\\GameCards\\MobidexANC\\UI\\/MobKeyboard.h",132,0,0,Ltext156
Ltext156:
	.line 18
	push rt,fr
	ld   fr,sp
	add  fr,#0x8
	.line 18
	add  i0,#0xffffff8c
	call &%3 ; call non-native
	pop  rt,fr
	ret
Lscope30:
	.stabs	"_ZN11MobKeyboardD0Ev:F(0,6)",36,0,33,__ZN11MobKeyboardD0Ev
	.stabs	"this:P(0,90)",64,0,33,11
	.global	__ZN11MobKeyboardD0Ev

.func __ZN11MobKeyboardD0Ev, 1, void
	.stabs	"E:\\My Dropbox\\workspace\\GameCards\\MobidexANC\\UI\\MobKeyboard.cpp",132,0,0,Ltext157
Ltext157:
	.line 33
	push rt,d7
	ld   fr,sp
	add  fr,#0x28
	ld   d7,i0
	.dlab LBB499
	.line 33
	ld   r1,#__ZTV11MobKeyboard+8
	ld   [i0],r1
	ld   r14,#__ZTV11MobKeyboard+120
	ld   [i0,116],r14
	.dlab LBB500
	.dlab LBB501
	.dlab LBB502
	.stabs	"c:/MoSync/include/MAUtil/Vector.h",132,0,0,Ltext158
Ltext158:
	.line 265
	ld   d0,[i0,124]
	.dlab LBE502
	ld   d6,[d0]
	add  d6,#0xffffffff
	.stabs	"E:\\My Dropbox\\workspace\\GameCards\\MobidexANC\\UI\\MobKeyboard.cpp",132,0,0,Ltext159
Ltext159:
	.line 34
	ld   r1,#0x0
	jc   lt,d6,r1,#L703
L692:
	.dlab LBB503
	.dlab LBB504
	.dlab LBB505
	.dlab LBB506
	.stabs	"c:/MoSync/include/MAUtil/Vector.h",132,0,0,Ltext160
Ltext160:
	.line 362
	ld   r14,d6
	sll  r14,#0x2
	ld   i0,[d0,8]
	add  r14,i0
	.dlab LBE506
	.dlab LBE505
	ld   d5,[r14]
	.dlab LBB507
	.dlab LBB508
	.dlab LBB509
	.line 197
	ld   r0,r14
	.dlab LBB510
	.dlab LBB511
	.dlab LBB512
	.dlab LBB513
	.line 341
	ld   r2,[d0]
	ld   r1,r2
	sll  r1,#0x2
	add  r1,i0
	.dlab LBE513
	.dlab LBE512
	.line 206
	add  r1,#0xfffffffc
	jc   eq,r1,r14,#L705
L634:
	.line 205
	ld   r14,[r0,4]
	ld   [r0],r14
	.line 206
	add  r0,#0x4
	jc   ne,r1,r0,#L634
L705:
	.dlab LBB514
	.line 272
	ld   d1,r2
	add  d1,#0xffffffff
	.dlab LBB515
	.dlab LBB516
	.dlab LBB517
	.dlab LBB518
	.dlab LBB519
	.line 295
	ld   r14,[d0,4]
	jc   lt,r14,d1,#L722
L636:
	.dlab LBE519
	.dlab LBE518
	.dlab LBE517
	.dlab LBB520
	.line 281
	ld   r0,d1
	jc   le,r2,d1,#L709
L646:
	.line 282
	ld   r14,r0
	sll  r14,#0x2
	add  r14,i0
	ld   r1,#0x0
	ld   [r14],r1
	.line 281
	add  r0,#0x1
	jc   gt,r2,r0,#L646
L709:
	.dlab LBE520
	.line 285
	ld   [d0],d1
	.dlab LBE516
	.dlab LBE515
	.dlab LBE514
	.dlab LBE511
	.dlab LBE510
	.dlab LBE509
	.dlab LBE508
	.dlab LBE507
	.stabs	"E:\\My Dropbox\\workspace\\GameCards\\MobidexANC\\UI\\MobKeyboard.cpp",132,0,0,Ltext161
Ltext161:
	.line 38
	ld   r14,#0x0
	jc   eq,d5,r14,#L651
	.dlab LBB521
	.dlab LBB522
	.dlab LBB523
	.dlab LBB524
	.dlab LBB525
	.stabs	"c:/MoSync/include/MAUtil/Vector.h",132,0,0,Ltext162
Ltext162:
	.line 265
	ld   d0,[d5,12]
	.dlab LBE525
	ld   d3,[d0]
	add  d3,#0xffffffff
	.stabs	"E:\\My Dropbox\\workspace\\GameCards\\MobidexANC\\UI\\/MobKeyboard.h",132,0,0,Ltext163
Ltext163:
	.line 146
	jc   lt,d3,r14,#L711
L682:
	.dlab LBB526
	.dlab LBB527
	.dlab LBB528
	.dlab LBB529
	.stabs	"c:/MoSync/include/MAUtil/Vector.h",132,0,0,Ltext164
Ltext164:
	.line 362
	ld   r14,d3
	sll  r14,#0x2
	ld   i0,[d0,8]
	add  r14,i0
	.dlab LBE529
	.dlab LBE528
	ld   d4,[r14]
	.dlab LBB530
	.dlab LBB531
	.dlab LBB532
	.line 197
	ld   r0,r14
	.dlab LBB533
	.dlab LBB534
	.dlab LBB535
	.dlab LBB536
	.line 341
	ld   r2,[d0]
	ld   r1,r2
	sll  r1,#0x2
	add  r1,i0
	.dlab LBE536
	.dlab LBE535
	.line 206
	add  r1,#0xfffffffc
	jc   eq,r1,r14,#L713
L661:
	.line 205
	ld   r14,[r0,4]
	ld   [r0],r14
	.line 206
	add  r0,#0x4
	jc   ne,r1,r0,#L661
L713:
	.dlab LBB537
	.line 272
	ld   d1,r2
	add  d1,#0xffffffff
	.dlab LBB538
	.dlab LBB539
	.dlab LBB540
	.dlab LBB541
	.dlab LBB542
	.line 295
	ld   r14,[d0,4]
	jc   lt,r14,d1,#L723
L663:
	.dlab LBE542
	.dlab LBE541
	.dlab LBE540
	.dlab LBB543
	.line 281
	ld   r0,d1
	jc   le,r2,d1,#L717
L673:
	.line 282
	ld   r14,r0
	sll  r14,#0x2
	add  r14,i0
	ld   r1,#0x0
	ld   [r14],r1
	.line 281
	add  r0,#0x1
	jc   gt,r2,r0,#L673
L717:
	.dlab LBE543
	.line 285
	ld   [d0],d1
	.dlab LBE539
	.dlab LBE538
	.dlab LBE537
	.dlab LBE534
	.dlab LBE533
	.dlab LBE532
	.dlab LBE531
	.dlab LBE530
	.stabs	"E:\\My Dropbox\\workspace\\GameCards\\MobidexANC\\UI\\/MobKeyboard.h",132,0,0,Ltext165
Ltext165:
	.line 150
	ld   r14,#0x0
	jc   eq,d4,r14,#L678
	.dlab LBB544
	.dlab LBB545
	.line 97
	ld   i0,d4
	add  i0,#0x14
	call &__ZN6MAUtil11BasicStringIcED1Ev ; call non-native
	.dlab LBE545
	.dlab LBE544
	ld   i0,d4
	call &__ZdlPv ; call non-native
L678:
	.dlab LBE527
	.dlab LBE526
	.line 146
	add  d3,#0xffffffff
	ld   r1,#0x0
	jc   lt,d3,r1,#L724
	ld   d0,[d5,12]
	jp   #L682
L722:
	.dlab LBE524
	.dlab LBE523
	.dlab LBE522
	.dlab LBE521
	.dlab LBB546
	.dlab LBB547
	.dlab LBB548
	.dlab LBB549
	.dlab LBB550
	.dlab LBB551
	.dlab LBB552
	.dlab LBB553
	.dlab LBB554
	.dlab LBB555
	.dlab LBB556
	.stabs	"c:/MoSync/include/MAUtil/Vector.h",132,0,0,Ltext166
Ltext166:
	.line 298
	ld   i0,d1
	sll  i0,#0x2
	call &__Znam ; call non-native
	ld   d2,r14
	.dlab LBB557
	.line 300
	ld   r1,#0x0
	ld   r2,[d0]
	jc   le,r2,r1,#L718
	ld   i0,[d0,8]
L640:
	.line 301
	ld   r14,r1
	sll  r14,#0x2
	ld   r0,r14
	add  r0,d2
	add  r14,i0
	ld   r14,[r14]
	ld   [r0],r14
	.line 300
	add  r1,#0x1
	jc   gt,r2,r1,#L640
	.dlab LBE557
	.line 304
	ld   [d0,4],d1
	.line 305
	ld   r1,#0x0
	jc   ne,i0,r1,#L725
L642:
	.line 307
	ld   i0,d2
	ld   [d0,8],d2
	jp   #L636
L728:
	ld   d0,[d7,124]
L703:
	.dlab LBE556
	.dlab LBE555
	.dlab LBE554
	.dlab LBE553
	.dlab LBE552
	.dlab LBE551
	.dlab LBE550
	.dlab LBE549
	.dlab LBE548
	.dlab LBE547
	.dlab LBE546
	.dlab LBE504
	.dlab LBE503
	.dlab LBE501
	.stabs	"E:\\My Dropbox\\workspace\\GameCards\\MobidexANC\\UI\\MobKeyboard.cpp",132,0,0,Ltext167
Ltext167:
	.line 42
	ld   r1,#0x0
	jc   eq,d0,r1,#L694
	.dlab LBB558
	.dlab LBB559
	.stabs	"c:/MoSync/include/MAUtil/Vector.h",132,0,0,Ltext168
Ltext168:
	.line 143
	ld   i0,[d0,8]
	jc   ne,i0,r1,#L726
L699:
	.dlab LBE559
	.dlab LBE558
	ld   i0,d0
	call &__ZdlPv ; call non-native
L694:
	.stabs	"E:\\My Dropbox\\workspace\\GameCards\\MobidexANC\\UI\\MobKeyboard.cpp",132,0,0,Ltext169
Ltext169:
	.line 43
	ld   r14,#0x0
	ld   [d7,124],r14
	.dlab LBE500
	ld   i0,d7
	add  i0,#0x74
	call &__ZN6MAUtil15PointerListenerD2Ev ; call non-native
	ld   i0,d7
	call &__ZN4MAUI6WidgetD2Ev ; call non-native
	.dlab LBE499
	.line 44
	ld   i0,d7
	call &__ZdlPv ; call non-native
	pop  rt,d7
	ret
L723:
	.dlab LBB560
	.dlab LBB561
	.dlab LBB562
	.dlab LBB563
	.dlab LBB564
	.dlab LBB565
	.dlab LBB566
	.dlab LBB567
	.dlab LBB568
	.dlab LBB569
	.dlab LBB570
	.dlab LBB571
	.dlab LBB572
	.dlab LBB573
	.dlab LBB574
	.dlab LBB575
	.dlab LBB576
	.dlab LBB577
	.dlab LBB578
	.dlab LBB579
	.dlab LBB580
	.dlab LBB581
	.stabs	"c:/MoSync/include/MAUtil/Vector.h",132,0,0,Ltext170
Ltext170:
	.line 298
	ld   i0,d1
	sll  i0,#0x2
	call &__Znam ; call non-native
	ld   d2,r14
	.dlab LBB582
	.line 300
	ld   r1,#0x0
	ld   r2,[d0]
	jc   le,r2,r1,#L719
	ld   i0,[d0,8]
L667:
	.line 301
	ld   r14,r1
	sll  r14,#0x2
	ld   r0,r14
	add  r0,d2
	add  r14,i0
	ld   r14,[r14]
	ld   [r0],r14
	.line 300
	add  r1,#0x1
	jc   gt,r2,r1,#L667
	.dlab LBE582
	.line 304
	ld   [d0,4],d1
	.line 305
	ld   r1,#0x0
	jc   ne,i0,r1,#L727
L669:
	.line 307
	ld   i0,d2
	ld   [d0,8],d2
	jp   #L663
L727:
	.line 305
	call &__ZdaPv ; call non-native
	ld   r2,[d0]
	.line 307
	ld   i0,d2
	ld   [d0,8],d2
	jp   #L663
L725:
	.dlab LBE581
	.dlab LBE580
	.dlab LBE579
	.dlab LBE578
	.dlab LBE577
	.dlab LBE576
	.dlab LBE575
	.dlab LBE574
	.dlab LBE573
	.dlab LBE572
	.dlab LBE571
	.dlab LBE570
	.dlab LBE569
	.dlab LBE568
	.dlab LBE567
	.dlab LBE566
	.dlab LBE565
	.dlab LBB583
	.dlab LBB584
	.dlab LBB585
	.dlab LBB586
	.dlab LBB587
	.dlab LBB588
	.dlab LBB589
	.dlab LBB590
	.dlab LBB591
	.dlab LBB592
	.dlab LBB593
	.line 305
	call &__ZdaPv ; call non-native
	ld   r2,[d0]
	.line 307
	ld   i0,d2
	ld   [d0,8],d2
	jp   #L636
L726:
	.dlab LBE593
	.dlab LBE592
	.dlab LBE591
	.dlab LBE590
	.dlab LBE589
	.dlab LBE588
	.dlab LBE587
	.dlab LBE586
	.dlab LBE585
	.dlab LBE584
	.dlab LBE583
	.dlab LBE564
	.dlab LBE563
	.dlab LBE562
	.dlab LBB594
	.dlab LBB595
	.line 143
	call &__ZdaPv ; call non-native
	jp   #L699
L724:
	ld   d0,[d5,12]
L711:
	.dlab LBE595
	.dlab LBE594
	.dlab LBB596
	.dlab LBB597
	.dlab LBB598
	.dlab LBB599
	.dlab LBB600
	.dlab LBB601
	.stabs	"E:\\My Dropbox\\workspace\\GameCards\\MobidexANC\\UI\\/MobKeyboard.h",132,0,0,Ltext171
Ltext171:
	.line 154
	ld   r14,#0x0
	jc   eq,d0,r14,#L684
	.dlab LBB602
	.dlab LBB603
	.stabs	"c:/MoSync/include/MAUtil/Vector.h",132,0,0,Ltext172
Ltext172:
	.line 143
	ld   i0,[d0,8]
	jc   eq,i0,r14,#L689
	call &__ZdaPv ; call non-native
L689:
	.dlab LBE603
	.dlab LBE602
	ld   i0,d0
	call &__ZdlPv ; call non-native
L684:
	.stabs	"E:\\My Dropbox\\workspace\\GameCards\\MobidexANC\\UI\\/MobKeyboard.h",132,0,0,Ltext173
Ltext173:
	.line 155
	ld   r1,#0x0
	ld   [d5,12],r1
	.dlab LBE601
	ld   i0,d5
	add  i0,#0x4
	call &__ZN6MAUtil11BasicStringIcED1Ev ; call non-native
	ld   i0,d5
	call &__ZN6MAUtil11BasicStringIcED1Ev ; call non-native
	.dlab LBE600
	.dlab LBE599
	ld   i0,d5
	call &__ZdlPv ; call non-native
L651:
	.dlab LBE598
	.dlab LBE597
	.stabs	"E:\\My Dropbox\\workspace\\GameCards\\MobidexANC\\UI\\MobKeyboard.cpp",132,0,0,Ltext174
Ltext174:
	.line 34
	add  d6,#0xffffffff
	ld   r14,#0x0
	jc   lt,d6,r14,#L728
	ld   d0,[d7,124]
	jp   #L692
L719:
	ld   i0,[d0,8]
	.dlab LBB604
	.dlab LBB605
	.dlab LBB606
	.dlab LBB607
	.dlab LBB608
	.dlab LBB609
	.dlab LBB610
	.dlab LBB611
	.dlab LBB612
	.dlab LBB613
	.dlab LBB614
	.dlab LBB615
	.dlab LBB616
	.dlab LBB617
	.dlab LBB618
	.dlab LBB619
	.dlab LBB620
	.dlab LBB621
	.dlab LBB622
	.stabs	"c:/MoSync/include/MAUtil/Vector.h",132,0,0,Ltext175
Ltext175:
	.line 304
	ld   [d0,4],d1
	.line 305
	ld   r1,#0x0
	jc   eq,i0,r1,#L669
	jp   #L727
L718:
	ld   i0,[d0,8]
	.dlab LBE622
	.dlab LBE621
	.dlab LBE620
	.dlab LBE619
	.dlab LBE618
	.dlab LBE617
	.dlab LBE616
	.dlab LBE615
	.dlab LBE614
	.dlab LBE613
	.dlab LBE612
	.dlab LBE611
	.dlab LBE610
	.dlab LBE609
	.dlab LBE608
	.dlab LBE607
	.dlab LBE606
	.dlab LBB623
	.dlab LBB624
	.dlab LBB625
	.dlab LBB626
	.dlab LBB627
	.dlab LBB628
	.dlab LBB629
	.dlab LBB630
	.dlab LBB631
	.dlab LBB632
	.dlab LBB633
	.line 304
	ld   [d0,4],d1
	.line 305
	ld   r1,#0x0
	jc   eq,i0,r1,#L642
	jp   #L725
	.dlab LBE633
	.dlab LBE632
	.dlab LBE631
	.dlab LBE630
	.dlab LBE629
	.dlab LBE628
	.dlab LBE627
	.dlab LBE626
	.dlab LBE625
	.dlab LBE624
	.dlab LBE623
	.dlab LBE605
	.dlab LBE604
	.dlab LBE596
	.dlab LBE561
	.dlab LBE560
	.stabs	"i:r(0,3)",64,0,34,10
	.stabn	192,0,0,LBB501-__ZN11MobKeyboardD0Ev
	.stabs	"l_layout:r(8,61)",64,0,36,9
	.stabn	192,0,0,LBB504-__ZN11MobKeyboardD0Ev
	.stabs	"i:r(0,26)",64,0,197,16
	.stabn	192,0,0,LBB509-__ZN11MobKeyboardD0Ev
	.stabs	"newSize:r(0,3)",64,0,272,5
	.stabn	192,0,0,LBB514-__ZN11MobKeyboardD0Ev
	.stabs	"newData:r(0,26)",64,0,298,6
	.stabn	192,0,0,LBB519-__ZN11MobKeyboardD0Ev
	.stabn	224,0,0,LBE519-__ZN11MobKeyboardD0Ev
	.stabs	"i:r(0,3)",64,0,281,16
	.stabn	192,0,0,LBB520-__ZN11MobKeyboardD0Ev
	.stabn	224,0,0,LBE520-__ZN11MobKeyboardD0Ev
	.stabn	224,0,0,LBE514-__ZN11MobKeyboardD0Ev
	.stabn	224,0,0,LBE509-__ZN11MobKeyboardD0Ev
	.stabs	"i:r(0,3)",64,0,146,7
	.stabn	192,0,0,LBB524-__ZN11MobKeyboardD0Ev
	.stabs	"l_button:r(8,39)",64,0,148,8
	.stabn	192,0,0,LBB527-__ZN11MobKeyboardD0Ev
	.stabs	"i:r(8,72)",64,0,197,16
	.stabn	192,0,0,LBB532-__ZN11MobKeyboardD0Ev
	.stabs	"newSize:r(0,3)",64,0,272,5
	.stabn	192,0,0,LBB537-__ZN11MobKeyboardD0Ev
	.stabs	"newData:r(8,72)",64,0,298,6
	.stabn	192,0,0,LBB542-__ZN11MobKeyboardD0Ev
	.stabn	224,0,0,LBE542-__ZN11MobKeyboardD0Ev
	.stabs	"i:r(0,3)",64,0,281,16
	.stabn	192,0,0,LBB543-__ZN11MobKeyboardD0Ev
	.stabn	224,0,0,LBE543-__ZN11MobKeyboardD0Ev
	.stabn	224,0,0,LBE537-__ZN11MobKeyboardD0Ev
	.stabn	224,0,0,LBE532-__ZN11MobKeyboardD0Ev
	.stabn	224,0,0,LBE527-__ZN11MobKeyboardD0Ev
	.stabn	224,0,0,LBE524-__ZN11MobKeyboardD0Ev
	.stabs	"i:r(0,26)",64,0,197,16
	.stabn	192,0,0,LBB548-__ZN11MobKeyboardD0Ev
	.stabs	"newSize:r(0,3)",64,0,272,5
	.stabn	192,0,0,LBB551-__ZN11MobKeyboardD0Ev
	.stabs	"newData:r(0,26)",64,0,298,6
	.stabn	192,0,0,LBB556-__ZN11MobKeyboardD0Ev
	.stabs	"i:r(0,3)",64,0,300,17
	.stabn	192,0,0,LBB557-__ZN11MobKeyboardD0Ev
	.stabn	224,0,0,LBE557-__ZN11MobKeyboardD0Ev
	.stabn	224,0,0,LBE556-__ZN11MobKeyboardD0Ev
	.stabn	224,0,0,LBE551-__ZN11MobKeyboardD0Ev
	.stabn	224,0,0,LBE548-__ZN11MobKeyboardD0Ev
	.stabn	224,0,0,LBE504-__ZN11MobKeyboardD0Ev
	.stabn	224,0,0,LBE501-__ZN11MobKeyboardD0Ev
	.stabs	"i:r(0,3)",64,0,34,10
	.stabn	192,0,0,LBB562-__ZN11MobKeyboardD0Ev
	.stabs	"l_layout:r(8,61)",64,0,36,9
	.stabn	192,0,0,LBB564-__ZN11MobKeyboardD0Ev
	.stabs	"i:r(0,3)",64,0,146,7
	.stabn	192,0,0,LBB568-__ZN11MobKeyboardD0Ev
	.stabs	"l_button:r(8,39)",64,0,148,8
	.stabn	192,0,0,LBB570-__ZN11MobKeyboardD0Ev
	.stabs	"i:r(8,72)",64,0,197,16
	.stabn	192,0,0,LBB573-__ZN11MobKeyboardD0Ev
	.stabs	"newSize:r(0,3)",64,0,272,5
	.stabn	192,0,0,LBB576-__ZN11MobKeyboardD0Ev
	.stabs	"newData:r(8,72)",64,0,298,6
	.stabn	192,0,0,LBB581-__ZN11MobKeyboardD0Ev
	.stabs	"i:r(0,3)",64,0,300,17
	.stabn	192,0,0,LBB582-__ZN11MobKeyboardD0Ev
	.stabn	224,0,0,LBE582-__ZN11MobKeyboardD0Ev
	.stabn	224,0,0,LBE581-__ZN11MobKeyboardD0Ev
	.stabn	224,0,0,LBE576-__ZN11MobKeyboardD0Ev
	.stabn	224,0,0,LBE573-__ZN11MobKeyboardD0Ev
	.stabn	224,0,0,LBE570-__ZN11MobKeyboardD0Ev
	.stabn	224,0,0,LBE568-__ZN11MobKeyboardD0Ev
	.stabs	"i:r(0,26)",64,0,197,16
	.stabn	192,0,0,LBB585-__ZN11MobKeyboardD0Ev
	.stabs	"newSize:r(0,3)",64,0,272,5
	.stabn	192,0,0,LBB588-__ZN11MobKeyboardD0Ev
	.stabs	"newData:r(0,26)",64,0,298,6
	.stabn	192,0,0,LBB593-__ZN11MobKeyboardD0Ev
	.stabn	224,0,0,LBE593-__ZN11MobKeyboardD0Ev
	.stabn	224,0,0,LBE588-__ZN11MobKeyboardD0Ev
	.stabn	224,0,0,LBE585-__ZN11MobKeyboardD0Ev
	.stabn	224,0,0,LBE564-__ZN11MobKeyboardD0Ev
	.stabn	224,0,0,LBE562-__ZN11MobKeyboardD0Ev
	.stabs	"i:r(0,3)",64,0,34,10
	.stabn	192,0,0,LBB596-__ZN11MobKeyboardD0Ev
	.stabs	"l_layout:r(8,61)",64,0,36,9
	.stabn	192,0,0,LBB598-__ZN11MobKeyboardD0Ev
	.stabn	224,0,0,LBE598-__ZN11MobKeyboardD0Ev
	.stabs	"l_layout:r(8,61)",64,0,36,9
	.stabn	192,0,0,LBB605-__ZN11MobKeyboardD0Ev
	.stabs	"i:r(0,3)",64,0,146,7
	.stabn	192,0,0,LBB609-__ZN11MobKeyboardD0Ev
	.stabs	"l_button:r(8,39)",64,0,148,8
	.stabn	192,0,0,LBB611-__ZN11MobKeyboardD0Ev
	.stabs	"i:r(8,72)",64,0,197,16
	.stabn	192,0,0,LBB614-__ZN11MobKeyboardD0Ev
	.stabs	"newSize:r(0,3)",64,0,272,5
	.stabn	192,0,0,LBB617-__ZN11MobKeyboardD0Ev
	.stabs	"newData:r(8,72)",64,0,298,6
	.stabn	192,0,0,LBB622-__ZN11MobKeyboardD0Ev
	.stabn	224,0,0,LBE622-__ZN11MobKeyboardD0Ev
	.stabn	224,0,0,LBE617-__ZN11MobKeyboardD0Ev
	.stabn	224,0,0,LBE614-__ZN11MobKeyboardD0Ev
	.stabn	224,0,0,LBE611-__ZN11MobKeyboardD0Ev
	.stabn	224,0,0,LBE609-__ZN11MobKeyboardD0Ev
	.stabs	"i:r(0,26)",64,0,197,16
	.stabn	192,0,0,LBB625-__ZN11MobKeyboardD0Ev
	.stabs	"newSize:r(0,3)",64,0,272,5
	.stabn	192,0,0,LBB628-__ZN11MobKeyboardD0Ev
	.stabs	"newData:r(0,26)",64,0,298,6
	.stabn	192,0,0,LBB633-__ZN11MobKeyboardD0Ev
	.stabn	224,0,0,LBE633-__ZN11MobKeyboardD0Ev
	.stabn	224,0,0,LBE628-__ZN11MobKeyboardD0Ev
	.stabn	224,0,0,LBE625-__ZN11MobKeyboardD0Ev
	.stabn	224,0,0,LBE605-__ZN11MobKeyboardD0Ev
	.stabn	224,0,0,LBE596-__ZN11MobKeyboardD0Ev
Lscope31:
	.set	%4=__ZN11MobKeyboardD1Ev
	.stabs	"this:P(0,90)",64,0,33,12
	.global	__ZThn116_N11MobKeyboardD1Ev

.func __ZThn116_N11MobKeyboardD1Ev, 1, void
	.stabs	"E:\\My Dropbox\\workspace\\GameCards\\MobidexANC\\UI\\/MobKeyboard.h",132,0,0,Ltext176
Ltext176:
	.line 18
	push rt,fr
	ld   fr,sp
	add  fr,#0x8
	.line 18
	add  i0,#0xffffff8c
	call &%4 ; call non-native
	pop  rt,fr
	ret
Lscope32:
	.stabs	"_ZN11MobKeyboardD1Ev:F(0,6)",36,0,33,__ZN11MobKeyboardD1Ev
	.stabs	"this:P(0,90)",64,0,33,11
	.global	__ZN11MobKeyboardD1Ev

.func __ZN11MobKeyboardD1Ev, 1, void
	.stabs	"E:\\My Dropbox\\workspace\\GameCards\\MobidexANC\\UI\\MobKeyboard.cpp",132,0,0,Ltext177
Ltext177:
	.line 33
	push rt,d7
	ld   fr,sp
	add  fr,#0x28
	ld   d7,i0
	.dlab LBB634
	.line 33
	ld   r1,#__ZTV11MobKeyboard+8
	ld   [i0],r1
	ld   r14,#__ZTV11MobKeyboard+120
	ld   [i0,116],r14
	.dlab LBB635
	.dlab LBB636
	.dlab LBB637
	.stabs	"c:/MoSync/include/MAUtil/Vector.h",132,0,0,Ltext178
Ltext178:
	.line 265
	ld   d0,[i0,124]
	.dlab LBE637
	ld   d6,[d0]
	add  d6,#0xffffffff
	.stabs	"E:\\My Dropbox\\workspace\\GameCards\\MobidexANC\\UI\\MobKeyboard.cpp",132,0,0,Ltext179
Ltext179:
	.line 34
	ld   r1,#0x0
	jc   lt,d6,r1,#L809
L798:
	.dlab LBB638
	.dlab LBB639
	.dlab LBB640
	.dlab LBB641
	.stabs	"c:/MoSync/include/MAUtil/Vector.h",132,0,0,Ltext180
Ltext180:
	.line 362
	ld   r14,d6
	sll  r14,#0x2
	ld   i0,[d0,8]
	add  r14,i0
	.dlab LBE641
	.dlab LBE640
	ld   d5,[r14]
	.dlab LBB642
	.dlab LBB643
	.dlab LBB644
	.line 197
	ld   r0,r14
	.dlab LBB645
	.dlab LBB646
	.dlab LBB647
	.dlab LBB648
	.line 341
	ld   r2,[d0]
	ld   r1,r2
	sll  r1,#0x2
	add  r1,i0
	.dlab LBE648
	.dlab LBE647
	.line 206
	add  r1,#0xfffffffc
	jc   eq,r1,r14,#L811
L740:
	.line 205
	ld   r14,[r0,4]
	ld   [r0],r14
	.line 206
	add  r0,#0x4
	jc   ne,r1,r0,#L740
L811:
	.dlab LBB649
	.line 272
	ld   d1,r2
	add  d1,#0xffffffff
	.dlab LBB650
	.dlab LBB651
	.dlab LBB652
	.dlab LBB653
	.dlab LBB654
	.line 295
	ld   r14,[d0,4]
	jc   lt,r14,d1,#L828
L742:
	.dlab LBE654
	.dlab LBE653
	.dlab LBE652
	.dlab LBB655
	.line 281
	ld   r0,d1
	jc   le,r2,d1,#L815
L752:
	.line 282
	ld   r14,r0
	sll  r14,#0x2
	add  r14,i0
	ld   r1,#0x0
	ld   [r14],r1
	.line 281
	add  r0,#0x1
	jc   gt,r2,r0,#L752
L815:
	.dlab LBE655
	.line 285
	ld   [d0],d1
	.dlab LBE651
	.dlab LBE650
	.dlab LBE649
	.dlab LBE646
	.dlab LBE645
	.dlab LBE644
	.dlab LBE643
	.dlab LBE642
	.stabs	"E:\\My Dropbox\\workspace\\GameCards\\MobidexANC\\UI\\MobKeyboard.cpp",132,0,0,Ltext181
Ltext181:
	.line 38
	ld   r14,#0x0
	jc   eq,d5,r14,#L757
	.dlab LBB656
	.dlab LBB657
	.dlab LBB658
	.dlab LBB659
	.dlab LBB660
	.stabs	"c:/MoSync/include/MAUtil/Vector.h",132,0,0,Ltext182
Ltext182:
	.line 265
	ld   d0,[d5,12]
	.dlab LBE660
	ld   d3,[d0]
	add  d3,#0xffffffff
	.stabs	"E:\\My Dropbox\\workspace\\GameCards\\MobidexANC\\UI\\/MobKeyboard.h",132,0,0,Ltext183
Ltext183:
	.line 146
	jc   lt,d3,r14,#L817
L788:
	.dlab LBB661
	.dlab LBB662
	.dlab LBB663
	.dlab LBB664
	.stabs	"c:/MoSync/include/MAUtil/Vector.h",132,0,0,Ltext184
Ltext184:
	.line 362
	ld   r14,d3
	sll  r14,#0x2
	ld   i0,[d0,8]
	add  r14,i0
	.dlab LBE664
	.dlab LBE663
	ld   d4,[r14]
	.dlab LBB665
	.dlab LBB666
	.dlab LBB667
	.line 197
	ld   r0,r14
	.dlab LBB668
	.dlab LBB669
	.dlab LBB670
	.dlab LBB671
	.line 341
	ld   r2,[d0]
	ld   r1,r2
	sll  r1,#0x2
	add  r1,i0
	.dlab LBE671
	.dlab LBE670
	.line 206
	add  r1,#0xfffffffc
	jc   eq,r1,r14,#L819
L767:
	.line 205
	ld   r14,[r0,4]
	ld   [r0],r14
	.line 206
	add  r0,#0x4
	jc   ne,r1,r0,#L767
L819:
	.dlab LBB672
	.line 272
	ld   d1,r2
	add  d1,#0xffffffff
	.dlab LBB673
	.dlab LBB674
	.dlab LBB675
	.dlab LBB676
	.dlab LBB677
	.line 295
	ld   r14,[d0,4]
	jc   lt,r14,d1,#L829
L769:
	.dlab LBE677
	.dlab LBE676
	.dlab LBE675
	.dlab LBB678
	.line 281
	ld   r0,d1
	jc   le,r2,d1,#L823
L779:
	.line 282
	ld   r14,r0
	sll  r14,#0x2
	add  r14,i0
	ld   r1,#0x0
	ld   [r14],r1
	.line 281
	add  r0,#0x1
	jc   gt,r2,r0,#L779
L823:
	.dlab LBE678
	.line 285
	ld   [d0],d1
	.dlab LBE674
	.dlab LBE673
	.dlab LBE672
	.dlab LBE669
	.dlab LBE668
	.dlab LBE667
	.dlab LBE666
	.dlab LBE665
	.stabs	"E:\\My Dropbox\\workspace\\GameCards\\MobidexANC\\UI\\/MobKeyboard.h",132,0,0,Ltext185
Ltext185:
	.line 150
	ld   r14,#0x0
	jc   eq,d4,r14,#L784
	.dlab LBB679
	.dlab LBB680
	.line 97
	ld   i0,d4
	add  i0,#0x14
	call &__ZN6MAUtil11BasicStringIcED1Ev ; call non-native
	.dlab LBE680
	.dlab LBE679
	ld   i0,d4
	call &__ZdlPv ; call non-native
L784:
	.dlab LBE662
	.dlab LBE661
	.line 146
	add  d3,#0xffffffff
	ld   r1,#0x0
	jc   lt,d3,r1,#L830
	ld   d0,[d5,12]
	jp   #L788
L828:
	.dlab LBE659
	.dlab LBE658
	.dlab LBE657
	.dlab LBE656
	.dlab LBB681
	.dlab LBB682
	.dlab LBB683
	.dlab LBB684
	.dlab LBB685
	.dlab LBB686
	.dlab LBB687
	.dlab LBB688
	.dlab LBB689
	.dlab LBB690
	.dlab LBB691
	.stabs	"c:/MoSync/include/MAUtil/Vector.h",132,0,0,Ltext186
Ltext186:
	.line 298
	ld   i0,d1
	sll  i0,#0x2
	call &__Znam ; call non-native
	ld   d2,r14
	.dlab LBB692
	.line 300
	ld   r1,#0x0
	ld   r2,[d0]
	jc   le,r2,r1,#L824
	ld   i0,[d0,8]
L746:
	.line 301
	ld   r14,r1
	sll  r14,#0x2
	ld   r0,r14
	add  r0,d2
	add  r14,i0
	ld   r14,[r14]
	ld   [r0],r14
	.line 300
	add  r1,#0x1
	jc   gt,r2,r1,#L746
	.dlab LBE692
	.line 304
	ld   [d0,4],d1
	.line 305
	ld   r1,#0x0
	jc   ne,i0,r1,#L831
L748:
	.line 307
	ld   i0,d2
	ld   [d0,8],d2
	jp   #L742
L834:
	ld   d0,[d7,124]
L809:
	.dlab LBE691
	.dlab LBE690
	.dlab LBE689
	.dlab LBE688
	.dlab LBE687
	.dlab LBE686
	.dlab LBE685
	.dlab LBE684
	.dlab LBE683
	.dlab LBE682
	.dlab LBE681
	.dlab LBE639
	.dlab LBE638
	.dlab LBE636
	.stabs	"E:\\My Dropbox\\workspace\\GameCards\\MobidexANC\\UI\\MobKeyboard.cpp",132,0,0,Ltext187
Ltext187:
	.line 42
	ld   r1,#0x0
	jc   eq,d0,r1,#L800
	.dlab LBB693
	.dlab LBB694
	.stabs	"c:/MoSync/include/MAUtil/Vector.h",132,0,0,Ltext188
Ltext188:
	.line 143
	ld   i0,[d0,8]
	jc   ne,i0,r1,#L832
L805:
	.dlab LBE694
	.dlab LBE693
	ld   i0,d0
	call &__ZdlPv ; call non-native
L800:
	.stabs	"E:\\My Dropbox\\workspace\\GameCards\\MobidexANC\\UI\\MobKeyboard.cpp",132,0,0,Ltext189
Ltext189:
	.line 43
	ld   r14,#0x0
	ld   [d7,124],r14
	.dlab LBE635
	ld   i0,d7
	add  i0,#0x74
	call &__ZN6MAUtil15PointerListenerD2Ev ; call non-native
	ld   i0,d7
	call &__ZN4MAUI6WidgetD2Ev ; call non-native
	.dlab LBE634
	.line 44
	pop  rt,d7
	ret
L829:
	.dlab LBB695
	.dlab LBB696
	.dlab LBB697
	.dlab LBB698
	.dlab LBB699
	.dlab LBB700
	.dlab LBB701
	.dlab LBB702
	.dlab LBB703
	.dlab LBB704
	.dlab LBB705
	.dlab LBB706
	.dlab LBB707
	.dlab LBB708
	.dlab LBB709
	.dlab LBB710
	.dlab LBB711
	.dlab LBB712
	.dlab LBB713
	.dlab LBB714
	.dlab LBB715
	.dlab LBB716
	.stabs	"c:/MoSync/include/MAUtil/Vector.h",132,0,0,Ltext190
Ltext190:
	.line 298
	ld   i0,d1
	sll  i0,#0x2
	call &__Znam ; call non-native
	ld   d2,r14
	.dlab LBB717
	.line 300
	ld   r1,#0x0
	ld   r2,[d0]
	jc   le,r2,r1,#L825
	ld   i0,[d0,8]
L773:
	.line 301
	ld   r14,r1
	sll  r14,#0x2
	ld   r0,r14
	add  r0,d2
	add  r14,i0
	ld   r14,[r14]
	ld   [r0],r14
	.line 300
	add  r1,#0x1
	jc   gt,r2,r1,#L773
	.dlab LBE717
	.line 304
	ld   [d0,4],d1
	.line 305
	ld   r1,#0x0
	jc   ne,i0,r1,#L833
L775:
	.line 307
	ld   i0,d2
	ld   [d0,8],d2
	jp   #L769
L833:
	.line 305
	call &__ZdaPv ; call non-native
	ld   r2,[d0]
	.line 307
	ld   i0,d2
	ld   [d0,8],d2
	jp   #L769
L831:
	.dlab LBE716
	.dlab LBE715
	.dlab LBE714
	.dlab LBE713
	.dlab LBE712
	.dlab LBE711
	.dlab LBE710
	.dlab LBE709
	.dlab LBE708
	.dlab LBE707
	.dlab LBE706
	.dlab LBE705
	.dlab LBE704
	.dlab LBE703
	.dlab LBE702
	.dlab LBE701
	.dlab LBE700
	.dlab LBB718
	.dlab LBB719
	.dlab LBB720
	.dlab LBB721
	.dlab LBB722
	.dlab LBB723
	.dlab LBB724
	.dlab LBB725
	.dlab LBB726
	.dlab LBB727
	.dlab LBB728
	.line 305
	call &__ZdaPv ; call non-native
	ld   r2,[d0]
	.line 307
	ld   i0,d2
	ld   [d0,8],d2
	jp   #L742
L832:
	.dlab LBE728
	.dlab LBE727
	.dlab LBE726
	.dlab LBE725
	.dlab LBE724
	.dlab LBE723
	.dlab LBE722
	.dlab LBE721
	.dlab LBE720
	.dlab LBE719
	.dlab LBE718
	.dlab LBE699
	.dlab LBE698
	.dlab LBE697
	.dlab LBB729
	.dlab LBB730
	.line 143
	call &__ZdaPv ; call non-native
	jp   #L805
L830:
	ld   d0,[d5,12]
L817:
	.dlab LBE730
	.dlab LBE729
	.dlab LBB731
	.dlab LBB732
	.dlab LBB733
	.dlab LBB734
	.dlab LBB735
	.dlab LBB736
	.stabs	"E:\\My Dropbox\\workspace\\GameCards\\MobidexANC\\UI\\/MobKeyboard.h",132,0,0,Ltext191
Ltext191:
	.line 154
	ld   r14,#0x0
	jc   eq,d0,r14,#L790
	.dlab LBB737
	.dlab LBB738
	.stabs	"c:/MoSync/include/MAUtil/Vector.h",132,0,0,Ltext192
Ltext192:
	.line 143
	ld   i0,[d0,8]
	jc   eq,i0,r14,#L795
	call &__ZdaPv ; call non-native
L795:
	.dlab LBE738
	.dlab LBE737
	ld   i0,d0
	call &__ZdlPv ; call non-native
L790:
	.stabs	"E:\\My Dropbox\\workspace\\GameCards\\MobidexANC\\UI\\/MobKeyboard.h",132,0,0,Ltext193
Ltext193:
	.line 155
	ld   r1,#0x0
	ld   [d5,12],r1
	.dlab LBE736
	ld   i0,d5
	add  i0,#0x4
	call &__ZN6MAUtil11BasicStringIcED1Ev ; call non-native
	ld   i0,d5
	call &__ZN6MAUtil11BasicStringIcED1Ev ; call non-native
	.dlab LBE735
	.dlab LBE734
	ld   i0,d5
	call &__ZdlPv ; call non-native
L757:
	.dlab LBE733
	.dlab LBE732
	.stabs	"E:\\My Dropbox\\workspace\\GameCards\\MobidexANC\\UI\\MobKeyboard.cpp",132,0,0,Ltext194
Ltext194:
	.line 34
	add  d6,#0xffffffff
	ld   r14,#0x0
	jc   lt,d6,r14,#L834
	ld   d0,[d7,124]
	jp   #L798
L825:
	ld   i0,[d0,8]
	.dlab LBB739
	.dlab LBB740
	.dlab LBB741
	.dlab LBB742
	.dlab LBB743
	.dlab LBB744
	.dlab LBB745
	.dlab LBB746
	.dlab LBB747
	.dlab LBB748
	.dlab LBB749
	.dlab LBB750
	.dlab LBB751
	.dlab LBB752
	.dlab LBB753
	.dlab LBB754
	.dlab LBB755
	.dlab LBB756
	.dlab LBB757
	.stabs	"c:/MoSync/include/MAUtil/Vector.h",132,0,0,Ltext195
Ltext195:
	.line 304
	ld   [d0,4],d1
	.line 305
	ld   r1,#0x0
	jc   eq,i0,r1,#L775
	jp   #L833
L824:
	ld   i0,[d0,8]
	.dlab LBE757
	.dlab LBE756
	.dlab LBE755
	.dlab LBE754
	.dlab LBE753
	.dlab LBE752
	.dlab LBE751
	.dlab LBE750
	.dlab LBE749
	.dlab LBE748
	.dlab LBE747
	.dlab LBE746
	.dlab LBE745
	.dlab LBE744
	.dlab LBE743
	.dlab LBE742
	.dlab LBE741
	.dlab LBB758
	.dlab LBB759
	.dlab LBB760
	.dlab LBB761
	.dlab LBB762
	.dlab LBB763
	.dlab LBB764
	.dlab LBB765
	.dlab LBB766
	.dlab LBB767
	.dlab LBB768
	.line 304
	ld   [d0,4],d1
	.line 305
	ld   r1,#0x0
	jc   eq,i0,r1,#L748
	jp   #L831
	.dlab LBE768
	.dlab LBE767
	.dlab LBE766
	.dlab LBE765
	.dlab LBE764
	.dlab LBE763
	.dlab LBE762
	.dlab LBE761
	.dlab LBE760
	.dlab LBE759
	.dlab LBE758
	.dlab LBE740
	.dlab LBE739
	.dlab LBE731
	.dlab LBE696
	.dlab LBE695
	.stabs	"i:r(0,3)",64,0,34,10
	.stabn	192,0,0,LBB636-__ZN11MobKeyboardD1Ev
	.stabs	"l_layout:r(8,61)",64,0,36,9
	.stabn	192,0,0,LBB639-__ZN11MobKeyboardD1Ev
	.stabs	"i:r(0,26)",64,0,197,16
	.stabn	192,0,0,LBB644-__ZN11MobKeyboardD1Ev
	.stabs	"newSize:r(0,3)",64,0,272,5
	.stabn	192,0,0,LBB649-__ZN11MobKeyboardD1Ev
	.stabs	"newData:r(0,26)",64,0,298,6
	.stabn	192,0,0,LBB654-__ZN11MobKeyboardD1Ev
	.stabn	224,0,0,LBE654-__ZN11MobKeyboardD1Ev
	.stabs	"i:r(0,3)",64,0,281,16
	.stabn	192,0,0,LBB655-__ZN11MobKeyboardD1Ev
	.stabn	224,0,0,LBE655-__ZN11MobKeyboardD1Ev
	.stabn	224,0,0,LBE649-__ZN11MobKeyboardD1Ev
	.stabn	224,0,0,LBE644-__ZN11MobKeyboardD1Ev
	.stabs	"i:r(0,3)",64,0,146,7
	.stabn	192,0,0,LBB659-__ZN11MobKeyboardD1Ev
	.stabs	"l_button:r(8,39)",64,0,148,8
	.stabn	192,0,0,LBB662-__ZN11MobKeyboardD1Ev
	.stabs	"i:r(8,72)",64,0,197,16
	.stabn	192,0,0,LBB667-__ZN11MobKeyboardD1Ev
	.stabs	"newSize:r(0,3)",64,0,272,5
	.stabn	192,0,0,LBB672-__ZN11MobKeyboardD1Ev
	.stabs	"newData:r(8,72)",64,0,298,6
	.stabn	192,0,0,LBB677-__ZN11MobKeyboardD1Ev
	.stabn	224,0,0,LBE677-__ZN11MobKeyboardD1Ev
	.stabs	"i:r(0,3)",64,0,281,16
	.stabn	192,0,0,LBB678-__ZN11MobKeyboardD1Ev
	.stabn	224,0,0,LBE678-__ZN11MobKeyboardD1Ev
	.stabn	224,0,0,LBE672-__ZN11MobKeyboardD1Ev
	.stabn	224,0,0,LBE667-__ZN11MobKeyboardD1Ev
	.stabn	224,0,0,LBE662-__ZN11MobKeyboardD1Ev
	.stabn	224,0,0,LBE659-__ZN11MobKeyboardD1Ev
	.stabs	"i:r(0,26)",64,0,197,16
	.stabn	192,0,0,LBB683-__ZN11MobKeyboardD1Ev
	.stabs	"newSize:r(0,3)",64,0,272,5
	.stabn	192,0,0,LBB686-__ZN11MobKeyboardD1Ev
	.stabs	"newData:r(0,26)",64,0,298,6
	.stabn	192,0,0,LBB691-__ZN11MobKeyboardD1Ev
	.stabs	"i:r(0,3)",64,0,300,17
	.stabn	192,0,0,LBB692-__ZN11MobKeyboardD1Ev
	.stabn	224,0,0,LBE692-__ZN11MobKeyboardD1Ev
	.stabn	224,0,0,LBE691-__ZN11MobKeyboardD1Ev
	.stabn	224,0,0,LBE686-__ZN11MobKeyboardD1Ev
	.stabn	224,0,0,LBE683-__ZN11MobKeyboardD1Ev
	.stabn	224,0,0,LBE639-__ZN11MobKeyboardD1Ev
	.stabn	224,0,0,LBE636-__ZN11MobKeyboardD1Ev
	.stabs	"i:r(0,3)",64,0,34,10
	.stabn	192,0,0,LBB697-__ZN11MobKeyboardD1Ev
	.stabs	"l_layout:r(8,61)",64,0,36,9
	.stabn	192,0,0,LBB699-__ZN11MobKeyboardD1Ev
	.stabs	"i:r(0,3)",64,0,146,7
	.stabn	192,0,0,LBB703-__ZN11MobKeyboardD1Ev
	.stabs	"l_button:r(8,39)",64,0,148,8
	.stabn	192,0,0,LBB705-__ZN11MobKeyboardD1Ev
	.stabs	"i:r(8,72)",64,0,197,16
	.stabn	192,0,0,LBB708-__ZN11MobKeyboardD1Ev
	.stabs	"newSize:r(0,3)",64,0,272,5
	.stabn	192,0,0,LBB711-__ZN11MobKeyboardD1Ev
	.stabs	"newData:r(8,72)",64,0,298,6
	.stabn	192,0,0,LBB716-__ZN11MobKeyboardD1Ev
	.stabs	"i:r(0,3)",64,0,300,17
	.stabn	192,0,0,LBB717-__ZN11MobKeyboardD1Ev
	.stabn	224,0,0,LBE717-__ZN11MobKeyboardD1Ev
	.stabn	224,0,0,LBE716-__ZN11MobKeyboardD1Ev
	.stabn	224,0,0,LBE711-__ZN11MobKeyboardD1Ev
	.stabn	224,0,0,LBE708-__ZN11MobKeyboardD1Ev
	.stabn	224,0,0,LBE705-__ZN11MobKeyboardD1Ev
	.stabn	224,0,0,LBE703-__ZN11MobKeyboardD1Ev
	.stabs	"i:r(0,26)",64,0,197,16
	.stabn	192,0,0,LBB720-__ZN11MobKeyboardD1Ev
	.stabs	"newSize:r(0,3)",64,0,272,5
	.stabn	192,0,0,LBB723-__ZN11MobKeyboardD1Ev
	.stabs	"newData:r(0,26)",64,0,298,6
	.stabn	192,0,0,LBB728-__ZN11MobKeyboardD1Ev
	.stabn	224,0,0,LBE728-__ZN11MobKeyboardD1Ev
	.stabn	224,0,0,LBE723-__ZN11MobKeyboardD1Ev
	.stabn	224,0,0,LBE720-__ZN11MobKeyboardD1Ev
	.stabn	224,0,0,LBE699-__ZN11MobKeyboardD1Ev
	.stabn	224,0,0,LBE697-__ZN11MobKeyboardD1Ev
	.stabs	"i:r(0,3)",64,0,34,10
	.stabn	192,0,0,LBB731-__ZN11MobKeyboardD1Ev
	.stabs	"l_layout:r(8,61)",64,0,36,9
	.stabn	192,0,0,LBB733-__ZN11MobKeyboardD1Ev
	.stabn	224,0,0,LBE733-__ZN11MobKeyboardD1Ev
	.stabs	"l_layout:r(8,61)",64,0,36,9
	.stabn	192,0,0,LBB740-__ZN11MobKeyboardD1Ev
	.stabs	"i:r(0,3)",64,0,146,7
	.stabn	192,0,0,LBB744-__ZN11MobKeyboardD1Ev
	.stabs	"l_button:r(8,39)",64,0,148,8
	.stabn	192,0,0,LBB746-__ZN11MobKeyboardD1Ev
	.stabs	"i:r(8,72)",64,0,197,16
	.stabn	192,0,0,LBB749-__ZN11MobKeyboardD1Ev
	.stabs	"newSize:r(0,3)",64,0,272,5
	.stabn	192,0,0,LBB752-__ZN11MobKeyboardD1Ev
	.stabs	"newData:r(8,72)",64,0,298,6
	.stabn	192,0,0,LBB757-__ZN11MobKeyboardD1Ev
	.stabn	224,0,0,LBE757-__ZN11MobKeyboardD1Ev
	.stabn	224,0,0,LBE752-__ZN11MobKeyboardD1Ev
	.stabn	224,0,0,LBE749-__ZN11MobKeyboardD1Ev
	.stabn	224,0,0,LBE746-__ZN11MobKeyboardD1Ev
	.stabn	224,0,0,LBE744-__ZN11MobKeyboardD1Ev
	.stabs	"i:r(0,26)",64,0,197,16
	.stabn	192,0,0,LBB760-__ZN11MobKeyboardD1Ev
	.stabs	"newSize:r(0,3)",64,0,272,5
	.stabn	192,0,0,LBB763-__ZN11MobKeyboardD1Ev
	.stabs	"newData:r(0,26)",64,0,298,6
	.stabn	192,0,0,LBB768-__ZN11MobKeyboardD1Ev
	.stabn	224,0,0,LBE768-__ZN11MobKeyboardD1Ev
	.stabn	224,0,0,LBE763-__ZN11MobKeyboardD1Ev
	.stabn	224,0,0,LBE760-__ZN11MobKeyboardD1Ev
	.stabn	224,0,0,LBE740-__ZN11MobKeyboardD1Ev
	.stabn	224,0,0,LBE731-__ZN11MobKeyboardD1Ev
Lscope33:
	.stabs	"_ZN11MobKeyboardD2Ev:F(0,6)",36,0,33,__ZN11MobKeyboardD2Ev
	.stabs	"this:P(0,90)",64,0,33,11
	.global	__ZN11MobKeyboardD2Ev

.func __ZN11MobKeyboardD2Ev, 1, void
	.stabs	"E:\\My Dropbox\\workspace\\GameCards\\MobidexANC\\UI\\MobKeyboard.cpp",132,0,0,Ltext196
Ltext196:
	.line 33
	push rt,d7
	ld   fr,sp
	add  fr,#0x28
	ld   d7,i0
	.dlab LBB769
	.line 33
	ld   r1,#__ZTV11MobKeyboard+8
	ld   [i0],r1
	ld   r14,#__ZTV11MobKeyboard+120
	ld   [i0,116],r14
	.dlab LBB770
	.dlab LBB771
	.dlab LBB772
	.stabs	"c:/MoSync/include/MAUtil/Vector.h",132,0,0,Ltext197
Ltext197:
	.line 265
	ld   d0,[i0,124]
	.dlab LBE772
	ld   d6,[d0]
	add  d6,#0xffffffff
	.stabs	"E:\\My Dropbox\\workspace\\GameCards\\MobidexANC\\UI\\MobKeyboard.cpp",132,0,0,Ltext198
Ltext198:
	.line 34
	ld   r1,#0x0
	jc   lt,d6,r1,#L914
L903:
	.dlab LBB773
	.dlab LBB774
	.dlab LBB775
	.dlab LBB776
	.stabs	"c:/MoSync/include/MAUtil/Vector.h",132,0,0,Ltext199
Ltext199:
	.line 362
	ld   r14,d6
	sll  r14,#0x2
	ld   i0,[d0,8]
	add  r14,i0
	.dlab LBE776
	.dlab LBE775
	ld   d5,[r14]
	.dlab LBB777
	.dlab LBB778
	.dlab LBB779
	.line 197
	ld   r0,r14
	.dlab LBB780
	.dlab LBB781
	.dlab LBB782
	.dlab LBB783
	.line 341
	ld   r2,[d0]
	ld   r1,r2
	sll  r1,#0x2
	add  r1,i0
	.dlab LBE783
	.dlab LBE782
	.line 206
	add  r1,#0xfffffffc
	jc   eq,r1,r14,#L916
L845:
	.line 205
	ld   r14,[r0,4]
	ld   [r0],r14
	.line 206
	add  r0,#0x4
	jc   ne,r1,r0,#L845
L916:
	.dlab LBB784
	.line 272
	ld   d1,r2
	add  d1,#0xffffffff
	.dlab LBB785
	.dlab LBB786
	.dlab LBB787
	.dlab LBB788
	.dlab LBB789
	.line 295
	ld   r14,[d0,4]
	jc   lt,r14,d1,#L933
L847:
	.dlab LBE789
	.dlab LBE788
	.dlab LBE787
	.dlab LBB790
	.line 281
	ld   r0,d1
	jc   le,r2,d1,#L920
L857:
	.line 282
	ld   r14,r0
	sll  r14,#0x2
	add  r14,i0
	ld   r1,#0x0
	ld   [r14],r1
	.line 281
	add  r0,#0x1
	jc   gt,r2,r0,#L857
L920:
	.dlab LBE790
	.line 285
	ld   [d0],d1
	.dlab LBE786
	.dlab LBE785
	.dlab LBE784
	.dlab LBE781
	.dlab LBE780
	.dlab LBE779
	.dlab LBE778
	.dlab LBE777
	.stabs	"E:\\My Dropbox\\workspace\\GameCards\\MobidexANC\\UI\\MobKeyboard.cpp",132,0,0,Ltext200
Ltext200:
	.line 38
	ld   r14,#0x0
	jc   eq,d5,r14,#L862
	.dlab LBB791
	.dlab LBB792
	.dlab LBB793
	.dlab LBB794
	.dlab LBB795
	.stabs	"c:/MoSync/include/MAUtil/Vector.h",132,0,0,Ltext201
Ltext201:
	.line 265
	ld   d0,[d5,12]
	.dlab LBE795
	ld   d3,[d0]
	add  d3,#0xffffffff
	.stabs	"E:\\My Dropbox\\workspace\\GameCards\\MobidexANC\\UI\\/MobKeyboard.h",132,0,0,Ltext202
Ltext202:
	.line 146
	jc   lt,d3,r14,#L922
L893:
	.dlab LBB796
	.dlab LBB797
	.dlab LBB798
	.dlab LBB799
	.stabs	"c:/MoSync/include/MAUtil/Vector.h",132,0,0,Ltext203
Ltext203:
	.line 362
	ld   r14,d3
	sll  r14,#0x2
	ld   i0,[d0,8]
	add  r14,i0
	.dlab LBE799
	.dlab LBE798
	ld   d4,[r14]
	.dlab LBB800
	.dlab LBB801
	.dlab LBB802
	.line 197
	ld   r0,r14
	.dlab LBB803
	.dlab LBB804
	.dlab LBB805
	.dlab LBB806
	.line 341
	ld   r2,[d0]
	ld   r1,r2
	sll  r1,#0x2
	add  r1,i0
	.dlab LBE806
	.dlab LBE805
	.line 206
	add  r1,#0xfffffffc
	jc   eq,r1,r14,#L924
L872:
	.line 205
	ld   r14,[r0,4]
	ld   [r0],r14
	.line 206
	add  r0,#0x4
	jc   ne,r1,r0,#L872
L924:
	.dlab LBB807
	.line 272
	ld   d1,r2
	add  d1,#0xffffffff
	.dlab LBB808
	.dlab LBB809
	.dlab LBB810
	.dlab LBB811
	.dlab LBB812
	.line 295
	ld   r14,[d0,4]
	jc   lt,r14,d1,#L934
L874:
	.dlab LBE812
	.dlab LBE811
	.dlab LBE810
	.dlab LBB813
	.line 281
	ld   r0,d1
	jc   le,r2,d1,#L928
L884:
	.line 282
	ld   r14,r0
	sll  r14,#0x2
	add  r14,i0
	ld   r1,#0x0
	ld   [r14],r1
	.line 281
	add  r0,#0x1
	jc   gt,r2,r0,#L884
L928:
	.dlab LBE813
	.line 285
	ld   [d0],d1
	.dlab LBE809
	.dlab LBE808
	.dlab LBE807
	.dlab LBE804
	.dlab LBE803
	.dlab LBE802
	.dlab LBE801
	.dlab LBE800
	.stabs	"E:\\My Dropbox\\workspace\\GameCards\\MobidexANC\\UI\\/MobKeyboard.h",132,0,0,Ltext204
Ltext204:
	.line 150
	ld   r14,#0x0
	jc   eq,d4,r14,#L889
	.dlab LBB814
	.dlab LBB815
	.line 97
	ld   i0,d4
	add  i0,#0x14
	call &__ZN6MAUtil11BasicStringIcED1Ev ; call non-native
	.dlab LBE815
	.dlab LBE814
	ld   i0,d4
	call &__ZdlPv ; call non-native
L889:
	.dlab LBE797
	.dlab LBE796
	.line 146
	add  d3,#0xffffffff
	ld   r1,#0x0
	jc   lt,d3,r1,#L935
	ld   d0,[d5,12]
	jp   #L893
L933:
	.dlab LBE794
	.dlab LBE793
	.dlab LBE792
	.dlab LBE791
	.dlab LBB816
	.dlab LBB817
	.dlab LBB818
	.dlab LBB819
	.dlab LBB820
	.dlab LBB821
	.dlab LBB822
	.dlab LBB823
	.dlab LBB824
	.dlab LBB825
	.dlab LBB826
	.stabs	"c:/MoSync/include/MAUtil/Vector.h",132,0,0,Ltext205
Ltext205:
	.line 298
	ld   i0,d1
	sll  i0,#0x2
	call &__Znam ; call non-native
	ld   d2,r14
	.dlab LBB827
	.line 300
	ld   r1,#0x0
	ld   r2,[d0]
	jc   le,r2,r1,#L929
	ld   i0,[d0,8]
L851:
	.line 301
	ld   r14,r1
	sll  r14,#0x2
	ld   r0,r14
	add  r0,d2
	add  r14,i0
	ld   r14,[r14]
	ld   [r0],r14
	.line 300
	add  r1,#0x1
	jc   gt,r2,r1,#L851
	.dlab LBE827
	.line 304
	ld   [d0,4],d1
	.line 305
	ld   r1,#0x0
	jc   ne,i0,r1,#L936
L853:
	.line 307
	ld   i0,d2
	ld   [d0,8],d2
	jp   #L847
L939:
	ld   d0,[d7,124]
L914:
	.dlab LBE826
	.dlab LBE825
	.dlab LBE824
	.dlab LBE823
	.dlab LBE822
	.dlab LBE821
	.dlab LBE820
	.dlab LBE819
	.dlab LBE818
	.dlab LBE817
	.dlab LBE816
	.dlab LBE774
	.dlab LBE773
	.dlab LBE771
	.stabs	"E:\\My Dropbox\\workspace\\GameCards\\MobidexANC\\UI\\MobKeyboard.cpp",132,0,0,Ltext206
Ltext206:
	.line 42
	ld   r1,#0x0
	jc   eq,d0,r1,#L905
	.dlab LBB828
	.dlab LBB829
	.stabs	"c:/MoSync/include/MAUtil/Vector.h",132,0,0,Ltext207
Ltext207:
	.line 143
	ld   i0,[d0,8]
	jc   ne,i0,r1,#L937
L910:
	.dlab LBE829
	.dlab LBE828
	ld   i0,d0
	call &__ZdlPv ; call non-native
L905:
	.stabs	"E:\\My Dropbox\\workspace\\GameCards\\MobidexANC\\UI\\MobKeyboard.cpp",132,0,0,Ltext208
Ltext208:
	.line 43
	ld   r14,#0x0
	ld   [d7,124],r14
	.dlab LBE770
	ld   i0,d7
	add  i0,#0x74
	call &__ZN6MAUtil15PointerListenerD2Ev ; call non-native
	ld   i0,d7
	call &__ZN4MAUI6WidgetD2Ev ; call non-native
	.dlab LBE769
	.line 44
	pop  rt,d7
	ret
L934:
	.dlab LBB830
	.dlab LBB831
	.dlab LBB832
	.dlab LBB833
	.dlab LBB834
	.dlab LBB835
	.dlab LBB836
	.dlab LBB837
	.dlab LBB838
	.dlab LBB839
	.dlab LBB840
	.dlab LBB841
	.dlab LBB842
	.dlab LBB843
	.dlab LBB844
	.dlab LBB845
	.dlab LBB846
	.dlab LBB847
	.dlab LBB848
	.dlab LBB849
	.dlab LBB850
	.dlab LBB851
	.stabs	"c:/MoSync/include/MAUtil/Vector.h",132,0,0,Ltext209
Ltext209:
	.line 298
	ld   i0,d1
	sll  i0,#0x2
	call &__Znam ; call non-native
	ld   d2,r14
	.dlab LBB852
	.line 300
	ld   r1,#0x0
	ld   r2,[d0]
	jc   le,r2,r1,#L930
	ld   i0,[d0,8]
L878:
	.line 301
	ld   r14,r1
	sll  r14,#0x2
	ld   r0,r14
	add  r0,d2
	add  r14,i0
	ld   r14,[r14]
	ld   [r0],r14
	.line 300
	add  r1,#0x1
	jc   gt,r2,r1,#L878
	.dlab LBE852
	.line 304
	ld   [d0,4],d1
	.line 305
	ld   r1,#0x0
	jc   ne,i0,r1,#L938
L880:
	.line 307
	ld   i0,d2
	ld   [d0,8],d2
	jp   #L874
L938:
	.line 305
	call &__ZdaPv ; call non-native
	ld   r2,[d0]
	.line 307
	ld   i0,d2
	ld   [d0,8],d2
	jp   #L874
L936:
	.dlab LBE851
	.dlab LBE850
	.dlab LBE849
	.dlab LBE848
	.dlab LBE847
	.dlab LBE846
	.dlab LBE845
	.dlab LBE844
	.dlab LBE843
	.dlab LBE842
	.dlab LBE841
	.dlab LBE840
	.dlab LBE839
	.dlab LBE838
	.dlab LBE837
	.dlab LBE836
	.dlab LBE835
	.dlab LBB853
	.dlab LBB854
	.dlab LBB855
	.dlab LBB856
	.dlab LBB857
	.dlab LBB858
	.dlab LBB859
	.dlab LBB860
	.dlab LBB861
	.dlab LBB862
	.dlab LBB863
	.line 305
	call &__ZdaPv ; call non-native
	ld   r2,[d0]
	.line 307
	ld   i0,d2
	ld   [d0,8],d2
	jp   #L847
L937:
	.dlab LBE863
	.dlab LBE862
	.dlab LBE861
	.dlab LBE860
	.dlab LBE859
	.dlab LBE858
	.dlab LBE857
	.dlab LBE856
	.dlab LBE855
	.dlab LBE854
	.dlab LBE853
	.dlab LBE834
	.dlab LBE833
	.dlab LBE832
	.dlab LBB864
	.dlab LBB865
	.line 143
	call &__ZdaPv ; call non-native
	jp   #L910
L935:
	ld   d0,[d5,12]
L922:
	.dlab LBE865
	.dlab LBE864
	.dlab LBB866
	.dlab LBB867
	.dlab LBB868
	.dlab LBB869
	.dlab LBB870
	.dlab LBB871
	.stabs	"E:\\My Dropbox\\workspace\\GameCards\\MobidexANC\\UI\\/MobKeyboard.h",132,0,0,Ltext210
Ltext210:
	.line 154
	ld   r14,#0x0
	jc   eq,d0,r14,#L895
	.dlab LBB872
	.dlab LBB873
	.stabs	"c:/MoSync/include/MAUtil/Vector.h",132,0,0,Ltext211
Ltext211:
	.line 143
	ld   i0,[d0,8]
	jc   eq,i0,r14,#L900
	call &__ZdaPv ; call non-native
L900:
	.dlab LBE873
	.dlab LBE872
	ld   i0,d0
	call &__ZdlPv ; call non-native
L895:
	.stabs	"E:\\My Dropbox\\workspace\\GameCards\\MobidexANC\\UI\\/MobKeyboard.h",132,0,0,Ltext212
Ltext212:
	.line 155
	ld   r1,#0x0
	ld   [d5,12],r1
	.dlab LBE871
	ld   i0,d5
	add  i0,#0x4
	call &__ZN6MAUtil11BasicStringIcED1Ev ; call non-native
	ld   i0,d5
	call &__ZN6MAUtil11BasicStringIcED1Ev ; call non-native
	.dlab LBE870
	.dlab LBE869
	ld   i0,d5
	call &__ZdlPv ; call non-native
L862:
	.dlab LBE868
	.dlab LBE867
	.stabs	"E:\\My Dropbox\\workspace\\GameCards\\MobidexANC\\UI\\MobKeyboard.cpp",132,0,0,Ltext213
Ltext213:
	.line 34
	add  d6,#0xffffffff
	ld   r14,#0x0
	jc   lt,d6,r14,#L939
	ld   d0,[d7,124]
	jp   #L903
L930:
	ld   i0,[d0,8]
	.dlab LBB874
	.dlab LBB875
	.dlab LBB876
	.dlab LBB877
	.dlab LBB878
	.dlab LBB879
	.dlab LBB880
	.dlab LBB881
	.dlab LBB882
	.dlab LBB883
	.dlab LBB884
	.dlab LBB885
	.dlab LBB886
	.dlab LBB887
	.dlab LBB888
	.dlab LBB889
	.dlab LBB890
	.dlab LBB891
	.dlab LBB892
	.stabs	"c:/MoSync/include/MAUtil/Vector.h",132,0,0,Ltext214
Ltext214:
	.line 304
	ld   [d0,4],d1
	.line 305
	ld   r1,#0x0
	jc   eq,i0,r1,#L880
	jp   #L938
L929:
	ld   i0,[d0,8]
	.dlab LBE892
	.dlab LBE891
	.dlab LBE890
	.dlab LBE889
	.dlab LBE888
	.dlab LBE887
	.dlab LBE886
	.dlab LBE885
	.dlab LBE884
	.dlab LBE883
	.dlab LBE882
	.dlab LBE881
	.dlab LBE880
	.dlab LBE879
	.dlab LBE878
	.dlab LBE877
	.dlab LBE876
	.dlab LBB893
	.dlab LBB894
	.dlab LBB895
	.dlab LBB896
	.dlab LBB897
	.dlab LBB898
	.dlab LBB899
	.dlab LBB900
	.dlab LBB901
	.dlab LBB902
	.dlab LBB903
	.line 304
	ld   [d0,4],d1
	.line 305
	ld   r1,#0x0
	jc   eq,i0,r1,#L853
	jp   #L936
	.dlab LBE903
	.dlab LBE902
	.dlab LBE901
	.dlab LBE900
	.dlab LBE899
	.dlab LBE898
	.dlab LBE897
	.dlab LBE896
	.dlab LBE895
	.dlab LBE894
	.dlab LBE893
	.dlab LBE875
	.dlab LBE874
	.dlab LBE866
	.dlab LBE831
	.dlab LBE830
	.stabs	"i:r(0,3)",64,0,34,10
	.stabn	192,0,0,LBB771-__ZN11MobKeyboardD2Ev
	.stabs	"l_layout:r(8,61)",64,0,36,9
	.stabn	192,0,0,LBB774-__ZN11MobKeyboardD2Ev
	.stabs	"i:r(0,26)",64,0,197,16
	.stabn	192,0,0,LBB779-__ZN11MobKeyboardD2Ev
	.stabs	"newSize:r(0,3)",64,0,272,5
	.stabn	192,0,0,LBB784-__ZN11MobKeyboardD2Ev
	.stabs	"newData:r(0,26)",64,0,298,6
	.stabn	192,0,0,LBB789-__ZN11MobKeyboardD2Ev
	.stabn	224,0,0,LBE789-__ZN11MobKeyboardD2Ev
	.stabs	"i:r(0,3)",64,0,281,16
	.stabn	192,0,0,LBB790-__ZN11MobKeyboardD2Ev
	.stabn	224,0,0,LBE790-__ZN11MobKeyboardD2Ev
	.stabn	224,0,0,LBE784-__ZN11MobKeyboardD2Ev
	.stabn	224,0,0,LBE779-__ZN11MobKeyboardD2Ev
	.stabs	"i:r(0,3)",64,0,146,7
	.stabn	192,0,0,LBB794-__ZN11MobKeyboardD2Ev
	.stabs	"l_button:r(8,39)",64,0,148,8
	.stabn	192,0,0,LBB797-__ZN11MobKeyboardD2Ev
	.stabs	"i:r(8,72)",64,0,197,16
	.stabn	192,0,0,LBB802-__ZN11MobKeyboardD2Ev
	.stabs	"newSize:r(0,3)",64,0,272,5
	.stabn	192,0,0,LBB807-__ZN11MobKeyboardD2Ev
	.stabs	"newData:r(8,72)",64,0,298,6
	.stabn	192,0,0,LBB812-__ZN11MobKeyboardD2Ev
	.stabn	224,0,0,LBE812-__ZN11MobKeyboardD2Ev
	.stabs	"i:r(0,3)",64,0,281,16
	.stabn	192,0,0,LBB813-__ZN11MobKeyboardD2Ev
	.stabn	224,0,0,LBE813-__ZN11MobKeyboardD2Ev
	.stabn	224,0,0,LBE807-__ZN11MobKeyboardD2Ev
	.stabn	224,0,0,LBE802-__ZN11MobKeyboardD2Ev
	.stabn	224,0,0,LBE797-__ZN11MobKeyboardD2Ev
	.stabn	224,0,0,LBE794-__ZN11MobKeyboardD2Ev
	.stabs	"i:r(0,26)",64,0,197,16
	.stabn	192,0,0,LBB818-__ZN11MobKeyboardD2Ev
	.stabs	"newSize:r(0,3)",64,0,272,5
	.stabn	192,0,0,LBB821-__ZN11MobKeyboardD2Ev
	.stabs	"newData:r(0,26)",64,0,298,6
	.stabn	192,0,0,LBB826-__ZN11MobKeyboardD2Ev
	.stabs	"i:r(0,3)",64,0,300,17
	.stabn	192,0,0,LBB827-__ZN11MobKeyboardD2Ev
	.stabn	224,0,0,LBE827-__ZN11MobKeyboardD2Ev
	.stabn	224,0,0,LBE826-__ZN11MobKeyboardD2Ev
	.stabn	224,0,0,LBE821-__ZN11MobKeyboardD2Ev
	.stabn	224,0,0,LBE818-__ZN11MobKeyboardD2Ev
	.stabn	224,0,0,LBE774-__ZN11MobKeyboardD2Ev
	.stabn	224,0,0,LBE771-__ZN11MobKeyboardD2Ev
	.stabs	"i:r(0,3)",64,0,34,10
	.stabn	192,0,0,LBB832-__ZN11MobKeyboardD2Ev
	.stabs	"l_layout:r(8,61)",64,0,36,9
	.stabn	192,0,0,LBB834-__ZN11MobKeyboardD2Ev
	.stabs	"i:r(0,3)",64,0,146,7
	.stabn	192,0,0,LBB838-__ZN11MobKeyboardD2Ev
	.stabs	"l_button:r(8,39)",64,0,148,8
	.stabn	192,0,0,LBB840-__ZN11MobKeyboardD2Ev
	.stabs	"i:r(8,72)",64,0,197,16
	.stabn	192,0,0,LBB843-__ZN11MobKeyboardD2Ev
	.stabs	"newSize:r(0,3)",64,0,272,5
	.stabn	192,0,0,LBB846-__ZN11MobKeyboardD2Ev
	.stabs	"newData:r(8,72)",64,0,298,6
	.stabn	192,0,0,LBB851-__ZN11MobKeyboardD2Ev
	.stabs	"i:r(0,3)",64,0,300,17
	.stabn	192,0,0,LBB852-__ZN11MobKeyboardD2Ev
	.stabn	224,0,0,LBE852-__ZN11MobKeyboardD2Ev
	.stabn	224,0,0,LBE851-__ZN11MobKeyboardD2Ev
	.stabn	224,0,0,LBE846-__ZN11MobKeyboardD2Ev
	.stabn	224,0,0,LBE843-__ZN11MobKeyboardD2Ev
	.stabn	224,0,0,LBE840-__ZN11MobKeyboardD2Ev
	.stabn	224,0,0,LBE838-__ZN11MobKeyboardD2Ev
	.stabs	"i:r(0,26)",64,0,197,16
	.stabn	192,0,0,LBB855-__ZN11MobKeyboardD2Ev
	.stabs	"newSize:r(0,3)",64,0,272,5
	.stabn	192,0,0,LBB858-__ZN11MobKeyboardD2Ev
	.stabs	"newData:r(0,26)",64,0,298,6
	.stabn	192,0,0,LBB863-__ZN11MobKeyboardD2Ev
	.stabn	224,0,0,LBE863-__ZN11MobKeyboardD2Ev
	.stabn	224,0,0,LBE858-__ZN11MobKeyboardD2Ev
	.stabn	224,0,0,LBE855-__ZN11MobKeyboardD2Ev
	.stabn	224,0,0,LBE834-__ZN11MobKeyboardD2Ev
	.stabn	224,0,0,LBE832-__ZN11MobKeyboardD2Ev
	.stabs	"i:r(0,3)",64,0,34,10
	.stabn	192,0,0,LBB866-__ZN11MobKeyboardD2Ev
	.stabs	"l_layout:r(8,61)",64,0,36,9
	.stabn	192,0,0,LBB868-__ZN11MobKeyboardD2Ev
	.stabn	224,0,0,LBE868-__ZN11MobKeyboardD2Ev
	.stabs	"l_layout:r(8,61)",64,0,36,9
	.stabn	192,0,0,LBB875-__ZN11MobKeyboardD2Ev
	.stabs	"i:r(0,3)",64,0,146,7
	.stabn	192,0,0,LBB879-__ZN11MobKeyboardD2Ev
	.stabs	"l_button:r(8,39)",64,0,148,8
	.stabn	192,0,0,LBB881-__ZN11MobKeyboardD2Ev
	.stabs	"i:r(8,72)",64,0,197,16
	.stabn	192,0,0,LBB884-__ZN11MobKeyboardD2Ev
	.stabs	"newSize:r(0,3)",64,0,272,5
	.stabn	192,0,0,LBB887-__ZN11MobKeyboardD2Ev
	.stabs	"newData:r(8,72)",64,0,298,6
	.stabn	192,0,0,LBB892-__ZN11MobKeyboardD2Ev
	.stabn	224,0,0,LBE892-__ZN11MobKeyboardD2Ev
	.stabn	224,0,0,LBE887-__ZN11MobKeyboardD2Ev
	.stabn	224,0,0,LBE884-__ZN11MobKeyboardD2Ev
	.stabn	224,0,0,LBE881-__ZN11MobKeyboardD2Ev
	.stabn	224,0,0,LBE879-__ZN11MobKeyboardD2Ev
	.stabs	"i:r(0,26)",64,0,197,16
	.stabn	192,0,0,LBB895-__ZN11MobKeyboardD2Ev
	.stabs	"newSize:r(0,3)",64,0,272,5
	.stabn	192,0,0,LBB898-__ZN11MobKeyboardD2Ev
	.stabs	"newData:r(0,26)",64,0,298,6
	.stabn	192,0,0,LBB903-__ZN11MobKeyboardD2Ev
	.stabn	224,0,0,LBE903-__ZN11MobKeyboardD2Ev
	.stabn	224,0,0,LBE898-__ZN11MobKeyboardD2Ev
	.stabn	224,0,0,LBE895-__ZN11MobKeyboardD2Ev
	.stabn	224,0,0,LBE875-__ZN11MobKeyboardD2Ev
	.stabn	224,0,0,LBE866-__ZN11MobKeyboardD2Ev
Lscope34:
.data
LC173:
	.ascii "ABCDEFGHIJKLMNOPQRSTUVWXYZabcdefghijklmnopqrstuvwxyz0123456789+/\0"
LC174:
	.ascii "http://mobidex.mytcg.net/_phone/\0"
LC175:
	.ascii "?userdetails=1\0"
LC176:
	.ascii "?usercategories=1\0"
LC177:
	.ascii "?getcards=1\0"
LC178:
	.ascii "?tradecard=1\0"
.code
	.stabs	"_Z41__static_initialization_and_destruction_0ii:f(0,6)",36,0,595,__Z41__static_initialization_and_destruction_0ii
	.stabs	"__initialize_p:P(0,3)",64,0,595,12
	.stabs	"__priority:P(0,3)",64,0,595,13

.func __Z41__static_initialization_and_destruction_0ii, 2, void
	.stabs	"E:\\My Dropbox\\workspace\\GameCards\\MobidexANC\\UI\\MobKeyboard.cpp",132,0,0,Ltext215
Ltext215:
	.line 595
	push rt,d0
	sub  sp,#0x4
	ld   fr,sp
	add  fr,#0x10
	.stabs	"E:\\My Dropbox\\workspace\\GameCards\\MobidexANC\\UI\\/../Util.h",132,0,0,Ltext216
Ltext216:
	.line 61
	ld   r14,#0xffff
	jc   eq,i1,r14,#L976
L940:
	.stabs	"E:\\My Dropbox\\workspace\\GameCards\\MobidexANC\\UI\\MobKeyboard.cpp",132,0,0,Ltext217
Ltext217:
	.line 595
	add  sp,#0x4
	pop  rt,d0
	ret
L976:
	.stabs	"E:\\My Dropbox\\workspace\\GameCards\\MobidexANC\\UI\\/../Util.h",132,0,0,Ltext218
Ltext218:
	.line 61
	ld   r14,#0x1
	jc   eq,i0,r14,#L977
	.line 77
	ld   r14,#0x0
	jc   ne,i0,r14,#L940
	ld   i0,#_TRADE
	call &__ZN6MAUtil11BasicStringIcED1Ev ; call non-native
	.line 75
	ld   i0,#_CARDS
	call &__ZN6MAUtil11BasicStringIcED1Ev ; call non-native
	.line 73
	ld   i0,#_ALBUMS
	call &__ZN6MAUtil11BasicStringIcED1Ev ; call non-native
	.line 71
	ld   i0,#_USER
	call &__ZN6MAUtil11BasicStringIcED1Ev ; call non-native
	.line 69
	ld   i0,#_URL
	call &__ZN6MAUtil11BasicStringIcED1Ev ; call non-native
	.line 61
	ld   i0,#_base64_chars
	call &__ZN6MAUtil11BasicStringIcED1Ev ; call non-native
L978:
	.stabs	"E:\\My Dropbox\\workspace\\GameCards\\MobidexANC\\UI\\MobKeyboard.cpp",132,0,0,Ltext219
Ltext219:
	.line 595
	add  sp,#0x4
	pop  rt,d0
	ret
L977:
	.stabs	"E:\\My Dropbox\\workspace\\GameCards\\MobidexANC\\UI\\/../Util.h",132,0,0,Ltext220
Ltext220:
	.line 65
	ld   i0,#_base64_chars
	ld   i1,#LC173
	call &__ZN6MAUtil11BasicStringIcEC1EPKc ; call non-native
	.line 69
	ld   i0,#_URL
	ld   i1,#LC174
	call &__ZN6MAUtil11BasicStringIcEC1EPKc ; call non-native
	.line 71
	ld   d0,fr
	add  d0,#0xfffffff0
	ld   i0,d0
	ld   i1,#LC175
	call &__ZN6MAUtil11BasicStringIcEC1EPKc ; call non-native
	ld   i0,#_USER
	ld   i1,#_URL
	ld   i2,d0
	call &__ZNK6MAUtil11BasicStringIcEplERKS1_ ; call non-native
	ld   i0,d0
	call &__ZN6MAUtil11BasicStringIcED1Ev ; call non-native
	.line 73
	ld   i0,d0
	ld   i1,#LC176
	call &__ZN6MAUtil11BasicStringIcEC1EPKc ; call non-native
	ld   i0,#_ALBUMS
	ld   i1,#_URL
	ld   i2,d0
	call &__ZNK6MAUtil11BasicStringIcEplERKS1_ ; call non-native
	ld   i0,d0
	call &__ZN6MAUtil11BasicStringIcED1Ev ; call non-native
	.line 75
	ld   i0,d0
	ld   i1,#LC177
	call &__ZN6MAUtil11BasicStringIcEC1EPKc ; call non-native
	ld   i0,#_CARDS
	ld   i1,#_URL
	ld   i2,d0
	call &__ZNK6MAUtil11BasicStringIcEplERKS1_ ; call non-native
	ld   i0,d0
	call &__ZN6MAUtil11BasicStringIcED1Ev ; call non-native
	.line 77
	ld   i0,d0
	ld   i1,#LC178
	call &__ZN6MAUtil11BasicStringIcEC1EPKc ; call non-native
	ld   i0,#_TRADE
	ld   i1,#_URL
	ld   i2,d0
	call &__ZNK6MAUtil11BasicStringIcEplERKS1_ ; call non-native
	ld   i0,d0
	.line 61
	call &__ZN6MAUtil11BasicStringIcED1Ev ; call non-native
	jp   #L978
Lscope35:
	.stabs	"_GLOBAL__I__ZN11MobKeyboardC2Eiiii:f(0,6)",36,0,596,__GLOBAL__I__ZN11MobKeyboardC2Eiiii

.func __GLOBAL__I__ZN11MobKeyboardC2Eiiii, 0, void
	.stabs	"E:\\My Dropbox\\workspace\\GameCards\\MobidexANC\\UI\\MobKeyboard.cpp",132,0,0,Ltext221
Ltext221:
	.line 596
	push rt,fr
	ld   fr,sp
	add  fr,#0x8
	.line 596
	ld   i0,#0x1
	ld   i1,#0xffff
	call &__Z41__static_initialization_and_destruction_0ii ; call non-native
	pop  rt,fr
	ret
Lscope36:
	.stabs	"_GLOBAL__D__ZN11MobKeyboardC2Eiiii:f(0,6)",36,0,597,__GLOBAL__D__ZN11MobKeyboardC2Eiiii

.func __GLOBAL__D__ZN11MobKeyboardC2Eiiii, 0, void
	.line 597
	push rt,fr
	ld   fr,sp
	add  fr,#0x8
	.line 597
	ld   i0,#0x0
	ld   i1,#0xffff
	call &__Z41__static_initialization_and_destruction_0ii ; call non-native
	pop  rt,fr
	ret
Lscope37:
	.stabs	"base64_chars:S(8,43)",40,0,61,_base64_chars
	.stabs	"URL:S(11,1)",40,0,69,_URL
	.stabs	"USER:S(11,1)",40,0,71,_USER
	.stabs	"ALBUMS:S(11,1)",40,0,73,_ALBUMS
	.stabs	"CARDS:S(11,1)",40,0,75,_CARDS
	.stabs	"TRADE:S(11,1)",40,0,77,_TRADE
	.text
	.stabs "",100,0,0,Letext
Letext:
