.model full
	.sourcedir 'E:\My Dropbox\workspace\GameCards\BTVouchers/'
	.sourcefile 'E:\My Dropbox\workspace\GameCards\BTVouchers\Login.cpp'
	.stabs	"gcc2_compiled.",60,0,0,0
	.stabs	"__vtbl_ptr_type:t(0,1)=*(0,2)=f(0,3)=r(0,3);-2147483648;2147483647;",128,0,0,0
	.stabs	"bool:t(0,4)=@s8;-16;",128,0,0,0
	.stabs	"wchar_t:t(0,5)=@s16;r(0,5);0;65535;",128,0,0,0
	.stabs	"void:t(0,6)=(0,6)",128,0,0,0
	.stabs	"long double:t(0,7)=r(0,3);8;0;",128,0,0,0
	.stabs	"double:t(0,8)=r(0,3);8;0;",128,0,0,0
	.stabs	"float:t(0,9)=r(0,3);4;0;",128,0,0,0
	.stabs	"unsigned char:t(0,10)=@s8;r(0,10);0;255;",128,0,0,0
	.stabs	"signed char:t(0,11)=@s8;r(0,11);-128;127;",128,0,0,0
	.stabs	"short unsigned int:t(0,12)=@s16;r(0,12);0;65535;",128,0,0,0
	.stabs	"short int:t(0,13)=@s16;r(0,13);-32768;32767;",128,0,0,0
	.stabs	"long long unsigned int:t(0,14)=@s64;r(0,14);0000000000000;01777777777777777777777;",128,0,0,0
	.stabs	"long long int:t(0,15)=@s64;r(0,15);01000000000000000000000;0777777777777777777777;",128,0,0,0
	.stabs	"long unsigned int:t(0,16)=r(0,16);0000000000000;0037777777777;",128,0,0,0
	.stabs	"unsigned int:t(0,17)=r(0,17);0000000000000;0037777777777;",128,0,0,0
	.stabs	"long int:t(0,18)=r(0,18);-2147483648;2147483647;",128,0,0,0
	.stabs	"int:t(0,3)",128,0,0,0
	.stabs	"char:t(0,19)=r(0,19);0;127;",128,0,0,0
	.stabs	"__builtin_va_list:t(0,20)=*(0,6)",128,0,0,0
	.stabs	"complex long double:t(0,21)=R3;16;0;",128,0,0,0
	.stabs	"complex double:t(0,22)=R3;16;0;",128,0,0,0
	.stabs	"complex float:t(0,23)=R3;8;0;",128,0,0,0
	.stabs	"complex int:t(0,24)=s8real:(0,3),0,32;imag:(0,3),32,32;;",128,0,0,0
	.stabs	"c:/MoSync/include/mastdlib.h",130,0,0,0
	.stabs	"c:/MoSync/include/ma.h",130,0,0,0
	.stabs	"c:/MoSync/include/maapi.h",130,0,0,0
	.stabs	"c:/MoSync/include/maapi_defs.h",130,0,0,0
	.stabs	"MA_DV:Tt(4,1)=u8:(4,2)=s8hi:(0,3),0,32;lo:(0,3),32,32;;,0,64;ll:(0,15),0,64;d:(0,8),0,64;operator=::(4,3)=#(4,1),(4,4)=&(4,1),(4,5)=*(4,1),(4,6)=&(4,7)=k(4,1),(0,6);:_ZN5MA_DVaSERKS_;2A.;__base_ctor::(4,8)=#(4,1),(0,6),(4,5),(4,6),(0,6);:_ZN5MA_DVC2ERKS_;2A.;__comp_ctor::(4,8):_ZN5MA_DVC1ERKS_;2A.;__base_ctor::(4,9)=#(4,1),(0,6),(4,5),(0,6);:_ZN5MA_DVC2Ev;2A.;__comp_ctor::(4,9):_ZN5MA_DVC1Ev;2A.;;",128,0,54,0
	.stabs	"MA_FV:Tt(4,10)=u4f:(0,9),0,32;i:(0,3),0,32;operator=::(4,11)=#(4,10),(4,12)=&(4,10),(4,13)=*(4,10),(4,14)=&(4,15)=k(4,10),(0,6);:_ZN5MA_FVaSERKS_;2A.;__base_ctor::(4,16)=#(4,10),(0,6),(4,13),(4,14),(0,6);:_ZN5MA_FVC2ERKS_;2A.;__comp_ctor::(4,16):_ZN5MA_FVC1ERKS_;2A.;__base_ctor::(4,17)=#(4,10),(0,6),(4,13),(0,6);:_ZN5MA_FVC2Ev;2A.;__comp_ctor::(4,17):_ZN5MA_FVC1Ev;2A.;;",128,0,72,0
	.stabn	162,0,0,0
	.stabs	"wchar:t(3,1)=(0,5)",128,0,84,0
	.stabs	"ushort:t(3,2)=(0,12)",128,0,96,0
	.stabs	"uint:t(3,3)=(0,17)",128,0,97,0
	.stabs	"MAString:t(3,4)=(3,5)=*(0,19)",128,0,100,0
	.stabs	"MAWString:t(3,6)=(3,7)=*(3,1)",128,0,101,0
	.stabs	"MAAddress:t(3,8)=(3,9)=*(0,6)",128,0,102,0
	.stabs	"MAHandle:t(3,10)=(0,3)",128,0,103,0
	.stabs	"MAExtent:t(3,11)=(0,3)",128,0,104,0
	.stabs	"byte:t(3,12)=(0,10)",128,0,105,0
	.stabs	"ulong:t(3,13)=(0,16)",128,0,106,0
	.stabs	"longlong:t(3,14)=(0,15)",128,0,107,0
	.stabs	"MAPoint2d:Tt(3,15)=s8x:(0,3),0,32;y:(0,3),32,32;operator=::(3,16)=#(3,15),(3,17)=&(3,15),(3,18)=*(3,15),(3,19)=&(3,20)=k(3,15),(0,6);:_ZN9MAPoint2daSERKS_;2A.;__base_ctor::(3,21)=#(3,15),(0,6),(3,18),(3,19),(0,6);:_ZN9MAPoint2dC2ERKS_;2A.;__comp_ctor::(3,21):_ZN9MAPoint2dC1ERKS_;2A.;__base_ctor::(3,22)=#(3,15),(0,6),(3,18),(0,6);:_ZN9MAPoint2dC2Ev;2A.;__comp_ctor::(3,22):_ZN9MAPoint2dC1Ev;2A.;;",128,0,626,0
	.stabs	"MAPoint2d:t(3,23)=(3,15)",128,0,629,0
	.stabs	"MARect:Tt(3,24)=s16left:(0,3),0,32;top:(0,3),32,32;width:(0,3),64,32;height:(0,3),96,32;operator=::(3,25)=#(3,24),(3,26)=&(3,24),(3,27)=*(3,24),(3,28)=&(3,29)=k(3,24),(0,6);:_ZN6MARectaSERKS_;2A.;__base_ctor::(3,30)=#(3,24),(0,6),(3,27),(3,28),(0,6);:_ZN6MARectC2ERKS_;2A.;__comp_ctor::(3,30):_ZN6MARectC1ERKS_;2A.;__base_ctor::(3,31)=#(3,24),(0,6),(3,27),(0,6);:_ZN6MARectC2Ev;2A.;__comp_ctor::(3,31):_ZN6MARectC1Ev;2A.;;",128,0,637,0
	.stabs	"MARect:t(3,32)=(3,24)",128,0,642,0
	.stabs	"MACopyData:Tt(3,33)=s20dst:(3,10),0,32;dstOffset:(0,3),32,32;src:(3,10),64,32;srcOffset:(0,3),96,32;size:(0,3),128,32;operator=::(3,34)=#(3,33),(3,35)=&(3,33),(3,36)=*(3,33),(3,37)=&(3,38)=k(3,33),(0,6);:_ZN10MACopyDataaSERKS_;2A.;__base_ctor::(3,39)=#(3,33),(0,6),(3,36),(3,37),(0,6);:_ZN10MACopyDataC2ERKS_;2A.;__comp_ctor::(3,39):_ZN10MACopyDataC1ERKS_;2A.;__base_ctor::(3,40)=#(3,33),(0,6),(3,36),(0,6);:_ZN10MACopyDataC2Ev;2A.;__comp_ctor::(3,40):_ZN10MACopyDataC1Ev;2A.;;",128,0,647,0
	.stabs	"MACopyData:t(3,41)=(3,33)",128,0,653,0
	.stabs	"MAConnAddrInet4:Tt(3,42)=s8addr:(0,3),0,32;port:(0,3),32,32;operator=::(3,43)=#(3,42),(3,44)=&(3,42),(3,45)=*(3,42),(3,46)=&(3,47)=k(3,42),(0,6);:_ZN15MAConnAddrInet4aSERKS_;2A.;__base_ctor::(3,48)=#(3,42),(0,6),(3,45),(3,46),(0,6);:_ZN15MAConnAddrInet4C2ERKS_;2A.;__comp_ctor::(3,48):_ZN15MAConnAddrInet4C1ERKS_;2A.;__base_ctor::(3,49)=#(3,42),(0,6),(3,45),(0,6);:_ZN15MAConnAddrInet4C2Ev;2A.;__comp_ctor::(3,49):_ZN15MAConnAddrInet4C1Ev;2A.;;",128,0,658,0
	.stabs	"MAConnAddrInet4:t(3,50)=(3,42)",128,0,661,0
	.stabs	"MABtAddr:Tt(3,51)=s6a:(3,52)=ar(3,53)=r(3,53);0000000000000;0037777777777;;0;5;(3,12),0,48;operator=::(3,54)=#(3,51),(3,55)=&(3,51),(3,56)=*(3,51),(3,57)=&(3,58)=k(3,51),(0,6);:_ZN8MABtAddraSERKS_;2A.;__base_ctor::(3,59)=#(3,51),(0,6),(3,56),(3,57),(0,6);:_ZN8MABtAddrC2ERKS_;2A.;__comp_ctor::(3,59):_ZN8MABtAddrC1ERKS_;2A.;__base_ctor::(3,60)=#(3,51),(0,6),(3,56),(0,6);:_ZN8MABtAddrC2Ev;2A.;__comp_ctor::(3,60):_ZN8MABtAddrC1Ev;2A.;;",128,0,666,0
	.stabs	"MABtAddr:t(3,61)=(3,51)",128,0,668,0
	.stabs	"MAConnAddrBt:Tt(3,62)=s12port:(0,3),0,32;addr:(3,61),32,48;operator=::(3,63)=#(3,62),(3,64)=&(3,62),(3,65)=*(3,62),(3,66)=&(3,67)=k(3,62),(0,6);:_ZN12MAConnAddrBtaSERKS_;2A.;__base_ctor::(3,68)=#(3,62),(0,6),(3,65),(3,66),(0,6);:_ZN12MAConnAddrBtC2ERKS_;2A.;__comp_ctor::(3,68):_ZN12MAConnAddrBtC1ERKS_;2A.;__base_ctor::(3,69)=#(3,62),(0,6),(3,65),(0,6);:_ZN12MAConnAddrBtC2Ev;2A.;__comp_ctor::(3,69):_ZN12MAConnAddrBtC1Ev;2A.;;",128,0,673,0
	.stabs	"MAConnAddrBt:t(3,70)=(3,62)",128,0,676,0
	.stabs	"MAConnAddr:Tt(3,71)=s16family:(0,3),0,32;:(3,72)=u12inet4:(3,50),0,64;bt:(3,70),0,96;;,32,96;operator=::(3,73)=#(3,71),(3,74)=&(3,71),(3,75)=*(3,71),(3,76)=&(3,77)=k(3,71),(0,6);:_ZN10MAConnAddraSERKS_;2A.;__base_ctor::(3,78)=#(3,71),(0,6),(3,75),(3,76),(0,6);:_ZN10MAConnAddrC2ERKS_;2A.;__comp_ctor::(3,78):_ZN10MAConnAddrC1ERKS_;2A.;__base_ctor::(3,79)=#(3,71),(0,6),(3,75),(0,6);:_ZN10MAConnAddrC2Ev;2A.;__comp_ctor::(3,79):_ZN10MAConnAddrC1Ev;2A.;;",128,0,681,0
	.stabs	"MAConnAddr:t(3,80)=(3,71)",128,0,690,0
	.stabs	"MAConnEventData:Tt(3,81)=s12handle:(3,10),0,32;opType:(0,3),32,32;result:(0,3),64,32;operator=::(3,82)=#(3,81),(3,83)=&(3,81),(3,84)=*(3,81),(3,85)=&(3,86)=k(3,81),(0,6);:_ZN15MAConnEventDataaSERKS_;2A.;__base_ctor::(3,87)=#(3,81),(0,6),(3,84),(3,85),(0,6);:_ZN15MAConnEventDataC2ERKS_;2A.;__comp_ctor::(3,87):_ZN15MAConnEventDataC1ERKS_;2A.;__base_ctor::(3,88)=#(3,81),(0,6),(3,84),(0,6);:_ZN15MAConnEventDataC2Ev;2A.;__comp_ctor::(3,88):_ZN15MAConnEventDataC1Ev;2A.;;",128,0,695,0
	.stabs	"MAConnEventData:t(3,89)=(3,81)",128,0,704,0
	.stabs	"MAEvent:Tt(3,90)=s16type:(0,3),0,32;:(3,91)=u12:(3,92)=s8key:(0,3),0,32;nativeKey:(0,3),32,32;;,0,64;character:(3,3),0,32;:(3,93)=s12point:(3,23),0,64;touchId:(0,3),64,32;;,0,96;state:(0,3),0,32;conn:(3,89),0,96;:(3,94)=s8textboxResult:(0,3),0,32;textboxLength:(0,3),32,32;;,0,64;data:(3,9),0,32;;,32,96;operator=::(3,95)=#(3,90),(3,96)=&(3,90),(3,97)=*(3,90),(3,98)=&(3,99)=k(3,90),(0,6);:_ZN7MAEventaSERKS_;2A.;__base_ctor::(3,100)=#(3,90),(0,6),(3,97),(3,98),(0,6);:_ZN7MAEventC2ERKS_;2A.;__comp_ctor::(3,100):_ZN7MAEventC1ERKS_;2A.;__base_ctor::(3,101)=#(3,90),(0,6),(3,97),(0,6);:_ZN7MAEventC2Ev;2A.;__comp_ctor::(3,101):_ZN7MAEventC1Ev;2A.;;",128,0,709,0
	.stabs	"MAEvent:t(3,102)=(3,90)",128,0,774,0
	.stabs	"MAPanicReport:Tt(3,103)=s24runtimeId:(0,3),0,32;reportType:(0,3),32,32;time:(0,3),64,32;ip:(0,3),96,32;code:(0,3),128,32;string:(3,104)=ar(3,53);0;0;(0,19),160,8;operator=::(3,105)=#(3,103),(3,106)=&(3,103),(3,107)=*(3,103),(3,108)=&(3,109)=k(3,103),(0,6);:_ZN13MAPanicReportaSERKS_;2A.;__base_ctor::(3,110)=#(3,103),(0,6),(3,107),(3,108),(0,6);:_ZN13MAPanicReportC2ERKS_;2A.;__comp_ctor::(3,110):_ZN13MAPanicReportC1ERKS_;2A.;__base_ctor::(3,111)=#(3,103),(0,6),(3,107),(0,6);:_ZN13MAPanicReportC2Ev;2A.;__comp_ctor::(3,111):_ZN13MAPanicReportC1Ev;2A.;;",128,0,795,0
	.stabs	"MAPanicReport:t(3,112)=(3,103)",128,0,817,0
	.stabs	"MABtDevice:Tt(3,113)=s20name:(3,5),0,32;nameBufSize:(0,3),32,32;actualNameLength:(0,3),64,32;address:(3,61),96,48;operator=::(3,114)=#(3,113),(3,115)=&(3,113),(3,116)=*(3,113),(3,117)=&(3,118)=k(3,113),(0,6);:_ZN10MABtDeviceaSERKS_;2A.;__base_ctor::(3,119)=#(3,113),(0,6),(3,116),(3,117),(0,6);:_ZN10MABtDeviceC2ERKS_;2A.;__comp_ctor::(3,119):_ZN10MABtDeviceC1ERKS_;2A.;__base_ctor::(3,120)=#(3,113),(0,6),(3,116),(0,6);:_ZN10MABtDeviceC2Ev;2A.;__comp_ctor::(3,120):_ZN10MABtDeviceC1Ev;2A.;;",128,0,822,0
	.stabs	"MABtDevice:t(3,121)=(3,113)",128,0,834,0
	.stabs	"MAUUID:Tt(3,122)=s16i:(3,123)=ar(3,53);0;3;(0,3),0,128;operator=::(3,124)=#(3,122),(3,125)=&(3,122),(3,126)=*(3,122),(3,127)=&(3,128)=k(3,122),(0,6);:_ZN6MAUUIDaSERKS_;2A.;__base_ctor::(3,129)=#(3,122),(0,6),(3,126),(3,127),(0,6);:_ZN6MAUUIDC2ERKS_;2A.;__comp_ctor::(3,129):_ZN6MAUUIDC1ERKS_;2A.;__base_ctor::(3,130)=#(3,122),(0,6),(3,126),(0,6);:_ZN6MAUUIDC2Ev;2A.;__comp_ctor::(3,130):_ZN6MAUUIDC1Ev;2A.;;",128,0,841,0
	.stabs	"MAUUID:t(3,131)=(3,122)",128,0,843,0
	.stabs	"MABtServiceSize:Tt(3,132)=s8nameBufSize:(0,3),0,32;nUuids:(0,3),32,32;operator=::(3,133)=#(3,132),(3,134)=&(3,132),(3,135)=*(3,132),(3,136)=&(3,137)=k(3,132),(0,6);:_ZN15MABtServiceSizeaSERKS_;2A.;__base_ctor::(3,138)=#(3,132),(0,6),(3,135),(3,136),(0,6);:_ZN15MABtServiceSizeC2ERKS_;2A.;__comp_ctor::(3,138):_ZN15MABtServiceSizeC1ERKS_;2A.;__base_ctor::(3,139)=#(3,132),(0,6),(3,135),(0,6);:_ZN15MABtServiceSizeC2Ev;2A.;__comp_ctor::(3,139):_ZN15MABtServiceSizeC1Ev;2A.;;",128,0,848,0
	.stabs	"MABtServiceSize:t(3,140)=(3,132)",128,0,859,0
	.stabs	"MABtService:Tt(3,141)=s16port:(0,3),0,32;name:(3,5),32,32;nameBufSize:(0,3),64,32;uuids:(3,142)=*(3,131),96,32;operator=::(3,143)=#(3,141),(3,144)=&(3,141),(3,145)=*(3,141),(3,146)=&(3,147)=k(3,141),(0,6);:_ZN11MABtServiceaSERKS_;2A.;__base_ctor::(3,148)=#(3,141),(0,6),(3,145),(3,146),(0,6);:_ZN11MABtServiceC2ERKS_;2A.;__comp_ctor::(3,148):_ZN11MABtServiceC1ERKS_;2A.;__base_ctor::(3,149)=#(3,141),(0,6),(3,145),(0,6);:_ZN11MABtServiceC2Ev;2A.;__comp_ctor::(3,149):_ZN11MABtServiceC1Ev;2A.;;",128,0,864,0
	.stabs	"MABtService:t(3,150)=(3,141)",128,0,887,0
	.stabs	"MALocation:Tt(3,151)=s40state:(0,3),0,32;lat:(0,8),32,64;lon:(0,8),96,64;horzAcc:(0,8),160,64;vertAcc:(0,8),224,64;alt:(0,9),288,32;operator=::(3,152)=#(3,151),(3,153)=&(3,151),(3,154)=*(3,151),(3,155)=&(3,156)=k(3,151),(0,6);:_ZN10MALocationaSERKS_;2A.;__base_ctor::(3,157)=#(3,151),(0,6),(3,154),(3,155),(0,6);:_ZN10MALocationC2ERKS_;2A.;__comp_ctor::(3,157):_ZN10MALocationC1ERKS_;2A.;__base_ctor::(3,158)=#(3,151),(0,6),(3,154),(0,6);:_ZN10MALocationC2Ev;2A.;__comp_ctor::(3,158):_ZN10MALocationC1Ev;2A.;;",128,0,907,0
	.stabs	"MALocation:t(3,159)=(3,151)",128,0,923,0
	.stabs	"MAFrameBufferInfo:Tt(3,160)=s64sizeInBytes:(0,3),0,32;bytesPerPixel:(0,3),32,32;bitsPerPixel:(0,3),64,32;redMask:(0,3),96,32;redShift:(0,3),128,32;redBits:(0,3),160,32;greenMask:(0,3),192,32;greenShift:(0,3),224,32;greenBits:(0,3),256,32;blueMask:(0,3),288,32;blueShift:(0,3),320,32;blueBits:(0,3),352,32;width:(0,3),384,32;height:(0,3),416,32;pitch:(0,3),448,32;supportsGfxSyscalls:(0,3),480,32;operator=::(3,161)=#(3,160),(3,162)=&(3,160),(3,163)=*(3,160),(3,164)=&(3,165)=k(3,160),(0,6);:_ZN17MAFrameBufferInfoaSERKS_;2A.;__base_ctor::(3,166)=#(3,160),(0,6),(3,163),(3,164),(0,6);:_ZN17MAFrameBufferInfoC2ERKS_;2A.;__comp_ctor::(3,166):_ZN17MAFrameBufferInfoC1ERKS_;2A.;__base_ctor::(3,167)=#(3,160),(0,6),(3,163),(0,6);:_ZN17MAFrameBufferInfoC2Ev;2A.;__comp_ctor::(3,167):_ZN17MAFrameBufferInfoC1Ev;2A.;;",128,0,930,0
	.stabs	"MAFrameBufferInfo:t(3,168)=(3,160)",128,0,947,0
	.stabs	"MA_CAMERA_FORMAT:Tt(3,169)=s8width:(0,3),0,32;height:(0,3),32,32;operator=::(3,170)=#(3,169),(3,171)=&(3,169),(3,172)=*(3,169),(3,173)=&(3,174)=k(3,169),(0,6);:_ZN16MA_CAMERA_FORMATaSERKS_;2A.;__base_ctor::(3,175)=#(3,169),(0,6),(3,172),(3,173),(0,6);:_ZN16MA_CAMERA_FORMATC2ERKS_;2A.;__comp_ctor::(3,175):_ZN16MA_CAMERA_FORMATC1ERKS_;2A.;__base_ctor::(3,176)=#(3,169),(0,6),(3,172),(0,6);:_ZN16MA_CAMERA_FORMATC2Ev;2A.;__comp_ctor::(3,176):_ZN16MA_CAMERA_FORMATC1Ev;2A.;;",128,0,952,0
	.stabs	"MA_CAMERA_FORMAT:t(3,177)=(3,169)",128,0,955,0
	.stabn	162,0,0,0
	.stabs	"size_t:t(2,1)=(0,16)",128,0,32,0
	.stabn	162,0,0,0
	.stabs	"div_t:Tt(1,1)=s8quot:(0,3),0,32;rem:(0,3),32,32;operator=::(1,2)=#(1,1),(1,3)=&(1,1),(1,4)=*(1,1),(1,5)=&(1,6)=k(1,1),(0,6);:_ZN5div_taSERKS_;2A.;__base_ctor::(1,7)=#(1,1),(0,6),(1,4),(1,5),(0,6);:_ZN5div_tC2ERKS_;2A.;__comp_ctor::(1,7):_ZN5div_tC1ERKS_;2A.;__base_ctor::(1,8)=#(1,1),(0,6),(1,4),(0,6);:_ZN5div_tC2Ev;2A.;__comp_ctor::(1,8):_ZN5div_tC1Ev;2A.;;",128,0,58,0
	.stabs	"div_t:t(1,9)=(1,1)",128,0,60,0
	.stabn	162,0,0,0
	.stabs	"E:\\My Dropbox\\workspace\\GameCards\\BTVouchers\\/Login.h",130,0,0,0
	.stabs	"c:/MoSync/include/MAUI/Screen.h",130,0,0,0
	.stabs	"c:/MoSync/include/MAUI/Widget.h",130,0,0,0
	.stabs	"c:/MoSync/include/MAUtil/RefCounted.h",130,0,0,0
	.stabn	162,0,0,0
	.stabs	"c:/MoSync/include/MAUtil/String.h",130,0,0,0
	.stabs	"String:t(9,1)=(9,2)=xsBasicString<char>:",128,0,273,0
	.stabs	"WString:t(9,3)=(9,4)=xsBasicString<wchar_t>:",128,0,274,0
	.stabn	162,0,0,0
	.stabs	"c:/MoSync/include/MAUtil/Geometry.h",130,0,0,0
	.stabs	"Point:Tt(10,1)=s8!1,020,(3,15);__base_ctor::(10,2)=#(10,1),(0,6),(10,3)=*(10,1),(0,6);:_ZN6MAUtil5PointC2Ev;2A.;__comp_ctor::(10,2):_ZN6MAUtil5PointC1Ev;2A.;__base_ctor::(10,4)=#(10,1),(0,6),(10,3),(0,3),(0,3),(0,6);:_ZN6MAUtil5PointC2Eii;2A.;__comp_ctor::(10,4):_ZN6MAUtil5PointC1Eii;2A.;set::(10,4):_ZN6MAUtil5Point3setEii;2A.;operator=::(10,5)=#(10,1),(10,6)=&(10,1),(10,3),(10,7)=&(10,8)=k(10,1),(0,6);:_ZN6MAUtil5PointaSERKS0_;2A.;__base_ctor::(10,9)=#(10,1),(0,6),(10,3),(10,7),(0,6);:_ZN6MAUtil5PointC2ERKS0_;2A.;__comp_ctor::(10,9):_ZN6MAUtil5PointC1ERKS0_;2A.;;",128,0,37,0
	.stabn	162,0,0,0
	.stabs	"c:/MoSync/include/MAUI/WidgetSkin.h",130,0,0,0
	.stabs	"c:/MoSync/include/MAUtil/HashMap.h",130,0,0,0
	.stabs	"c:/MoSync/include/maheap.h",130,0,0,0
	.stabs	"malloc_handler:t(13,1)=(13,2)=*(13,3)=f(0,6)",128,0,106,0
	.stabs	"malloc_hook:t(13,4)=(13,5)=*(13,6)=f(3,9)",128,0,107,0
	.stabs	"free_hook:t(13,7)=(13,8)=*(13,9)=f(0,6)",128,0,108,0
	.stabs	"realloc_hook:t(13,10)=(13,11)=*(13,12)=f(3,9)",128,0,109,0
	.stabs	"block_size_hook:t(13,13)=(13,14)=*(13,15)=f(0,3)",128,0,110,0
	.stabn	162,0,0,0
	.stabs	"c:/MoSync/include/kazlib/hash.h",130,0,0,0
	.stabs	"hashcount_t:t(14,1)=(0,16)",128,0,37,0
	.stabs	"hash_val_t:t(14,2)=(0,16)",128,0,40,0
	.stabs	"hnode_t:Tt(14,3)=s16hash_next:(14,4)=*(14,3),0,32;hash_key:(14,5)=*(14,6)=k(0,6),32,32;hash_data:(3,9),64,32;hash_hkey:(14,2),96,32;operator=::(14,7)=#(14,3),(14,8)=&(14,3),(14,4),(14,9)=&(14,10)=k(14,3),(0,6);:_ZN7hnode_taSERKS_;2A.;__base_ctor::(14,11)=#(14,3),(0,6),(14,4),(14,9),(0,6);:_ZN7hnode_tC2ERKS_;2A.;__comp_ctor::(14,11):_ZN7hnode_tC1ERKS_;2A.;__base_ctor::(14,12)=#(14,3),(0,6),(14,4),(0,6);:_ZN7hnode_tC2Ev;2A.;__comp_ctor::(14,12):_ZN7hnode_tC1Ev;2A.;;",128,0,73,0
	.stabs	"hnode_t:t(14,13)=(14,3)",128,0,82,0
	.stabs	"hash_comp_t:t(14,14)=(14,15)=*(14,16)=f(0,3)",128,0,91,0
	.stabs	"hash_fun_t:t(14,17)=(14,18)=*(14,19)=f(14,2)",128,0,105,0
	.stabs	"hnode_alloc_t:t(14,20)=(14,21)=*(14,22)=f(14,23)=*(14,13)",128,0,111,0
	.stabs	"hnode_free_t:t(14,24)=(14,25)=*(14,26)=f(0,6)",128,0,112,0
	.stabs	"hash_t:Tt(14,27)=s52hash_table:(14,28)=*(14,4),0,32;hash_nchains:(14,1),32,32;hash_nodecount:(14,1),64,32;hash_maxcount:(14,1),96,32;hash_highmark:(14,1),128,32;hash_lowmark:(14,1),160,32;hash_compare:(14,14),192,32;hash_function:(14,17),224,32;hash_allocnode:(14,20),256,32;hash_freenode:(14,24),288,32;hash_context:(3,9),320,32;hash_mask:(14,2),352,32;hash_dynamic:(0,3),384,32;operator=::(14,29)=#(14,27),(14,30)=&(14,27),(14,31)=*(14,27),(14,32)=&(14,33)=k(14,27),(0,6);:_ZN6hash_taSERKS_;2A.;__base_ctor::(14,34)=#(14,27),(0,6),(14,31),(14,32),(0,6);:_ZN6hash_tC2ERKS_;2A.;__comp_ctor::(14,34):_ZN6hash_tC1ERKS_;2A.;__base_ctor::(14,35)=#(14,27),(0,6),(14,31),(0,6);:_ZN6hash_tC2Ev;2A.;__comp_ctor::(14,35):_ZN6hash_tC1Ev;2A.;;",128,0,149,0
	.stabs	"hash_t:t(14,36)=(14,27)",128,0,167,0
	.stabs	"hscan_t:Tt(14,37)=s12hash_table:(14,38)=*(14,36),0,32;hash_chain:(14,2),32,32;hash_next:(14,23),64,32;operator=::(14,39)=#(14,37),(14,40)=&(14,37),(14,41)=*(14,37),(14,42)=&(14,43)=k(14,37),(0,6);:_ZN7hscan_taSERKS_;2A.;__base_ctor::(14,44)=#(14,37),(0,6),(14,41),(14,42),(0,6);:_ZN7hscan_tC2ERKS_;2A.;__comp_ctor::(14,44):_ZN7hscan_tC1ERKS_;2A.;__base_ctor::(14,45)=#(14,37),(0,6),(14,41),(0,6);:_ZN7hscan_tC2Ev;2A.;__comp_ctor::(14,45):_ZN7hscan_tC1Ev;2A.;;",128,0,179,0
	.stabs	"hscan_t:t(14,46)=(14,37)",128,0,187,0
	.stabn	162,0,0,0
	.stabn	162,0,0,0
	.stabs	"WidgetSkin::eType:t(11,1)=eSELECTED:0,UNSELECTED:1,;",128,0,53,0
	.stabs	"WidgetSkin::CacheKey:Tt(11,2)=s16skin:(11,3)=*(11,4)=xsWidgetSkin:,0,32;w:(0,3),32,32;h:(0,3),64,32;type:(11,1),96,32;__base_ctor::(11,5)=#(11,2),(0,6),(11,6)=*(11,2),(0,6);:_ZN4MAUI10WidgetSkin8CacheKeyC2Ev;2A.;__comp_ctor::(11,5):_ZN4MAUI10WidgetSkin8CacheKeyC1Ev;2A.;__base_ctor::(11,7)=#(11,2),(0,6),(11,6),(11,3),(0,3),(0,3),(11,1),(0,6);:_ZN4MAUI10WidgetSkin8CacheKeyC2EPS0_iiNS0_5eTypeE;2A.;__comp_ctor::(11,7):_ZN4MAUI10WidgetSkin8CacheKeyC1EPS0_iiNS0_5eTypeE;2A.;operator==::(11,8)=#(11,2),(0,4),(11,9)=*(11,10)=k(11,2),(11,11)=&(11,10),(0,6);:_ZNK4MAUI10WidgetSkin8CacheKeyeqERKS1_;2B.;operator<::(11,8):_ZNK4MAUI10WidgetSkin8CacheKeyltERKS1_;2B.;operator=::(11,12)=#(11,2),(11,13)=&(11,2),(11,6),(11,11),(0,6);:_ZN4MAUI10WidgetSkin8CacheKeyaSERKS1_;2A.;__base_ctor::(11,14)=#(11,2),(0,6),(11,6),(11,11),(0,6);:_ZN4MAUI10WidgetSkin8CacheKeyC2ERKS1_;2A.;__comp_ctor::(11,14):_ZN4MAUI10WidgetSkin8CacheKeyC1ERKS1_;2A.;;",128,0,172,0
	.stabs	"WidgetSkin::CacheElement:Tt(11,15)=s8image:(3,10),0,32;lastUsed:(0,3),32,32;operator=::(11,16)=#(11,15),(11,17)=&(11,15),(11,18)=*(11,15),(11,19)=&(11,20)=k(11,15),(0,6);:_ZN4MAUI10WidgetSkin12CacheElementaSERKS1_;2A.;__base_ctor::(11,21)=#(11,15),(0,6),(11,18),(11,19),(0,6);:_ZN4MAUI10WidgetSkin12CacheElementC2ERKS1_;2A.;__comp_ctor::(11,21):_ZN4MAUI10WidgetSkin12CacheElementC1ERKS1_;2A.;__base_ctor::(11,22)=#(11,15),(0,6),(11,18),(0,6);:_ZN4MAUI10WidgetSkin12CacheElementC2Ev;2A.;__comp_ctor::(11,22):_ZN4MAUI10WidgetSkin12CacheElementC1Ev;2A.;;",128,0,195,0
	.stabs	"WidgetSkin:Tt(11,4)=s196maxCacheSize:/0(0,3):_ZN4MAUI10WidgetSkin12maxCacheSizeE;useCache:/0(0,4):_ZN4MAUI10WidgetSkin8useCacheE;sCache:/0(11,23)=xsHashMap<MAUI::WidgetSkin::CacheKey,MAUI::WidgetSkin::CacheElement>::_ZN4MAUI10WidgetSkin6sCacheE;selectedImageWidth:/0(0,3),0,32;selectedImageHeight:/0(0,3),32,32;unselectedImageWidth:/0(0,3),64,32;unselectedImageHeight:/0(0,3),96,32;selectedImage:/0(3,10),128,32;unselectedImage:/0(3,10),160,32;topLeft:/0(3,32),192,128;top:/0(3,32),320,128;topRight:/0(3,32),448,128;left:/0(3,32),576,128;center:/0(3,32),704,128;right:/0(3,32),832,128;bottomLeft:/0(3,32),960,128;bottom:/0(3,32),1088,128;bottomRight:/0(3,32),1216,128;startX:/0(0,3),1344,32;endX:/0(0,3),1376,32;startY:/0(0,3),1408,32;endY:/0(0,3),1440,32;imageWidth:/0(0,3),1472,32;imageHeight:/0(0,3),1504,32;selectedTransparent:/0(0,4),1536,8;unselectedTransparent:/0(0,4),1544,8;__base_ctor::(11,24)=#(11,4),(0,6),(11,3),(0,6);:_ZN4MAUI10WidgetSkinC2Ev;2A.;__comp_ctor::(11,24):_ZN4MAUI10WidgetSkinC1Ev;2A.;__base_ctor::(11,25)=#(11,4),(0,6),(11,3),(3,10),(3,10),(0,3),(0,3),(0,3),(0,3),(0,4),(0,4),(0,6);:_ZN4MAUI10WidgetSkinC2Eiiiiiibb;2A.;__comp_ctor::(11,25):_ZN4MAUI10WidgetSkinC1Eiiiiiibb;2A.;setStartX::(11,26)=#(11,4),(0,6),(11,3),(0,3),(0,6);:_ZN4MAUI10WidgetSkin9setStartXEi;2A.;setEndX::(11,26):_ZN4MAUI10WidgetSkin7setEndXEi;2A.;setStartY::(11,26):_ZN4MAUI10WidgetSkin9setStartYEi;2A.;setEndY::(11,26):_ZN4MAUI10WidgetSkin7setEndYEi;2A.;getStartX::(11,27)=#(11,4),(0,3),(11,28)=*(11,29)=k(11,4),(0,6);:_ZNK4MAUI10WidgetSkin9getStartXEv;2B.;getStartY::(11,27):_ZNK4MAUI10WidgetSkin9getStartYEv;2B.;getEndX::(11,27):_ZNK4MAUI10WidgetSkin7getEndXEv;2B.;getEndY::(11,27):_ZNK4MAUI10WidgetSkin7getEndYEv;2B.;getUnselectedImage::(11,30)=#(11,4),(3,10),(11,28),(0,6);:_ZNK4MAUI10WidgetSkin18getUnselectedImageEv;2B.;getSelectedImage::(11,30):_ZNK4MAUI10WidgetSkin16getSelectedImageEv;2B.;setSelectedImage::(11,31)=#(11,4),(0,6),(11,3),(3,10),(0,6);:_ZN4MAUI10WidgetSkin16setSelectedImageEi;2A.;setUnselectedImage::(11,31):_ZN4MAUI10WidgetSkin18setUnselectedImageEi;2A.;draw::(11,32)=#(11,4),(0,6),(11,3),(0,3),(0,3),(0,3),(0,3),(11,1),(0,6);:_ZN4MAUI10WidgetSkin4drawEiiiiNS0_5eTypeE;2A.;drawDirect::(11,32):_ZN4MAUI10WidgetSkin10drawDirectEiiiiNS0_5eTypeE;2A.;drawToData::(11,33)=#(11,4),(0,6),(11,3),(11,34)=*(0,3),(0,3),(0,3),(0,3),(0,3),(11,1),(0,6);:_ZN4MAUI10WidgetSkin10drawToDataEPiiiiiNS0_5eTypeE;2A.;calculateNumTiles::(11,35)=#(11,4),(0,3),(11,3),(0,3),(0,3),(0,6);:_ZN4MAUI10WidgetSkin17calculateNumTilesEii;2A.;drawRegion::(11,36)=#(11,4),(0,6),(11,3),(3,10),(11,34),(0,3),(11,37)=*(11,38)=k(3,32),(11,39)=*(11,40)=k(3,23),(0,6);:_ZN4MAUI10WidgetSkin10drawRegionEiPiiPK6MARectPK9MAPoint2d;2A.;getImageHeight::(11,27):_ZNK4MAUI10WidgetSkin14getImageHeightEv;2B.;getImageWidth::(11,27):_ZNK4MAUI10WidgetSkin13getImageWidthEv;2B.;isSelectedTransparent::(11,41)=#(11,4),(0,4),(11,28),(0,6);:_ZNK4MAUI10WidgetSkin21isSelectedTransparentEv;2B.;isUnselectedTransparent::(11,41):_ZNK4MAUI10WidgetSkin23isUnselectedTransparentEv;2B.;setMaxCacheSize::(13,3):_ZN4MAUI10WidgetSkin15setMaxCacheSizeEi;2A?;setCacheEnabled::(11,42)=f(0,6):_ZN4MAUI10WidgetSkin15setCacheEnabledEb;2A?;flushCache::(11,43)=f(0,6):_ZN4MAUI10WidgetSkin10flushCacheEv;2A?;flushCacheUntilNewImageFits::(13,3):_ZN4MAUI10WidgetSkin27flushCacheUntilNewImageFitsEi;2A?;addToCache::(11,44)=f(0,6):_ZN4MAUI10WidgetSkin10addToCacheERKNS0_8CacheKeyERKNS0_12CacheElementE;2A?;getFromCache::(11,45)=f(3,10):_ZN4MAUI10WidgetSkin12getFromCacheERKNS0_8CacheKeyE;2A?;rebuildRects::(11,24):_ZN4MAUI10WidgetSkin12rebuildRectsEv;0A.;operator=::(11,46)=#(11,4),(11,47)=&(11,4),(11,3),(11,48)=&(11,29),(0,6);:_ZN4MAUI10WidgetSkinaSERKS0_;2A.;__base_ctor::(11,49)=#(11,4),(0,6),(11,3),(11,48),(0,6);:_ZN4MAUI10WidgetSkinC2ERKS0_;2A.;__comp_ctor::(11,49):_ZN4MAUI10WidgetSkinC1ERKS0_;2A.;;",128,0,47,0
	.stabn	162,0,0,0
	.stabs	"c:/MoSync/include/MAUI/InputManager.h",130,0,0,0
	.stabn	162,0,0,0
	.stabs	"Vector<MAUI::Widget*>:Tt(7,1)=s12mSize:/1(0,3),0,32;mCapacity:/1(0,3),32,32;mData:/1(7,2)=*(7,3)=*(7,4)=xsWidget:,64,32;__base_ctor::(7,5)=#(7,1),(0,6),(7,6)=*(7,1),(0,3),(0,6);:_ZN6MAUtil6VectorIPN4MAUI6WidgetEEC2Ei;2A.;__comp_ctor::(7,5):_ZN6MAUtil6VectorIPN4MAUI6WidgetEEC1Ei;2A.;__base_ctor::(7,7)=#(7,1),(0,6),(7,6),(7,8)=*(7,9)=k(7,3),(0,3),(0,6);:_ZN6MAUtil6VectorIPN4MAUI6WidgetEEC2EPKS3_i;2A.;__comp_ctor::(7,7):_ZN6MAUtil6VectorIPN4MAUI6WidgetEEC1EPKS3_i;2A.;__base_ctor::(7,10)=#(7,1),(0,6),(7,6),(7,11)=&(7,12)=k(7,1),(0,6);:_ZN6MAUtil6VectorIPN4MAUI6WidgetEEC2ERKS4_;2A.;__comp_ctor::(7,10):_ZN6MAUtil6VectorIPN4MAUI6WidgetEEC1ERKS4_;2A.;__base_dtor::(7,13)=#(7,1),(0,6),(7,6),(0,6);:_ZN6MAUtil6VectorIPN4MAUI6WidgetEED2Ev;2A.;__comp_dtor::(7,13):_ZN6MAUtil6VectorIPN4MAUI6WidgetEED1Ev;2A.;operator=::(7,14)=#(7,1),(7,15)=&(7,1),(7,6),(7,11),(0,6);:_ZN6MAUtil6VectorIPN4MAUI6WidgetEEaSERKS4_;2A.;add::(7,16)=#(7,1),(0,6),(7,6),(7,17)=&(7,9),(0,6);:_ZN6MAUtil6VectorIPN4MAUI6WidgetEE3addERKS3_;2A.(7,7):_ZN6MAUtil6VectorIPN4MAUI6WidgetEE3addEPKS3_i;2A.;remove::(7,18)=#(7,1),(0,6),(7,6),(7,2),(0,6);:_ZN6MAUtil6VectorIPN4MAUI6WidgetEE6removeEPS3_;2A.(7,19)=#(7,1),(0,6),(7,6),(0,3),(0,6);:_ZN6MAUtil6VectorIPN4MAUI6WidgetEE6removeEi;2A.(7,20)=#(7,1),(0,6),(7,6),(0,3),(0,3),(0,6);:_ZN6MAUtil6VectorIPN4MAUI6WidgetEE6removeEii;2A.;insert::(7,21)=#(7,1),(0,6),(7,6),(0,3),(7,3),(0,6);:_ZN6MAUtil6VectorIPN4MAUI6WidgetEE6insertEiS3_;2A.;size::(7,22)=#(7,1),(0,3),(7,23)=*(7,12),(0,6);:_ZNK6MAUtil6VectorIPN4MAUI6WidgetEE4sizeEv;2B.;resize::(7,19):_ZN6MAUtil6VectorIPN4MAUI6WidgetEE6resizeEi;2A.;reserve::(7,19):_ZN6MAUtil6VectorIPN4MAUI6WidgetEE7reserveEi;2A.;clear::(7,13):_ZN6MAUtil6VectorIPN4MAUI6WidgetEE5clearEv;2A.;empty::(7,24)=#(7,1),(0,4),(7,23),(0,6);:_ZNK6MAUtil6VectorIPN4MAUI6WidgetEE5emptyEv;2B.;capacity::(7,22):_ZNK6MAUtil6VectorIPN4MAUI6WidgetEE8capacityEv;2B.;begin::(7,25)=#(7,1),(7,2),(7,6),(0,6);:_ZN6MAUtil6VectorIPN4MAUI6WidgetEE5beginEv;2A.;end::(7,25):_ZN6MAUtil6VectorIPN4MAUI6WidgetEE3endEv;2A.;begin::(7,26)=#(7,1),(7,8),(7,23),(0,6);:_ZNK6MAUtil6VectorIPN4MAUI6WidgetEE5beginEv;2B.;end::(7,26):_ZNK6MAUtil6VectorIPN4MAUI6WidgetEE3endEv;2B.;operator[]::(7,27)=#(7,1),(7,28)=&(7,3),(7,6),(0,3),(0,6);:_ZN6MAUtil6VectorIPN4MAUI6WidgetEEixEi;2A.(7,29)=#(7,1),(7,17),(7,23),(0,3),(0,6);:_ZNK6MAUtil6VectorIPN4MAUI6WidgetEEixEi;2B.;pointer::(7,26):_ZNK6MAUtil6VectorIPN4MAUI6WidgetEE7pointerEv;2B.(7,25):_ZN6MAUtil6VectorIPN4MAUI6WidgetEE7pointerEv;2A.;;",128,0,94,0
	.stabs	"Vector<MAUI::WidgetListener*>:Tt(7,30)=s12mSize:/1(0,3),0,32;mCapacity:/1(0,3),32,32;mData:/1(7,31)=*(7,32)=*(7,33)=xsWidgetListener:,64,32;__base_ctor::(7,34)=#(7,30),(0,6),(7,35)=*(7,30),(0,3),(0,6);:_ZN6MAUtil6VectorIPN4MAUI14WidgetListenerEEC2Ei;2A.;__comp_ctor::(7,34):_ZN6MAUtil6VectorIPN4MAUI14WidgetListenerEEC1Ei;2A.;__base_ctor::(7,36)=#(7,30),(0,6),(7,35),(7,37)=*(7,38)=k(7,32),(0,3),(0,6);:_ZN6MAUtil6VectorIPN4MAUI14WidgetListenerEEC2EPKS3_i;2A.;__comp_ctor::(7,36):_ZN6MAUtil6VectorIPN4MAUI14WidgetListenerEEC1EPKS3_i;2A.;__base_ctor::(7,39)=#(7,30),(0,6),(7,35),(7,40)=&(7,41)=k(7,30),(0,6);:_ZN6MAUtil6VectorIPN4MAUI14WidgetListenerEEC2ERKS4_;2A.;__comp_ctor::(7,39):_ZN6MAUtil6VectorIPN4MAUI14WidgetListenerEEC1ERKS4_;2A.;__base_dtor::(7,42)=#(7,30),(0,6),(7,35),(0,6);:_ZN6MAUtil6VectorIPN4MAUI14WidgetListenerEED2Ev;2A.;__comp_dtor::(7,42):_ZN6MAUtil6VectorIPN4MAUI14WidgetListenerEED1Ev;2A.;operator=::(7,43)=#(7,30),(7,44)=&(7,30),(7,35),(7,40),(0,6);:_ZN6MAUtil6VectorIPN4MAUI14WidgetListenerEEaSERKS4_;2A.;add::(7,45)=#(7,30),(0,6),(7,35),(7,46)=&(7,38),(0,6);:_ZN6MAUtil6VectorIPN4MAUI14WidgetListenerEE3addERKS3_;2A.(7,36):_ZN6MAUtil6VectorIPN4MAUI14WidgetListenerEE3addEPKS3_i;2A.;remove::(7,47)=#(7,30),(0,6),(7,35),(7,31),(0,6);:_ZN6MAUtil6VectorIPN4MAUI14WidgetListenerEE6removeEPS3_;2A.(7,48)=#(7,30),(0,6),(7,35),(0,3),(0,6);:_ZN6MAUtil6VectorIPN4MAUI14WidgetListenerEE6removeEi;2A.(7,49)=#(7,30),(0,6),(7,35),(0,3),(0,3),(0,6);:_ZN6MAUtil6VectorIPN4MAUI14WidgetListenerEE6removeEii;2A.;insert::(7,50)=#(7,30),(0,6),(7,35),(0,3),(7,32),(0,6);:_ZN6MAUtil6VectorIPN4MAUI14WidgetListenerEE6insertEiS3_;2A.;size::(7,51)=#(7,30),(0,3),(7,52)=*(7,41),(0,6);:_ZNK6MAUtil6VectorIPN4MAUI14WidgetListenerEE4sizeEv;2B.;resize::(7,48):_ZN6MAUtil6VectorIPN4MAUI14WidgetListenerEE6resizeEi;2A.;reserve::(7,48):_ZN6MAUtil6VectorIPN4MAUI14WidgetListenerEE7reserveEi;2A.;clear::(7,42):_ZN6MAUtil6VectorIPN4MAUI14WidgetListenerEE5clearEv;2A.;empty::(7,53)=#(7,30),(0,4),(7,52),(0,6);:_ZNK6MAUtil6VectorIPN4MAUI14WidgetListenerEE5emptyEv;2B.;capacity::(7,51):_ZNK6MAUtil6VectorIPN4MAUI14WidgetListenerEE8capacityEv;2B.;begin::(7,54)=#(7,30),(7,31),(7,35),(0,6);:_ZN6MAUtil6VectorIPN4MAUI14WidgetListenerEE5beginEv;2A.;end::(7,54):_ZN6MAUtil6VectorIPN4MAUI14WidgetListenerEE3endEv;2A.;begin::(7,55)=#(7,30),(7,37),(7,52),(0,6);:_ZNK6MAUtil6VectorIPN4MAUI14WidgetListenerEE5beginEv;2B.;end::(7,55):_ZNK6MAUtil6VectorIPN4MAUI14WidgetListenerEE3endEv;2B.;operator[]::(7,56)=#(7,30),(7,57)=&(7,32),(7,35),(0,3),(0,6);:_ZN6MAUtil6VectorIPN4MAUI14WidgetListenerEEixEi;2A.(7,58)=#(7,30),(7,46),(7,52),(0,3),(0,6);:_ZNK6MAUtil6VectorIPN4MAUI14WidgetListenerEEixEi;2B.;pointer::(7,55):_ZNK6MAUtil6VectorIPN4MAUI14WidgetListenerEE7pointerEv;2B.(7,54):_ZN6MAUtil6VectorIPN4MAUI14WidgetListenerEE7pointerEv;2A.;;",128,0,94,0
	.stabn	162,0,0,0
	.stabs	"c:/MoSync/include/MAUtil/Environment.h",130,0,0,0
	.stabs	"Environment::TimerEventInstance:Tt(16,1)=s20e:(16,2)=*(16,3)=xsTimerListener:,0,32;addTime:(0,3),32,32;period:(0,3),64,32;numTimes:(0,3),96,32;nextInvoke:(0,3),128,32;__base_ctor::(16,4)=#(16,1),(0,6),(16,5)=*(16,1),(16,2),(0,3),(0,3),(0,6);:_ZN6MAUtil11Environment18TimerEventInstanceC2EPNS_13TimerListenerEii;2A.;__comp_ctor::(16,4):_ZN6MAUtil11Environment18TimerEventInstanceC1EPNS_13TimerListenerEii;2A.;operator=::(16,6)=#(16,1),(16,7)=&(16,1),(16,5),(16,8)=&(16,9)=k(16,1),(0,6);:_ZN6MAUtil11Environment18TimerEventInstanceaSERKS1_;2A.;__base_ctor::(16,10)=#(16,1),(0,6),(16,5),(16,8),(0,6);:_ZN6MAUtil11Environment18TimerEventInstanceC2ERKS1_;2A.;__comp_ctor::(16,10):_ZN6MAUtil11Environment18TimerEventInstanceC1ERKS1_;2A.;;",128,0,409,0
	.stabs	"Vector<MAUtil::ListenerSet<MAUtil::KeyListener>::Combo>:Tt(16,11)=s12mSize:/1(0,3),0,32;mCapacity:/1(0,3),32,32;mData:/1(16,12)=*(16,13)=xsCombo:,64,32;__base_ctor::(16,14)=#(16,11),(0,6),(16,15)=*(16,11),(0,3),(0,6);:_ZN6MAUtil6VectorINS_11ListenerSetINS_11KeyListenerEE5ComboEEC2Ei;2A.;__comp_ctor::(16,14):_ZN6MAUtil6VectorINS_11ListenerSetINS_11KeyListenerEE5ComboEEC1Ei;2A.;__base_ctor::(16,16)=#(16,11),(0,6),(16,15),(16,17)=*(16,18)=k(16,13),(0,3),(0,6);:_ZN6MAUtil6VectorINS_11ListenerSetINS_11KeyListenerEE5ComboEEC2EPKS4_i;2A.;__comp_ctor::(16,16):_ZN6MAUtil6VectorINS_11ListenerSetINS_11KeyListenerEE5ComboEEC1EPKS4_i;2A.;__base_ctor::(16,19)=#(16,11),(0,6),(16,15),(16,20)=&(16,21)=k(16,11),(0,6);:_ZN6MAUtil6VectorINS_11ListenerSetINS_11KeyListenerEE5ComboEEC2ERKS5_;2A.;__comp_ctor::(16,19):_ZN6MAUtil6VectorINS_11ListenerSetINS_11KeyListenerEE5ComboEEC1ERKS5_;2A.;__base_dtor::(16,22)=#(16,11),(0,6),(16,15),(0,6);:_ZN6MAUtil6VectorINS_11ListenerSetINS_11KeyListenerEE5ComboEED2Ev;2A.;__comp_dtor::(16,22):_ZN6MAUtil6VectorINS_11ListenerSetINS_11KeyListenerEE5ComboEED1Ev;2A.;operator=::(16,23)=#(16,11),(16,24)=&(16,11),(16,15),(16,20),(0,6);:_ZN6MAUtil6VectorINS_11ListenerSetINS_11KeyListenerEE5ComboEEaSERKS5_;2A.;add::(16,25)=#(16,11),(0,6),(16,15),(16,26)=&(16,18),(0,6);:_ZN6MAUtil6VectorINS_11ListenerSetINS_11KeyListenerEE5ComboEE3addERKS4_;2A.(16,16):_ZN6MAUtil6VectorINS_11ListenerSetINS_11KeyListenerEE5ComboEE3addEPKS4_i;2A.;remove::(16,27)=#(16,11),(0,6),(16,15),(16,12),(0,6);:_ZN6MAUtil6VectorINS_11ListenerSetINS_11KeyListenerEE5ComboEE6removeEPS4_;2A.(16,28)=#(16,11),(0,6),(16,15),(0,3),(0,6);:_ZN6MAUtil6VectorINS_11ListenerSetINS_11KeyListenerEE5ComboEE6removeEi;2A.(16,29)=#(16,11),(0,6),(16,15),(0,3),(0,3),(0,6);:_ZN6MAUtil6VectorINS_11ListenerSetINS_11KeyListenerEE5ComboEE6removeEii;2A.;insert::(16,30)=#(16,11),(0,6),(16,15),(0,3),(16,13),(0,6);:_ZN6MAUtil6VectorINS_11ListenerSetINS_11KeyListenerEE5ComboEE6insertEiS4_;2A.;size::(16,31)=#(16,11),(0,3),(16,32)=*(16,21),(0,6);:_ZNK6MAUtil6VectorINS_11ListenerSetINS_11KeyListenerEE5ComboEE4sizeEv;2B.;resize::(16,28):_ZN6MAUtil6VectorINS_11ListenerSetINS_11KeyListenerEE5ComboEE6resizeEi;2A.;reserve::(16,28):_ZN6MAUtil6VectorINS_11ListenerSetINS_11KeyListenerEE5ComboEE7reserveEi;2A.;clear::(16,22):_ZN6MAUtil6VectorINS_11ListenerSetINS_11KeyListenerEE5ComboEE5clearEv;2A.;empty::(16,33)=#(16,11),(0,4),(16,32),(0,6);:_ZNK6MAUtil6VectorINS_11ListenerSetINS_11KeyListenerEE5ComboEE5emptyEv;2B.;capacity::(16,31):_ZNK6MAUtil6VectorINS_11ListenerSetINS_11KeyListenerEE5ComboEE8capacityEv;2B.;begin::(16,34)=#(16,11),(16,12),(16,15),(0,6);:_ZN6MAUtil6VectorINS_11ListenerSetINS_11KeyListenerEE5ComboEE5beginEv;2A.;end::(16,34):_ZN6MAUtil6VectorINS_11ListenerSetINS_11KeyListenerEE5ComboEE3endEv;2A.;begin::(16,35)=#(16,11),(16,17),(16,32),(0,6);:_ZNK6MAUtil6VectorINS_11ListenerSetINS_11KeyListenerEE5ComboEE5beginEv;2B.;end::(16,35):_ZNK6MAUtil6VectorINS_11ListenerSetINS_11KeyListenerEE5ComboEE3endEv;2B.;operator[]::(16,36)=#(16,11),(16,37)=&(16,13),(16,15),(0,3),(0,6);:_ZN6MAUtil6VectorINS_11ListenerSetINS_11KeyListenerEE5ComboEEixEi;2A.(16,38)=#(16,11),(16,26),(16,32),(0,3),(0,6);:_ZNK6MAUtil6VectorINS_11ListenerSetINS_11KeyListenerEE5ComboEEixEi;2B.;pointer::(16,35):_ZNK6MAUtil6VectorINS_11ListenerSetINS_11KeyListenerEE5ComboEE7pointerEv;2B.(16,34):_ZN6MAUtil6VectorINS_11ListenerSetINS_11KeyListenerEE5ComboEE7pointerEv;2A.;;",128,0,94,0
	.stabs	"ListenerSet<MAUtil::KeyListener>:Tt(16,39)=s16mRunning:/0(0,4),0,8;mUpdateRequired:/0(0,4),8,8;mShouldDelete:/0(0,4),16,8;mVec:/0(16,11),32,96;__base_ctor::(16,40)=#(16,39),(0,6),(16,41)=*(16,39),(0,4),(0,6);:_ZN6MAUtil11ListenerSetINS_11KeyListenerEEC2Eb;2A.;__comp_ctor::(16,40):_ZN6MAUtil11ListenerSetINS_11KeyListenerEEC1Eb;2A.;begin::(16,42)=#(16,39),(16,43)=xsiterator:,(16,41),(0,6);:_ZN6MAUtil11ListenerSetINS_11KeyListenerEE5beginEv;2A.;add::(16,44)=#(16,39),(0,6),(16,41),(16,45)=*(16,46)=xsKeyListener:,(0,6);:_ZN6MAUtil11ListenerSetINS_11KeyListenerEE3addEPS1_;2A.;remove::(16,44):_ZN6MAUtil11ListenerSetINS_11KeyListenerEE6removeEPS1_;2A.;contains::(16,47)=#(16,39),(0,4),(16,41),(16,45),(0,6);:_ZN6MAUtil11ListenerSetINS_11KeyListenerEE8containsEPS1_;2A.;setRunning::(16,48)=#(16,39),(0,6),(16,41),(0,4),(0,6);:_ZN6MAUtil11ListenerSetINS_11KeyListenerEE10setRunningEb;2A.;size::(16,49)=#(16,39),(0,3),(16,50)=*(16,51)=k(16,39),(0,6);:_ZNK6MAUtil11ListenerSetINS_11KeyListenerEE4sizeEv;2B.;operator=::(16,52)=#(16,39),(16,53)=&(16,39),(16,41),(16,54)=&(16,51),(0,6);:_ZN6MAUtil11ListenerSetINS_11KeyListenerEEaSERKS2_;2A.;__base_ctor::(16,55)=#(16,39),(0,6),(16,41),(16,54),(0,6);:_ZN6MAUtil11ListenerSetINS_11KeyListenerEEC2ERKS2_;2A.;__comp_ctor::(16,55):_ZN6MAUtil11ListenerSetINS_11KeyListenerEEC1ERKS2_;2A.;__base_dtor::(16,56)=#(16,39),(0,6),(16,41),(0,6);:_ZN6MAUtil11ListenerSetINS_11KeyListenerEED2Ev;2A.;__comp_dtor::(16,56):_ZN6MAUtil11ListenerSetINS_11KeyListenerEED1Ev;2A.;;",128,0,46,0
	.stabs	"Vector<MAUtil::ListenerSet<MAUtil::PointerListener>::Combo>:Tt(16,57)=s12mSize:/1(0,3),0,32;mCapacity:/1(0,3),32,32;mData:/1(16,58)=*(16,59)=xsCombo:,64,32;__base_ctor::(16,60)=#(16,57),(0,6),(16,61)=*(16,57),(0,3),(0,6);:_ZN6MAUtil6VectorINS_11ListenerSetINS_15PointerListenerEE5ComboEEC2Ei;2A.;__comp_ctor::(16,60):_ZN6MAUtil6VectorINS_11ListenerSetINS_15PointerListenerEE5ComboEEC1Ei;2A.;__base_ctor::(16,62)=#(16,57),(0,6),(16,61),(16,63)=*(16,64)=k(16,59),(0,3),(0,6);:_ZN6MAUtil6VectorINS_11ListenerSetINS_15PointerListenerEE5ComboEEC2EPKS4_i;2A.;__comp_ctor::(16,62):_ZN6MAUtil6VectorINS_11ListenerSetINS_15PointerListenerEE5ComboEEC1EPKS4_i;2A.;__base_ctor::(16,65)=#(16,57),(0,6),(16,61),(16,66)=&(16,67)=k(16,57),(0,6);:_ZN6MAUtil6VectorINS_11ListenerSetINS_15PointerListenerEE5ComboEEC2ERKS5_;2A.;__comp_ctor::(16,65):_ZN6MAUtil6VectorINS_11ListenerSetINS_15PointerListenerEE5ComboEEC1ERKS5_;2A.;__base_dtor::(16,68)=#(16,57),(0,6),(16,61),(0,6);:_ZN6MAUtil6VectorINS_11ListenerSetINS_15PointerListenerEE5ComboEED2Ev;2A.;__comp_dtor::(16,68):_ZN6MAUtil6VectorINS_11ListenerSetINS_15PointerListenerEE5ComboEED1Ev;2A.;operator=::(16,69)=#(16,57),(16,70)=&(16,57),(16,61),(16,66),(0,6);:_ZN6MAUtil6VectorINS_11ListenerSetINS_15PointerListenerEE5ComboEEaSERKS5_;2A.;add::(16,71)=#(16,57),(0,6),(16,61),(16,72)=&(16,64),(0,6);:_ZN6MAUtil6VectorINS_11ListenerSetINS_15PointerListenerEE5ComboEE3addERKS4_;2A.(16,62):_ZN6MAUtil6VectorINS_11ListenerSetINS_15PointerListenerEE5ComboEE3addEPKS4_i;2A.;remove::(16,73)=#(16,57),(0,6),(16,61),(16,58),(0,6);:_ZN6MAUtil6VectorINS_11ListenerSetINS_15PointerListenerEE5ComboEE6removeEPS4_;2A.(16,74)=#(16,57),(0,6),(16,61),(0,3),(0,6);:_ZN6MAUtil6VectorINS_11ListenerSetINS_15PointerListenerEE5ComboEE6removeEi;2A.(16,75)=#(16,57),(0,6),(16,61),(0,3),(0,3),(0,6);:_ZN6MAUtil6VectorINS_11ListenerSetINS_15PointerListenerEE5ComboEE6removeEii;2A.;insert::(16,76)=#(16,57),(0,6),(16,61),(0,3),(16,59),(0,6);:_ZN6MAUtil6VectorINS_11ListenerSetINS_15PointerListenerEE5ComboEE6insertEiS4_;2A.;size::(16,77)=#(16,57),(0,3),(16,78)=*(16,67),(0,6);:_ZNK6MAUtil6VectorINS_11ListenerSetINS_15PointerListenerEE5ComboEE4sizeEv;2B.;resize::(16,74):_ZN6MAUtil6VectorINS_11ListenerSetINS_15PointerListenerEE5ComboEE6resizeEi;2A.;reserve::(16,74):_ZN6MAUtil6VectorINS_11ListenerSetINS_15PointerListenerEE5ComboEE7reserveEi;2A.;clear::(16,68):_ZN6MAUtil6VectorINS_11ListenerSetINS_15PointerListenerEE5ComboEE5clearEv;2A.;empty::(16,79)=#(16,57),(0,4),(16,78),(0,6);:_ZNK6MAUtil6VectorINS_11ListenerSetINS_15PointerListenerEE5ComboEE5emptyEv;2B.;capacity::(16,77):_ZNK6MAUtil6VectorINS_11ListenerSetINS_15PointerListenerEE5ComboEE8capacityEv;2B.;begin::(16,80)=#(16,57),(16,58),(16,61),(0,6);:_ZN6MAUtil6VectorINS_11ListenerSetINS_15PointerListenerEE5ComboEE5beginEv;2A.;end::(16,80):_ZN6MAUtil6VectorINS_11ListenerSetINS_15PointerListenerEE5ComboEE3endEv;2A.;begin::(16,81)=#(16,57),(16,63),(16,78),(0,6);:_ZNK6MAUtil6VectorINS_11ListenerSetINS_15PointerListenerEE5ComboEE5beginEv;2B.;end::(16,81):_ZNK6MAUtil6VectorINS_11ListenerSetINS_15PointerListenerEE5ComboEE3endEv;2B.;operator[]::(16,82)=#(16,57),(16,83)=&(16,59),(16,61),(0,3),(0,6);:_ZN6MAUtil6VectorINS_11ListenerSetINS_15PointerListenerEE5ComboEEixEi;2A.(16,84)=#(16,57),(16,72),(16,78),(0,3),(0,6);:_ZNK6MAUtil6VectorINS_11ListenerSetINS_15PointerListenerEE5ComboEEixEi;2B.;pointer::(16,81):_ZNK6MAUtil6VectorINS_11ListenerSetINS_15PointerListenerEE5ComboEE7pointerEv;2B.(16,80):_ZN6MAUtil6VectorINS_11ListenerSetINS_15PointerListenerEE5ComboEE7pointerEv;2A.;;",128,0,94,0
	.stabs	"ListenerSet<MAUtil::PointerListener>:Tt(16,85)=s16mRunning:/0(0,4),0,8;mUpdateRequired:/0(0,4),8,8;mShouldDelete:/0(0,4),16,8;mVec:/0(16,57),32,96;__base_ctor::(16,86)=#(16,85),(0,6),(16,87)=*(16,85),(0,4),(0,6);:_ZN6MAUtil11ListenerSetINS_15PointerListenerEEC2Eb;2A.;__comp_ctor::(16,86):_ZN6MAUtil11ListenerSetINS_15PointerListenerEEC1Eb;2A.;begin::(16,88)=#(16,85),(16,89)=xsiterator:,(16,87),(0,6);:_ZN6MAUtil11ListenerSetINS_15PointerListenerEE5beginEv;2A.;add::(16,90)=#(16,85),(0,6),(16,87),(16,91)=*(16,92)=xsPointerListener:,(0,6);:_ZN6MAUtil11ListenerSetINS_15PointerListenerEE3addEPS1_;2A.;remove::(16,90):_ZN6MAUtil11ListenerSetINS_15PointerListenerEE6removeEPS1_;2A.;contains::(16,93)=#(16,85),(0,4),(16,87),(16,91),(0,6);:_ZN6MAUtil11ListenerSetINS_15PointerListenerEE8containsEPS1_;2A.;setRunning::(16,94)=#(16,85),(0,6),(16,87),(0,4),(0,6);:_ZN6MAUtil11ListenerSetINS_15PointerListenerEE10setRunningEb;2A.;size::(16,95)=#(16,85),(0,3),(16,96)=*(16,97)=k(16,85),(0,6);:_ZNK6MAUtil11ListenerSetINS_15PointerListenerEE4sizeEv;2B.;operator=::(16,98)=#(16,85),(16,99)=&(16,85),(16,87),(16,100)=&(16,97),(0,6);:_ZN6MAUtil11ListenerSetINS_15PointerListenerEEaSERKS2_;2A.;__base_ctor::(16,101)=#(16,85),(0,6),(16,87),(16,100),(0,6);:_ZN6MAUtil11ListenerSetINS_15PointerListenerEEC2ERKS2_;2A.;__comp_ctor::(16,101):_ZN6MAUtil11ListenerSetINS_15PointerListenerEEC1ERKS2_;2A.;__base_dtor::(16,102)=#(16,85),(0,6),(16,87),(0,6);:_ZN6MAUtil11ListenerSetINS_15PointerListenerEED2Ev;2A.;__comp_dtor::(16,102):_ZN6MAUtil11ListenerSetINS_15PointerListenerEED1Ev;2A.;;",128,0,46,0
	.stabs	"Vector<MAUtil::CloseListener*>:Tt(16,103)=s12mSize:/1(0,3),0,32;mCapacity:/1(0,3),32,32;mData:/1(16,104)=*(16,105)=*(16,106)=xsCloseListener:,64,32;__base_ctor::(16,107)=#(16,103),(0,6),(16,108)=*(16,103),(0,3),(0,6);:_ZN6MAUtil6VectorIPNS_13CloseListenerEEC2Ei;2A.;__comp_ctor::(16,107):_ZN6MAUtil6VectorIPNS_13CloseListenerEEC1Ei;2A.;__base_ctor::(16,109)=#(16,103),(0,6),(16,108),(16,110)=*(16,111)=k(16,105),(0,3),(0,6);:_ZN6MAUtil6VectorIPNS_13CloseListenerEEC2EPKS2_i;2A.;__comp_ctor::(16,109):_ZN6MAUtil6VectorIPNS_13CloseListenerEEC1EPKS2_i;2A.;__base_ctor::(16,112)=#(16,103),(0,6),(16,108),(16,113)=&(16,114)=k(16,103),(0,6);:_ZN6MAUtil6VectorIPNS_13CloseListenerEEC2ERKS3_;2A.;__comp_ctor::(16,112):_ZN6MAUtil6VectorIPNS_13CloseListenerEEC1ERKS3_;2A.;__base_dtor::(16,115)=#(16,103),(0,6),(16,108),(0,6);:_ZN6MAUtil6VectorIPNS_13CloseListenerEED2Ev;2A.;__comp_dtor::(16,115):_ZN6MAUtil6VectorIPNS_13CloseListenerEED1Ev;2A.;operator=::(16,116)=#(16,103),(16,117)=&(16,103),(16,108),(16,113),(0,6);:_ZN6MAUtil6VectorIPNS_13CloseListenerEEaSERKS3_;2A.;add::(16,118)=#(16,103),(0,6),(16,108),(16,119)=&(16,111),(0,6);:_ZN6MAUtil6VectorIPNS_13CloseListenerEE3addERKS2_;2A.(16,109):_ZN6MAUtil6VectorIPNS_13CloseListenerEE3addEPKS2_i;2A.;remove::(16,120)=#(16,103),(0,6),(16,108),(16,104),(0,6);:_ZN6MAUtil6VectorIPNS_13CloseListenerEE6removeEPS2_;2A.(16,121)=#(16,103),(0,6),(16,108),(0,3),(0,6);:_ZN6MAUtil6VectorIPNS_13CloseListenerEE6removeEi;2A.(16,122)=#(16,103),(0,6),(16,108),(0,3),(0,3),(0,6);:_ZN6MAUtil6VectorIPNS_13CloseListenerEE6removeEii;2A.;insert::(16,123)=#(16,103),(0,6),(16,108),(0,3),(16,105),(0,6);:_ZN6MAUtil6VectorIPNS_13CloseListenerEE6insertEiS2_;2A.;size::(16,124)=#(16,103),(0,3),(16,125)=*(16,114),(0,6);:_ZNK6MAUtil6VectorIPNS_13CloseListenerEE4sizeEv;2B.;resize::(16,121):_ZN6MAUtil6VectorIPNS_13CloseListenerEE6resizeEi;2A.;reserve::(16,121):_ZN6MAUtil6VectorIPNS_13CloseListenerEE7reserveEi;2A.;clear::(16,115):_ZN6MAUtil6VectorIPNS_13CloseListenerEE5clearEv;2A.;empty::(16,126)=#(16,103),(0,4),(16,125),(0,6);:_ZNK6MAUtil6VectorIPNS_13CloseListenerEE5emptyEv;2B.;capacity::(16,124):_ZNK6MAUtil6VectorIPNS_13CloseListenerEE8capacityEv;2B.;begin::(16,127)=#(16,103),(16,104),(16,108),(0,6);:_ZN6MAUtil6VectorIPNS_13CloseListenerEE5beginEv;2A.;end::(16,127):_ZN6MAUtil6VectorIPNS_13CloseListenerEE3endEv;2A.;begin::(16,128)=#(16,103),(16,110),(16,125),(0,6);:_ZNK6MAUtil6VectorIPNS_13CloseListenerEE5beginEv;2B.;end::(16,128):_ZNK6MAUtil6VectorIPNS_13CloseListenerEE3endEv;2B.;operator[]::(16,129)=#(16,103),(16,130)=&(16,105),(16,108),(0,3),(0,6);:_ZN6MAUtil6VectorIPNS_13CloseListenerEEixEi;2A.(16,131)=#(16,103),(16,119),(16,125),(0,3),(0,6);:_ZNK6MAUtil6VectorIPNS_13CloseListenerEEixEi;2B.;pointer::(16,128):_ZNK6MAUtil6VectorIPNS_13CloseListenerEE7pointerEv;2B.(16,127):_ZN6MAUtil6VectorIPNS_13CloseListenerEE7pointerEv;2A.;;",128,0,94,0
	.stabs	"Vector<MAUtil::ListenerSet<MAUtil::ConnListener>::Combo>:Tt(16,132)=s12mSize:/1(0,3),0,32;mCapacity:/1(0,3),32,32;mData:/1(16,133)=*(16,134)=xsCombo:,64,32;__base_ctor::(16,135)=#(16,132),(0,6),(16,136)=*(16,132),(0,3),(0,6);:_ZN6MAUtil6VectorINS_11ListenerSetINS_12ConnListenerEE5ComboEEC2Ei;2A.;__comp_ctor::(16,135):_ZN6MAUtil6VectorINS_11ListenerSetINS_12ConnListenerEE5ComboEEC1Ei;2A.;__base_ctor::(16,137)=#(16,132),(0,6),(16,136),(16,138)=*(16,139)=k(16,134),(0,3),(0,6);:_ZN6MAUtil6VectorINS_11ListenerSetINS_12ConnListenerEE5ComboEEC2EPKS4_i;2A.;__comp_ctor::(16,137):_ZN6MAUtil6VectorINS_11ListenerSetINS_12ConnListenerEE5ComboEEC1EPKS4_i;2A.;__base_ctor::(16,140)=#(16,132),(0,6),(16,136),(16,141)=&(16,142)=k(16,132),(0,6);:_ZN6MAUtil6VectorINS_11ListenerSetINS_12ConnListenerEE5ComboEEC2ERKS5_;2A.;__comp_ctor::(16,140):_ZN6MAUtil6VectorINS_11ListenerSetINS_12ConnListenerEE5ComboEEC1ERKS5_;2A.;__base_dtor::(16,143)=#(16,132),(0,6),(16,136),(0,6);:_ZN6MAUtil6VectorINS_11ListenerSetINS_12ConnListenerEE5ComboEED2Ev;2A.;__comp_dtor::(16,143):_ZN6MAUtil6VectorINS_11ListenerSetINS_12ConnListenerEE5ComboEED1Ev;2A.;operator=::(16,144)=#(16,132),(16,145)=&(16,132),(16,136),(16,141),(0,6);:_ZN6MAUtil6VectorINS_11ListenerSetINS_12ConnListenerEE5ComboEEaSERKS5_;2A.;add::(16,146)=#(16,132),(0,6),(16,136),(16,147)=&(16,139),(0,6);:_ZN6MAUtil6VectorINS_11ListenerSetINS_12ConnListenerEE5ComboEE3addERKS4_;2A.(16,137):_ZN6MAUtil6VectorINS_11ListenerSetINS_12ConnListenerEE5ComboEE3addEPKS4_i;2A.;remove::(16,148)=#(16,132),(0,6),(16,136),(16,133),(0,6);:_ZN6MAUtil6VectorINS_11ListenerSetINS_12ConnListenerEE5ComboEE6removeEPS4_;2A.(16,149)=#(16,132),(0,6),(16,136),(0,3),(0,6);:_ZN6MAUtil6VectorINS_11ListenerSetINS_12ConnListenerEE5ComboEE6removeEi;2A.(16,150)=#(16,132),(0,6),(16,136),(0,3),(0,3),(0,6);:_ZN6MAUtil6VectorINS_11ListenerSetINS_12ConnListenerEE5ComboEE6removeEii;2A.;insert::(16,151)=#(16,132),(0,6),(16,136),(0,3),(16,134),(0,6);:_ZN6MAUtil6VectorINS_11ListenerSetINS_12ConnListenerEE5ComboEE6insertEiS4_;2A.;size::(16,152)=#(16,132),(0,3),(16,153)=*(16,142),(0,6);:_ZNK6MAUtil6VectorINS_11ListenerSetINS_12ConnListenerEE5ComboEE4sizeEv;2B.;resize::(16,149):_ZN6MAUtil6VectorINS_11ListenerSetINS_12ConnListenerEE5ComboEE6resizeEi;2A.;reserve::(16,149):_ZN6MAUtil6VectorINS_11ListenerSetINS_12ConnListenerEE5ComboEE7reserveEi;2A.;clear::(16,143):_ZN6MAUtil6VectorINS_11ListenerSetINS_12ConnListenerEE5ComboEE5clearEv;2A.;empty::(16,154)=#(16,132),(0,4),(16,153),(0,6);:_ZNK6MAUtil6VectorINS_11ListenerSetINS_12ConnListenerEE5ComboEE5emptyEv;2B.;capacity::(16,152):_ZNK6MAUtil6VectorINS_11ListenerSetINS_12ConnListenerEE5ComboEE8capacityEv;2B.;begin::(16,155)=#(16,132),(16,133),(16,136),(0,6);:_ZN6MAUtil6VectorINS_11ListenerSetINS_12ConnListenerEE5ComboEE5beginEv;2A.;end::(16,155):_ZN6MAUtil6VectorINS_11ListenerSetINS_12ConnListenerEE5ComboEE3endEv;2A.;begin::(16,156)=#(16,132),(16,138),(16,153),(0,6);:_ZNK6MAUtil6VectorINS_11ListenerSetINS_12ConnListenerEE5ComboEE5beginEv;2B.;end::(16,156):_ZNK6MAUtil6VectorINS_11ListenerSetINS_12ConnListenerEE5ComboEE3endEv;2B.;operator[]::(16,157)=#(16,132),(16,158)=&(16,134),(16,136),(0,3),(0,6);:_ZN6MAUtil6VectorINS_11ListenerSetINS_12ConnListenerEE5ComboEEixEi;2A.(16,159)=#(16,132),(16,147),(16,153),(0,3),(0,6);:_ZNK6MAUtil6VectorINS_11ListenerSetINS_12ConnListenerEE5ComboEEixEi;2B.;pointer::(16,156):_ZNK6MAUtil6VectorINS_11ListenerSetINS_12ConnListenerEE5ComboEE7pointerEv;2B.(16,155):_ZN6MAUtil6VectorINS_11ListenerSetINS_12ConnListenerEE5ComboEE7pointerEv;2A.;;",128,0,94,0
	.stabs	"ListenerSet<MAUtil::ConnListener>:Tt(16,160)=s16mRunning:/0(0,4),0,8;mUpdateRequired:/0(0,4),8,8;mShouldDelete:/0(0,4),16,8;mVec:/0(16,132),32,96;__base_ctor::(16,161)=#(16,160),(0,6),(16,162)=*(16,160),(0,4),(0,6);:_ZN6MAUtil11ListenerSetINS_12ConnListenerEEC2Eb;2A.;__comp_ctor::(16,161):_ZN6MAUtil11ListenerSetINS_12ConnListenerEEC1Eb;2A.;begin::(16,163)=#(16,160),(16,164)=xsiterator:,(16,162),(0,6);:_ZN6MAUtil11ListenerSetINS_12ConnListenerEE5beginEv;2A.;add::(16,165)=#(16,160),(0,6),(16,162),(16,166)=*(16,167)=xsConnListener:,(0,6);:_ZN6MAUtil11ListenerSetINS_12ConnListenerEE3addEPS1_;2A.;remove::(16,165):_ZN6MAUtil11ListenerSetINS_12ConnListenerEE6removeEPS1_;2A.;contains::(16,168)=#(16,160),(0,4),(16,162),(16,166),(0,6);:_ZN6MAUtil11ListenerSetINS_12ConnListenerEE8containsEPS1_;2A.;setRunning::(16,169)=#(16,160),(0,6),(16,162),(0,4),(0,6);:_ZN6MAUtil11ListenerSetINS_12ConnListenerEE10setRunningEb;2A.;size::(16,170)=#(16,160),(0,3),(16,171)=*(16,172)=k(16,160),(0,6);:_ZNK6MAUtil11ListenerSetINS_12ConnListenerEE4sizeEv;2B.;operator=::(16,173)=#(16,160),(16,174)=&(16,160),(16,162),(16,175)=&(16,172),(0,6);:_ZN6MAUtil11ListenerSetINS_12ConnListenerEEaSERKS2_;2A.;__base_ctor::(16,176)=#(16,160),(0,6),(16,162),(16,175),(0,6);:_ZN6MAUtil11ListenerSetINS_12ConnListenerEEC2ERKS2_;2A.;__comp_ctor::(16,176):_ZN6MAUtil11ListenerSetINS_12ConnListenerEEC1ERKS2_;2A.;__base_dtor::(16,177)=#(16,160),(0,6),(16,162),(0,6);:_ZN6MAUtil11ListenerSetINS_12ConnListenerEED2Ev;2A.;__comp_dtor::(16,177):_ZN6MAUtil11ListenerSetINS_12ConnListenerEED1Ev;2A.;;",128,0,46,0
	.stabs	"Vector<MAUtil::ListenerSet<MAUtil::IdleListener>::Combo>:Tt(16,178)=s12mSize:/1(0,3),0,32;mCapacity:/1(0,3),32,32;mData:/1(16,179)=*(16,180)=xsCombo:,64,32;__base_ctor::(16,181)=#(16,178),(0,6),(16,182)=*(16,178),(0,3),(0,6);:_ZN6MAUtil6VectorINS_11ListenerSetINS_12IdleListenerEE5ComboEEC2Ei;2A.;__comp_ctor::(16,181):_ZN6MAUtil6VectorINS_11ListenerSetINS_12IdleListenerEE5ComboEEC1Ei;2A.;__base_ctor::(16,183)=#(16,178),(0,6),(16,182),(16,184)=*(16,185)=k(16,180),(0,3),(0,6);:_ZN6MAUtil6VectorINS_11ListenerSetINS_12IdleListenerEE5ComboEEC2EPKS4_i;2A.;__comp_ctor::(16,183):_ZN6MAUtil6VectorINS_11ListenerSetINS_12IdleListenerEE5ComboEEC1EPKS4_i;2A.;__base_ctor::(16,186)=#(16,178),(0,6),(16,182),(16,187)=&(16,188)=k(16,178),(0,6);:_ZN6MAUtil6VectorINS_11ListenerSetINS_12IdleListenerEE5ComboEEC2ERKS5_;2A.;__comp_ctor::(16,186):_ZN6MAUtil6VectorINS_11ListenerSetINS_12IdleListenerEE5ComboEEC1ERKS5_;2A.;__base_dtor::(16,189)=#(16,178),(0,6),(16,182),(0,6);:_ZN6MAUtil6VectorINS_11ListenerSetINS_12IdleListenerEE5ComboEED2Ev;2A.;__comp_dtor::(16,189):_ZN6MAUtil6VectorINS_11ListenerSetINS_12IdleListenerEE5ComboEED1Ev;2A.;operator=::(16,190)=#(16,178),(16,191)=&(16,178),(16,182),(16,187),(0,6);:_ZN6MAUtil6VectorINS_11ListenerSetINS_12IdleListenerEE5ComboEEaSERKS5_;2A.;add::(16,192)=#(16,178),(0,6),(16,182),(16,193)=&(16,185),(0,6);:_ZN6MAUtil6VectorINS_11ListenerSetINS_12IdleListenerEE5ComboEE3addERKS4_;2A.(16,183):_ZN6MAUtil6VectorINS_11ListenerSetINS_12IdleListenerEE5ComboEE3addEPKS4_i;2A.;remove::(16,194)=#(16,178),(0,6),(16,182),(16,179),(0,6);:_ZN6MAUtil6VectorINS_11ListenerSetINS_12IdleListenerEE5ComboEE6removeEPS4_;2A.(16,195)=#(16,178),(0,6),(16,182),(0,3),(0,6);:_ZN6MAUtil6VectorINS_11ListenerSetINS_12IdleListenerEE5ComboEE6removeEi;2A.(16,196)=#(16,178),(0,6),(16,182),(0,3),(0,3),(0,6);:_ZN6MAUtil6VectorINS_11ListenerSetINS_12IdleListenerEE5ComboEE6removeEii;2A.;insert::(16,197)=#(16,178),(0,6),(16,182),(0,3),(16,180),(0,6);:_ZN6MAUtil6VectorINS_11ListenerSetINS_12IdleListenerEE5ComboEE6insertEiS4_;2A.;size::(16,198)=#(16,178),(0,3),(16,199)=*(16,188),(0,6);:_ZNK6MAUtil6VectorINS_11ListenerSetINS_12IdleListenerEE5ComboEE4sizeEv;2B.;resize::(16,195):_ZN6MAUtil6VectorINS_11ListenerSetINS_12IdleListenerEE5ComboEE6resizeEi;2A.;reserve::(16,195):_ZN6MAUtil6VectorINS_11ListenerSetINS_12IdleListenerEE5ComboEE7reserveEi;2A.;clear::(16,189):_ZN6MAUtil6VectorINS_11ListenerSetINS_12IdleListenerEE5ComboEE5clearEv;2A.;empty::(16,200)=#(16,178),(0,4),(16,199),(0,6);:_ZNK6MAUtil6VectorINS_11ListenerSetINS_12IdleListenerEE5ComboEE5emptyEv;2B.;capacity::(16,198):_ZNK6MAUtil6VectorINS_11ListenerSetINS_12IdleListenerEE5ComboEE8capacityEv;2B.;begin::(16,201)=#(16,178),(16,179),(16,182),(0,6);:_ZN6MAUtil6VectorINS_11ListenerSetINS_12IdleListenerEE5ComboEE5beginEv;2A.;end::(16,201):_ZN6MAUtil6VectorINS_11ListenerSetINS_12IdleListenerEE5ComboEE3endEv;2A.;begin::(16,202)=#(16,178),(16,184),(16,199),(0,6);:_ZNK6MAUtil6VectorINS_11ListenerSetINS_12IdleListenerEE5ComboEE5beginEv;2B.;end::(16,202):_ZNK6MAUtil6VectorINS_11ListenerSetINS_12IdleListenerEE5ComboEE3endEv;2B.;operator[]::(16,203)=#(16,178),(16,204)=&(16,180),(16,182),(0,3),(0,6);:_ZN6MAUtil6VectorINS_11ListenerSetINS_12IdleListenerEE5ComboEEixEi;2A.(16,205)=#(16,178),(16,193),(16,199),(0,3),(0,6);:_ZNK6MAUtil6VectorINS_11ListenerSetINS_12IdleListenerEE5ComboEEixEi;2B.;pointer::(16,202):_ZNK6MAUtil6VectorINS_11ListenerSetINS_12IdleListenerEE5ComboEE7pointerEv;2B.(16,201):_ZN6MAUtil6VectorINS_11ListenerSetINS_12IdleListenerEE5ComboEE7pointerEv;2A.;;",128,0,94,0
	.stabs	"ListenerSet<MAUtil::IdleListener>:Tt(16,206)=s16mRunning:/0(0,4),0,8;mUpdateRequired:/0(0,4),8,8;mShouldDelete:/0(0,4),16,8;mVec:/0(16,178),32,96;__base_ctor::(16,207)=#(16,206),(0,6),(16,208)=*(16,206),(0,4),(0,6);:_ZN6MAUtil11ListenerSetINS_12IdleListenerEEC2Eb;2A.;__comp_ctor::(16,207):_ZN6MAUtil11ListenerSetINS_12IdleListenerEEC1Eb;2A.;begin::(16,209)=#(16,206),(16,210)=xsiterator:,(16,208),(0,6);:_ZN6MAUtil11ListenerSetINS_12IdleListenerEE5beginEv;2A.;add::(16,211)=#(16,206),(0,6),(16,208),(16,212)=*(16,213)=xsIdleListener:,(0,6);:_ZN6MAUtil11ListenerSetINS_12IdleListenerEE3addEPS1_;2A.;remove::(16,211):_ZN6MAUtil11ListenerSetINS_12IdleListenerEE6removeEPS1_;2A.;contains::(16,214)=#(16,206),(0,4),(16,208),(16,212),(0,6);:_ZN6MAUtil11ListenerSetINS_12IdleListenerEE8containsEPS1_;2A.;setRunning::(16,215)=#(16,206),(0,6),(16,208),(0,4),(0,6);:_ZN6MAUtil11ListenerSetINS_12IdleListenerEE10setRunningEb;2A.;size::(16,216)=#(16,206),(0,3),(16,217)=*(16,218)=k(16,206),(0,6);:_ZNK6MAUtil11ListenerSetINS_12IdleListenerEE4sizeEv;2B.;operator=::(16,219)=#(16,206),(16,220)=&(16,206),(16,208),(16,221)=&(16,218),(0,6);:_ZN6MAUtil11ListenerSetINS_12IdleListenerEEaSERKS2_;2A.;__base_ctor::(16,222)=#(16,206),(0,6),(16,208),(16,221),(0,6);:_ZN6MAUtil11ListenerSetINS_12IdleListenerEEC2ERKS2_;2A.;__comp_ctor::(16,222):_ZN6MAUtil11ListenerSetINS_12IdleListenerEEC1ERKS2_;2A.;__base_dtor::(16,223)=#(16,206),(0,6),(16,208),(0,6);:_ZN6MAUtil11ListenerSetINS_12IdleListenerEED2Ev;2A.;__comp_dtor::(16,223):_ZN6MAUtil11ListenerSetINS_12IdleListenerEED1Ev;2A.;;",128,0,46,0
	.stabs	"Vector<MAUtil::ListenerSet<MAUtil::Environment::TimerEventInstance>::Combo>:Tt(16,224)=s12mSize:/1(0,3),0,32;mCapacity:/1(0,3),32,32;mData:/1(16,225)=*(16,226)=xsCombo:,64,32;__base_ctor::(16,227)=#(16,224),(0,6),(16,228)=*(16,224),(0,3),(0,6);:_ZN6MAUtil6VectorINS_11ListenerSetINS_11Environment18TimerEventInstanceEE5ComboEEC2Ei;2A.;__comp_ctor::(16,227):_ZN6MAUtil6VectorINS_11ListenerSetINS_11Environment18TimerEventInstanceEE5ComboEEC1Ei;2A.;__base_ctor::(16,229)=#(16,224),(0,6),(16,228),(16,230)=*(16,231)=k(16,226),(0,3),(0,6);:_ZN6MAUtil6VectorINS_11ListenerSetINS_11Environment18TimerEventInstanceEE5ComboEEC2EPKS5_i;2A.;__comp_ctor::(16,229):_ZN6MAUtil6VectorINS_11ListenerSetINS_11Environment18TimerEventInstanceEE5ComboEEC1EPKS5_i;2A.;__base_ctor::(16,232)=#(16,224),(0,6),(16,228),(16,233)=&(16,234)=k(16,224),(0,6);:_ZN6MAUtil6VectorINS_11ListenerSetINS_11Environment18TimerEventInstanceEE5ComboEEC2ERKS6_;2A.;__comp_ctor::(16,232):_ZN6MAUtil6VectorINS_11ListenerSetINS_11Environment18TimerEventInstanceEE5ComboEEC1ERKS6_;2A.;__base_dtor::(16,235)=#(16,224),(0,6),(16,228),(0,6);:_ZN6MAUtil6VectorINS_11ListenerSetINS_11Environment18TimerEventInstanceEE5ComboEED2Ev;2A.;__comp_dtor::(16,235):_ZN6MAUtil6VectorINS_11ListenerSetINS_11Environment18TimerEventInstanceEE5ComboEED1Ev;2A.;operator=::(16,236)=#(16,224),(16,237)=&(16,224),(16,228),(16,233),(0,6);:_ZN6MAUtil6VectorINS_11ListenerSetINS_11Environment18TimerEventInstanceEE5ComboEEaSERKS6_;2A.;add::(16,238)=#(16,224),(0,6),(16,228),(16,239)=&(16,231),(0,6);:_ZN6MAUtil6VectorINS_11ListenerSetINS_11Environment18TimerEventInstanceEE5ComboEE3addERKS5_;2A.(16,229):_ZN6MAUtil6VectorINS_11ListenerSetINS_11Environment18TimerEventInstanceEE5ComboEE3addEPKS5_i;2A.;remove::(16,240)=#(16,224),(0,6),(16,228),(16,225),(0,6);:_ZN6MAUtil6VectorINS_11ListenerSetINS_11Environment18TimerEventInstanceEE5ComboEE6removeEPS5_;2A.(16,241)=#(16,224),(0,6),(16,228),(0,3),(0,6);:_ZN6MAUtil6VectorINS_11ListenerSetINS_11Environment18TimerEventInstanceEE5ComboEE6removeEi;2A.(16,242)=#(16,224),(0,6),(16,228),(0,3),(0,3),(0,6);:_ZN6MAUtil6VectorINS_11ListenerSetINS_11Environment18TimerEventInstanceEE5ComboEE6removeEii;2A.;insert::(16,243)=#(16,224),(0,6),(16,228),(0,3),(16,226),(0,6);:_ZN6MAUtil6VectorINS_11ListenerSetINS_11Environment18TimerEventInstanceEE5ComboEE6insertEiS5_;2A.;size::(16,244)=#(16,224),(0,3),(16,245)=*(16,234),(0,6);:_ZNK6MAUtil6VectorINS_11ListenerSetINS_11Environment18TimerEventInstanceEE5ComboEE4sizeEv;2B.;resize::(16,241):_ZN6MAUtil6VectorINS_11ListenerSetINS_11Environment18TimerEventInstanceEE5ComboEE6resizeEi;2A.;reserve::(16,241):_ZN6MAUtil6VectorINS_11ListenerSetINS_11Environment18TimerEventInstanceEE5ComboEE7reserveEi;2A.;clear::(16,235):_ZN6MAUtil6VectorINS_11ListenerSetINS_11Environment18TimerEventInstanceEE5ComboEE5clearEv;2A.;empty::(16,246)=#(16,224),(0,4),(16,245),(0,6);:_ZNK6MAUtil6VectorINS_11ListenerSetINS_11Environment18TimerEventInstanceEE5ComboEE5emptyEv;2B.;capacity::(16,244):_ZNK6MAUtil6VectorINS_11ListenerSetINS_11Environment18TimerEventInstanceEE5ComboEE8capacityEv;2B.;begin::(16,247)=#(16,224),(16,225),(16,228),(0,6);:_ZN6MAUtil6VectorINS_11ListenerSetINS_11Environment18TimerEventInstanceEE5ComboEE5beginEv;2A.;end::(16,247):_ZN6MAUtil6VectorINS_11ListenerSetINS_11Environment18TimerEventInstanceEE5ComboEE3endEv;2A.;begin::(16,248)=#(16,224),(16,230),(16,245),(0,6);:_ZNK6MAUtil6VectorINS_11ListenerSetINS_11Environment18TimerEventInstanceEE5ComboEE5beginEv;2B.;end::(16,248):_ZNK6MAUtil6VectorINS_11ListenerSetINS_11Environment18TimerEventInstanceEE5ComboEE3endEv;2B.;operator[]::(16,249)=#(16,224),(16,250)=&(16,226),(16,228),(0,3),(0,6);:_ZN6MAUtil6VectorINS_11ListenerSetINS_11Environment18TimerEventInstanceEE5ComboEEixEi;2A.(16,251)=#(16,224),(16,239),(16,245),(0,3),(0,6);:_ZNK6MAUtil6VectorINS_11ListenerSetINS_11Environment18TimerEventInstanceEE5ComboEEixEi;2B.;pointer::(16,248):_ZNK6MAUtil6VectorINS_11ListenerSetINS_11Environment18TimerEventInstanceEE5ComboEE7pointerEv;2B.(16,247):_ZN6MAUtil6VectorINS_11ListenerSetINS_11Environment18TimerEventInstanceEE5ComboEE7pointerEv;2A.;;",128,0,94,0
	.stabs	"ListenerSet<MAUtil::Environment::TimerEventInstance>:Tt(16,252)=s16mRunning:/0(0,4),0,8;mUpdateRequired:/0(0,4),8,8;mShouldDelete:/0(0,4),16,8;mVec:/0(16,224),32,96;__base_ctor::(16,253)=#(16,252),(0,6),(16,254)=*(16,252),(0,4),(0,6);:_ZN6MAUtil11ListenerSetINS_11Environment18TimerEventInstanceEEC2Eb;2A.;__comp_ctor::(16,253):_ZN6MAUtil11ListenerSetINS_11Environment18TimerEventInstanceEEC1Eb;2A.;begin::(16,255)=#(16,252),(16,256)=xsiterator:,(16,254),(0,6);:_ZN6MAUtil11ListenerSetINS_11Environment18TimerEventInstanceEE5beginEv;2A.;add::(16,257)=#(16,252),(0,6),(16,254),(16,5),(0,6);:_ZN6MAUtil11ListenerSetINS_11Environment18TimerEventInstanceEE3addEPS2_;2A.;remove::(16,257):_ZN6MAUtil11ListenerSetINS_11Environment18TimerEventInstanceEE6removeEPS2_;2A.;contains::(16,258)=#(16,252),(0,4),(16,254),(16,5),(0,6);:_ZN6MAUtil11ListenerSetINS_11Environment18TimerEventInstanceEE8containsEPS2_;2A.;setRunning::(16,259)=#(16,252),(0,6),(16,254),(0,4),(0,6);:_ZN6MAUtil11ListenerSetINS_11Environment18TimerEventInstanceEE10setRunningEb;2A.;size::(16,260)=#(16,252),(0,3),(16,261)=*(16,262)=k(16,252),(0,6);:_ZNK6MAUtil11ListenerSetINS_11Environment18TimerEventInstanceEE4sizeEv;2B.;operator=::(16,263)=#(16,252),(16,264)=&(16,252),(16,254),(16,265)=&(16,262),(0,6);:_ZN6MAUtil11ListenerSetINS_11Environment18TimerEventInstanceEEaSERKS3_;2A.;__base_ctor::(16,266)=#(16,252),(0,6),(16,254),(16,265),(0,6);:_ZN6MAUtil11ListenerSetINS_11Environment18TimerEventInstanceEEC2ERKS3_;2A.;__comp_ctor::(16,266):_ZN6MAUtil11ListenerSetINS_11Environment18TimerEventInstanceEEC1ERKS3_;2A.;__base_dtor::(16,267)=#(16,252),(0,6),(16,254),(0,6);:_ZN6MAUtil11ListenerSetINS_11Environment18TimerEventInstanceEED2Ev;2A.;__comp_dtor::(16,267):_ZN6MAUtil11ListenerSetINS_11Environment18TimerEventInstanceEED1Ev;2A.;;",128,0,46,0
	.stabs	"Vector<MAUtil::ListenerSet<MAUtil::FocusListener>::Combo>:Tt(16,268)=s12mSize:/1(0,3),0,32;mCapacity:/1(0,3),32,32;mData:/1(16,269)=*(16,270)=xsCombo:,64,32;__base_ctor::(16,271)=#(16,268),(0,6),(16,272)=*(16,268),(0,3),(0,6);:_ZN6MAUtil6VectorINS_11ListenerSetINS_13FocusListenerEE5ComboEEC2Ei;2A.;__comp_ctor::(16,271):_ZN6MAUtil6VectorINS_11ListenerSetINS_13FocusListenerEE5ComboEEC1Ei;2A.;__base_ctor::(16,273)=#(16,268),(0,6),(16,272),(16,274)=*(16,275)=k(16,270),(0,3),(0,6);:_ZN6MAUtil6VectorINS_11ListenerSetINS_13FocusListenerEE5ComboEEC2EPKS4_i;2A.;__comp_ctor::(16,273):_ZN6MAUtil6VectorINS_11ListenerSetINS_13FocusListenerEE5ComboEEC1EPKS4_i;2A.;__base_ctor::(16,276)=#(16,268),(0,6),(16,272),(16,277)=&(16,278)=k(16,268),(0,6);:_ZN6MAUtil6VectorINS_11ListenerSetINS_13FocusListenerEE5ComboEEC2ERKS5_;2A.;__comp_ctor::(16,276):_ZN6MAUtil6VectorINS_11ListenerSetINS_13FocusListenerEE5ComboEEC1ERKS5_;2A.;__base_dtor::(16,279)=#(16,268),(0,6),(16,272),(0,6);:_ZN6MAUtil6VectorINS_11ListenerSetINS_13FocusListenerEE5ComboEED2Ev;2A.;__comp_dtor::(16,279):_ZN6MAUtil6VectorINS_11ListenerSetINS_13FocusListenerEE5ComboEED1Ev;2A.;operator=::(16,280)=#(16,268),(16,281)=&(16,268),(16,272),(16,277),(0,6);:_ZN6MAUtil6VectorINS_11ListenerSetINS_13FocusListenerEE5ComboEEaSERKS5_;2A.;add::(16,282)=#(16,268),(0,6),(16,272),(16,283)=&(16,275),(0,6);:_ZN6MAUtil6VectorINS_11ListenerSetINS_13FocusListenerEE5ComboEE3addERKS4_;2A.(16,273):_ZN6MAUtil6VectorINS_11ListenerSetINS_13FocusListenerEE5ComboEE3addEPKS4_i;2A.;remove::(16,284)=#(16,268),(0,6),(16,272),(16,269),(0,6);:_ZN6MAUtil6VectorINS_11ListenerSetINS_13FocusListenerEE5ComboEE6removeEPS4_;2A.(16,285)=#(16,268),(0,6),(16,272),(0,3),(0,6);:_ZN6MAUtil6VectorINS_11ListenerSetINS_13FocusListenerEE5ComboEE6removeEi;2A.(16,286)=#(16,268),(0,6),(16,272),(0,3),(0,3),(0,6);:_ZN6MAUtil6VectorINS_11ListenerSetINS_13FocusListenerEE5ComboEE6removeEii;2A.;insert::(16,287)=#(16,268),(0,6),(16,272),(0,3),(16,270),(0,6);:_ZN6MAUtil6VectorINS_11ListenerSetINS_13FocusListenerEE5ComboEE6insertEiS4_;2A.;size::(16,288)=#(16,268),(0,3),(16,289)=*(16,278),(0,6);:_ZNK6MAUtil6VectorINS_11ListenerSetINS_13FocusListenerEE5ComboEE4sizeEv;2B.;resize::(16,285):_ZN6MAUtil6VectorINS_11ListenerSetINS_13FocusListenerEE5ComboEE6resizeEi;2A.;reserve::(16,285):_ZN6MAUtil6VectorINS_11ListenerSetINS_13FocusListenerEE5ComboEE7reserveEi;2A.;clear::(16,279):_ZN6MAUtil6VectorINS_11ListenerSetINS_13FocusListenerEE5ComboEE5clearEv;2A.;empty::(16,290)=#(16,268),(0,4),(16,289),(0,6);:_ZNK6MAUtil6VectorINS_11ListenerSetINS_13FocusListenerEE5ComboEE5emptyEv;2B.;capacity::(16,288):_ZNK6MAUtil6VectorINS_11ListenerSetINS_13FocusListenerEE5ComboEE8capacityEv;2B.;begin::(16,291)=#(16,268),(16,269),(16,272),(0,6);:_ZN6MAUtil6VectorINS_11ListenerSetINS_13FocusListenerEE5ComboEE5beginEv;2A.;end::(16,291):_ZN6MAUtil6VectorINS_11ListenerSetINS_13FocusListenerEE5ComboEE3endEv;2A.;begin::(16,292)=#(16,268),(16,274),(16,289),(0,6);:_ZNK6MAUtil6VectorINS_11ListenerSetINS_13FocusListenerEE5ComboEE5beginEv;2B.;end::(16,292):_ZNK6MAUtil6VectorINS_11ListenerSetINS_13FocusListenerEE5ComboEE3endEv;2B.;operator[]::(16,293)=#(16,268),(16,294)=&(16,270),(16,272),(0,3),(0,6);:_ZN6MAUtil6VectorINS_11ListenerSetINS_13FocusListenerEE5ComboEEixEi;2A.(16,295)=#(16,268),(16,283),(16,289),(0,3),(0,6);:_ZNK6MAUtil6VectorINS_11ListenerSetINS_13FocusListenerEE5ComboEEixEi;2B.;pointer::(16,292):_ZNK6MAUtil6VectorINS_11ListenerSetINS_13FocusListenerEE5ComboEE7pointerEv;2B.(16,291):_ZN6MAUtil6VectorINS_11ListenerSetINS_13FocusListenerEE5ComboEE7pointerEv;2A.;;",128,0,94,0
	.stabs	"ListenerSet<MAUtil::FocusListener>:Tt(16,296)=s16mRunning:/0(0,4),0,8;mUpdateRequired:/0(0,4),8,8;mShouldDelete:/0(0,4),16,8;mVec:/0(16,268),32,96;__base_ctor::(16,297)=#(16,296),(0,6),(16,298)=*(16,296),(0,4),(0,6);:_ZN6MAUtil11ListenerSetINS_13FocusListenerEEC2Eb;2A.;__comp_ctor::(16,297):_ZN6MAUtil11ListenerSetINS_13FocusListenerEEC1Eb;2A.;begin::(16,299)=#(16,296),(16,300)=xsiterator:,(16,298),(0,6);:_ZN6MAUtil11ListenerSetINS_13FocusListenerEE5beginEv;2A.;add::(16,301)=#(16,296),(0,6),(16,298),(16,302)=*(16,303)=xsFocusListener:,(0,6);:_ZN6MAUtil11ListenerSetINS_13FocusListenerEE3addEPS1_;2A.;remove::(16,301):_ZN6MAUtil11ListenerSetINS_13FocusListenerEE6removeEPS1_;2A.;contains::(16,304)=#(16,296),(0,4),(16,298),(16,302),(0,6);:_ZN6MAUtil11ListenerSetINS_13FocusListenerEE8containsEPS1_;2A.;setRunning::(16,305)=#(16,296),(0,6),(16,298),(0,4),(0,6);:_ZN6MAUtil11ListenerSetINS_13FocusListenerEE10setRunningEb;2A.;size::(16,306)=#(16,296),(0,3),(16,307)=*(16,308)=k(16,296),(0,6);:_ZNK6MAUtil11ListenerSetINS_13FocusListenerEE4sizeEv;2B.;operator=::(16,309)=#(16,296),(16,310)=&(16,296),(16,298),(16,311)=&(16,308),(0,6);:_ZN6MAUtil11ListenerSetINS_13FocusListenerEEaSERKS2_;2A.;__base_ctor::(16,312)=#(16,296),(0,6),(16,298),(16,311),(0,6);:_ZN6MAUtil11ListenerSetINS_13FocusListenerEEC2ERKS2_;2A.;__comp_ctor::(16,312):_ZN6MAUtil11ListenerSetINS_13FocusListenerEEC1ERKS2_;2A.;__base_dtor::(16,313)=#(16,296),(0,6),(16,298),(0,6);:_ZN6MAUtil11ListenerSetINS_13FocusListenerEED2Ev;2A.;__comp_dtor::(16,313):_ZN6MAUtil11ListenerSetINS_13FocusListenerEED1Ev;2A.;;",128,0,46,0
	.stabs	"Vector<MAUtil::ListenerSet<MAUtil::CustomEventListener>::Combo>:Tt(16,314)=s12mSize:/1(0,3),0,32;mCapacity:/1(0,3),32,32;mData:/1(16,315)=*(16,316)=xsCombo:,64,32;__base_ctor::(16,317)=#(16,314),(0,6),(16,318)=*(16,314),(0,3),(0,6);:_ZN6MAUtil6VectorINS_11ListenerSetINS_19CustomEventListenerEE5ComboEEC2Ei;2A.;__comp_ctor::(16,317):_ZN6MAUtil6VectorINS_11ListenerSetINS_19CustomEventListenerEE5ComboEEC1Ei;2A.;__base_ctor::(16,319)=#(16,314),(0,6),(16,318),(16,320)=*(16,321)=k(16,316),(0,3),(0,6);:_ZN6MAUtil6VectorINS_11ListenerSetINS_19CustomEventListenerEE5ComboEEC2EPKS4_i;2A.;__comp_ctor::(16,319):_ZN6MAUtil6VectorINS_11ListenerSetINS_19CustomEventListenerEE5ComboEEC1EPKS4_i;2A.;__base_ctor::(16,322)=#(16,314),(0,6),(16,318),(16,323)=&(16,324)=k(16,314),(0,6);:_ZN6MAUtil6VectorINS_11ListenerSetINS_19CustomEventListenerEE5ComboEEC2ERKS5_;2A.;__comp_ctor::(16,322):_ZN6MAUtil6VectorINS_11ListenerSetINS_19CustomEventListenerEE5ComboEEC1ERKS5_;2A.;__base_dtor::(16,325)=#(16,314),(0,6),(16,318),(0,6);:_ZN6MAUtil6VectorINS_11ListenerSetINS_19CustomEventListenerEE5ComboEED2Ev;2A.;__comp_dtor::(16,325):_ZN6MAUtil6VectorINS_11ListenerSetINS_19CustomEventListenerEE5ComboEED1Ev;2A.;operator=::(16,326)=#(16,314),(16,327)=&(16,314),(16,318),(16,323),(0,6);:_ZN6MAUtil6VectorINS_11ListenerSetINS_19CustomEventListenerEE5ComboEEaSERKS5_;2A.;add::(16,328)=#(16,314),(0,6),(16,318),(16,329)=&(16,321),(0,6);:_ZN6MAUtil6VectorINS_11ListenerSetINS_19CustomEventListenerEE5ComboEE3addERKS4_;2A.(16,319):_ZN6MAUtil6VectorINS_11ListenerSetINS_19CustomEventListenerEE5ComboEE3addEPKS4_i;2A.;remove::(16,330)=#(16,314),(0,6),(16,318),(16,315),(0,6);:_ZN6MAUtil6VectorINS_11ListenerSetINS_19CustomEventListenerEE5ComboEE6removeEPS4_;2A.(16,331)=#(16,314),(0,6),(16,318),(0,3),(0,6);:_ZN6MAUtil6VectorINS_11ListenerSetINS_19CustomEventListenerEE5ComboEE6removeEi;2A.(16,332)=#(16,314),(0,6),(16,318),(0,3),(0,3),(0,6);:_ZN6MAUtil6VectorINS_11ListenerSetINS_19CustomEventListenerEE5ComboEE6removeEii;2A.;insert::(16,333)=#(16,314),(0,6),(16,318),(0,3),(16,316),(0,6);:_ZN6MAUtil6VectorINS_11ListenerSetINS_19CustomEventListenerEE5ComboEE6insertEiS4_;2A.;size::(16,334)=#(16,314),(0,3),(16,335)=*(16,324),(0,6);:_ZNK6MAUtil6VectorINS_11ListenerSetINS_19CustomEventListenerEE5ComboEE4sizeEv;2B.;resize::(16,331):_ZN6MAUtil6VectorINS_11ListenerSetINS_19CustomEventListenerEE5ComboEE6resizeEi;2A.;reserve::(16,331):_ZN6MAUtil6VectorINS_11ListenerSetINS_19CustomEventListenerEE5ComboEE7reserveEi;2A.;clear::(16,325):_ZN6MAUtil6VectorINS_11ListenerSetINS_19CustomEventListenerEE5ComboEE5clearEv;2A.;empty::(16,336)=#(16,314),(0,4),(16,335),(0,6);:_ZNK6MAUtil6VectorINS_11ListenerSetINS_19CustomEventListenerEE5ComboEE5emptyEv;2B.;capacity::(16,334):_ZNK6MAUtil6VectorINS_11ListenerSetINS_19CustomEventListenerEE5ComboEE8capacityEv;2B.;begin::(16,337)=#(16,314),(16,315),(16,318),(0,6);:_ZN6MAUtil6VectorINS_11ListenerSetINS_19CustomEventListenerEE5ComboEE5beginEv;2A.;end::(16,337):_ZN6MAUtil6VectorINS_11ListenerSetINS_19CustomEventListenerEE5ComboEE3endEv;2A.;begin::(16,338)=#(16,314),(16,320),(16,335),(0,6);:_ZNK6MAUtil6VectorINS_11ListenerSetINS_19CustomEventListenerEE5ComboEE5beginEv;2B.;end::(16,338):_ZNK6MAUtil6VectorINS_11ListenerSetINS_19CustomEventListenerEE5ComboEE3endEv;2B.;operator[]::(16,339)=#(16,314),(16,340)=&(16,316),(16,318),(0,3),(0,6);:_ZN6MAUtil6VectorINS_11ListenerSetINS_19CustomEventListenerEE5ComboEEixEi;2A.(16,341)=#(16,314),(16,329),(16,335),(0,3),(0,6);:_ZNK6MAUtil6VectorINS_11ListenerSetINS_19CustomEventListenerEE5ComboEEixEi;2B.;pointer::(16,338):_ZNK6MAUtil6VectorINS_11ListenerSetINS_19CustomEventListenerEE5ComboEE7pointerEv;2B.(16,337):_ZN6MAUtil6VectorINS_11ListenerSetINS_19CustomEventListenerEE5ComboEE7pointerEv;2A.;;",128,0,94,0
	.stabs	"ListenerSet<MAUtil::CustomEventListener>:Tt(16,342)=s16mRunning:/0(0,4),0,8;mUpdateRequired:/0(0,4),8,8;mShouldDelete:/0(0,4),16,8;mVec:/0(16,314),32,96;__base_ctor::(16,343)=#(16,342),(0,6),(16,344)=*(16,342),(0,4),(0,6);:_ZN6MAUtil11ListenerSetINS_19CustomEventListenerEEC2Eb;2A.;__comp_ctor::(16,343):_ZN6MAUtil11ListenerSetINS_19CustomEventListenerEEC1Eb;2A.;begin::(16,345)=#(16,342),(16,346)=xsiterator:,(16,344),(0,6);:_ZN6MAUtil11ListenerSetINS_19CustomEventListenerEE5beginEv;2A.;add::(16,347)=#(16,342),(0,6),(16,344),(16,348)=*(16,349)=xsCustomEventListener:,(0,6);:_ZN6MAUtil11ListenerSetINS_19CustomEventListenerEE3addEPS1_;2A.;remove::(16,347):_ZN6MAUtil11ListenerSetINS_19CustomEventListenerEE6removeEPS1_;2A.;contains::(16,350)=#(16,342),(0,4),(16,344),(16,348),(0,6);:_ZN6MAUtil11ListenerSetINS_19CustomEventListenerEE8containsEPS1_;2A.;setRunning::(16,351)=#(16,342),(0,6),(16,344),(0,4),(0,6);:_ZN6MAUtil11ListenerSetINS_19CustomEventListenerEE10setRunningEb;2A.;size::(16,352)=#(16,342),(0,3),(16,353)=*(16,354)=k(16,342),(0,6);:_ZNK6MAUtil11ListenerSetINS_19CustomEventListenerEE4sizeEv;2B.;operator=::(16,355)=#(16,342),(16,356)=&(16,342),(16,344),(16,357)=&(16,354),(0,6);:_ZN6MAUtil11ListenerSetINS_19CustomEventListenerEEaSERKS2_;2A.;__base_ctor::(16,358)=#(16,342),(0,6),(16,344),(16,357),(0,6);:_ZN6MAUtil11ListenerSetINS_19CustomEventListenerEEC2ERKS2_;2A.;__comp_ctor::(16,358):_ZN6MAUtil11ListenerSetINS_19CustomEventListenerEEC1ERKS2_;2A.;__base_dtor::(16,359)=#(16,342),(0,6),(16,344),(0,6);:_ZN6MAUtil11ListenerSetINS_19CustomEventListenerEED2Ev;2A.;__comp_dtor::(16,359):_ZN6MAUtil11ListenerSetINS_19CustomEventListenerEED1Ev;2A.;;",128,0,46,0
	.stabs	"Vector<MAUtil::ListenerSet<MAUtil::TextBoxListener>::Combo>:Tt(16,360)=s12mSize:/1(0,3),0,32;mCapacity:/1(0,3),32,32;mData:/1(16,361)=*(16,362)=xsCombo:,64,32;__base_ctor::(16,363)=#(16,360),(0,6),(16,364)=*(16,360),(0,3),(0,6);:_ZN6MAUtil6VectorINS_11ListenerSetINS_15TextBoxListenerEE5ComboEEC2Ei;2A.;__comp_ctor::(16,363):_ZN6MAUtil6VectorINS_11ListenerSetINS_15TextBoxListenerEE5ComboEEC1Ei;2A.;__base_ctor::(16,365)=#(16,360),(0,6),(16,364),(16,366)=*(16,367)=k(16,362),(0,3),(0,6);:_ZN6MAUtil6VectorINS_11ListenerSetINS_15TextBoxListenerEE5ComboEEC2EPKS4_i;2A.;__comp_ctor::(16,365):_ZN6MAUtil6VectorINS_11ListenerSetINS_15TextBoxListenerEE5ComboEEC1EPKS4_i;2A.;__base_ctor::(16,368)=#(16,360),(0,6),(16,364),(16,369)=&(16,370)=k(16,360),(0,6);:_ZN6MAUtil6VectorINS_11ListenerSetINS_15TextBoxListenerEE5ComboEEC2ERKS5_;2A.;__comp_ctor::(16,368):_ZN6MAUtil6VectorINS_11ListenerSetINS_15TextBoxListenerEE5ComboEEC1ERKS5_;2A.;__base_dtor::(16,371)=#(16,360),(0,6),(16,364),(0,6);:_ZN6MAUtil6VectorINS_11ListenerSetINS_15TextBoxListenerEE5ComboEED2Ev;2A.;__comp_dtor::(16,371):_ZN6MAUtil6VectorINS_11ListenerSetINS_15TextBoxListenerEE5ComboEED1Ev;2A.;operator=::(16,372)=#(16,360),(16,373)=&(16,360),(16,364),(16,369),(0,6);:_ZN6MAUtil6VectorINS_11ListenerSetINS_15TextBoxListenerEE5ComboEEaSERKS5_;2A.;add::(16,374)=#(16,360),(0,6),(16,364),(16,375)=&(16,367),(0,6);:_ZN6MAUtil6VectorINS_11ListenerSetINS_15TextBoxListenerEE5ComboEE3addERKS4_;2A.(16,365):_ZN6MAUtil6VectorINS_11ListenerSetINS_15TextBoxListenerEE5ComboEE3addEPKS4_i;2A.;remove::(16,376)=#(16,360),(0,6),(16,364),(16,361),(0,6);:_ZN6MAUtil6VectorINS_11ListenerSetINS_15TextBoxListenerEE5ComboEE6removeEPS4_;2A.(16,377)=#(16,360),(0,6),(16,364),(0,3),(0,6);:_ZN6MAUtil6VectorINS_11ListenerSetINS_15TextBoxListenerEE5ComboEE6removeEi;2A.(16,378)=#(16,360),(0,6),(16,364),(0,3),(0,3),(0,6);:_ZN6MAUtil6VectorINS_11ListenerSetINS_15TextBoxListenerEE5ComboEE6removeEii;2A.;insert::(16,379)=#(16,360),(0,6),(16,364),(0,3),(16,362),(0,6);:_ZN6MAUtil6VectorINS_11ListenerSetINS_15TextBoxListenerEE5ComboEE6insertEiS4_;2A.;size::(16,380)=#(16,360),(0,3),(16,381)=*(16,370),(0,6);:_ZNK6MAUtil6VectorINS_11ListenerSetINS_15TextBoxListenerEE5ComboEE4sizeEv;2B.;resize::(16,377):_ZN6MAUtil6VectorINS_11ListenerSetINS_15TextBoxListenerEE5ComboEE6resizeEi;2A.;reserve::(16,377):_ZN6MAUtil6VectorINS_11ListenerSetINS_15TextBoxListenerEE5ComboEE7reserveEi;2A.;clear::(16,371):_ZN6MAUtil6VectorINS_11ListenerSetINS_15TextBoxListenerEE5ComboEE5clearEv;2A.;empty::(16,382)=#(16,360),(0,4),(16,381),(0,6);:_ZNK6MAUtil6VectorINS_11ListenerSetINS_15TextBoxListenerEE5ComboEE5emptyEv;2B.;capacity::(16,380):_ZNK6MAUtil6VectorINS_11ListenerSetINS_15TextBoxListenerEE5ComboEE8capacityEv;2B.;begin::(16,383)=#(16,360),(16,361),(16,364),(0,6);:_ZN6MAUtil6VectorINS_11ListenerSetINS_15TextBoxListenerEE5ComboEE5beginEv;2A.;end::(16,383):_ZN6MAUtil6VectorINS_11ListenerSetINS_15TextBoxListenerEE5ComboEE3endEv;2A.;begin::(16,384)=#(16,360),(16,366),(16,381),(0,6);:_ZNK6MAUtil6VectorINS_11ListenerSetINS_15TextBoxListenerEE5ComboEE5beginEv;2B.;end::(16,384):_ZNK6MAUtil6VectorINS_11ListenerSetINS_15TextBoxListenerEE5ComboEE3endEv;2B.;operator[]::(16,385)=#(16,360),(16,386)=&(16,362),(16,364),(0,3),(0,6);:_ZN6MAUtil6VectorINS_11ListenerSetINS_15TextBoxListenerEE5ComboEEixEi;2A.(16,387)=#(16,360),(16,375),(16,381),(0,3),(0,6);:_ZNK6MAUtil6VectorINS_11ListenerSetINS_15TextBoxListenerEE5ComboEEixEi;2B.;pointer::(16,384):_ZNK6MAUtil6VectorINS_11ListenerSetINS_15TextBoxListenerEE5ComboEE7pointerEv;2B.(16,383):_ZN6MAUtil6VectorINS_11ListenerSetINS_15TextBoxListenerEE5ComboEE7pointerEv;2A.;;",128,0,94,0
	.stabs	"ListenerSet<MAUtil::TextBoxListener>:Tt(16,388)=s16mRunning:/0(0,4),0,8;mUpdateRequired:/0(0,4),8,8;mShouldDelete:/0(0,4),16,8;mVec:/0(16,360),32,96;__base_ctor::(16,389)=#(16,388),(0,6),(16,390)=*(16,388),(0,4),(0,6);:_ZN6MAUtil11ListenerSetINS_15TextBoxListenerEEC2Eb;2A.;__comp_ctor::(16,389):_ZN6MAUtil11ListenerSetINS_15TextBoxListenerEEC1Eb;2A.;begin::(16,391)=#(16,388),(16,392)=xsiterator:,(16,390),(0,6);:_ZN6MAUtil11ListenerSetINS_15TextBoxListenerEE5beginEv;2A.;add::(16,393)=#(16,388),(0,6),(16,390),(16,394)=*(16,395)=xsTextBoxListener:,(0,6);:_ZN6MAUtil11ListenerSetINS_15TextBoxListenerEE3addEPS1_;2A.;remove::(16,393):_ZN6MAUtil11ListenerSetINS_15TextBoxListenerEE6removeEPS1_;2A.;contains::(16,396)=#(16,388),(0,4),(16,390),(16,394),(0,6);:_ZN6MAUtil11ListenerSetINS_15TextBoxListenerEE8containsEPS1_;2A.;setRunning::(16,397)=#(16,388),(0,6),(16,390),(0,4),(0,6);:_ZN6MAUtil11ListenerSetINS_15TextBoxListenerEE10setRunningEb;2A.;size::(16,398)=#(16,388),(0,3),(16,399)=*(16,400)=k(16,388),(0,6);:_ZNK6MAUtil11ListenerSetINS_15TextBoxListenerEE4sizeEv;2B.;operator=::(16,401)=#(16,388),(16,402)=&(16,388),(16,390),(16,403)=&(16,400),(0,6);:_ZN6MAUtil11ListenerSetINS_15TextBoxListenerEEaSERKS2_;2A.;__base_ctor::(16,404)=#(16,388),(0,6),(16,390),(16,403),(0,6);:_ZN6MAUtil11ListenerSetINS_15TextBoxListenerEEC2ERKS2_;2A.;__comp_ctor::(16,404):_ZN6MAUtil11ListenerSetINS_15TextBoxListenerEEC1ERKS2_;2A.;__base_dtor::(16,405)=#(16,388),(0,6),(16,390),(0,6);:_ZN6MAUtil11ListenerSetINS_15TextBoxListenerEED2Ev;2A.;__comp_dtor::(16,405):_ZN6MAUtil11ListenerSetINS_15TextBoxListenerEED1Ev;2A.;;",128,0,46,0
	.stabn	162,0,0,0
	.stabn	162,0,0,0
	.stabs	"c:/MoSync/include/MAUI/EditBox.h",130,0,0,0
	.stabs	"c:/MoSync/include/MAUI/Font.h",130,0,0,0
	.stabs	"CharDescriptor:Tt(18,1)=s16x:(0,12),0,16;y:(0,12),16,16;width:(0,12),32,16;height:(0,12),48,16;xOffset:(0,13),64,16;yOffset:(0,13),80,16;xAdvance:(0,13),96,16;page:(0,12),112,16;operator=::(18,2)=#(18,1),(18,3)=&(18,1),(18,4)=*(18,1),(18,5)=&(18,6)=k(18,1),(0,6);:_ZN4MAUI14CharDescriptoraSERKS0_;2A.;__base_ctor::(18,7)=#(18,1),(0,6),(18,4),(18,5),(0,6);:_ZN4MAUI14CharDescriptorC2ERKS0_;2A.;__comp_ctor::(18,7):_ZN4MAUI14CharDescriptorC1ERKS0_;2A.;__base_ctor::(18,8)=#(18,1),(0,6),(18,4),(0,6);:_ZN4MAUI14CharDescriptorC2Ev;2A.;__comp_ctor::(18,8):_ZN4MAUI14CharDescriptorC1Ev;2A.;;",128,0,40,0
	.stabs	"Charset:Tt(18,9)=s4122lineHeight:(0,12),0,16;base:(0,12),16,16;width:(0,12),32,16;height:(0,12),48,16;pages:(0,12),64,16;chars:(18,10)=ar(3,53);0;255;(18,1),80,32768;name:(18,11)=ar(3,53);0;15;(0,19),32848,128;operator=::(18,12)=#(18,9),(18,13)=&(18,9),(18,14)=*(18,9),(18,15)=&(18,16)=k(18,9),(0,6);:_ZN4MAUI7CharsetaSERKS0_;2A.;__base_ctor::(18,17)=#(18,9),(0,6),(18,14),(18,15),(0,6);:_ZN4MAUI7CharsetC2ERKS0_;2A.;__comp_ctor::(18,17):_ZN4MAUI7CharsetC1ERKS0_;2A.;__base_ctor::(18,18)=#(18,9),(0,6),(18,14),(0,6);:_ZN4MAUI7CharsetC2Ev;2A.;__comp_ctor::(18,18):_ZN4MAUI7CharsetC1Ev;2A.;;",128,0,55,0
	.stabs	"Font:Tt(18,19)=s12mFontImage:/1(3,10),0,32;mCharset:/1(18,14),32,32;mLineSpacing:/1(0,3),64,32;__base_ctor::(18,20)=#(18,19),(0,6),(18,21)=*(18,19),(3,10),(0,6);:_ZN4MAUI4FontC2Ei;2A.;__comp_ctor::(18,20):_ZN4MAUI4FontC1Ei;2A.;__base_dtor::(18,22)=#(18,19),(0,6),(18,21),(0,6);:_ZN4MAUI4FontD2Ev;2A.;__comp_dtor::(18,22):_ZN4MAUI4FontD1Ev;2A.;setResource::(18,20):_ZN4MAUI4Font11setResourceEi;2A.;getHandle::(18,23)=#(18,19),(3,10),(18,24)=*(18,25)=k(18,19),(0,6);:_ZNK4MAUI4Font9getHandleEv;2B.;getName::(18,26)=#(18,19),(18,27)=*(18,28)=k(0,19),(18,24),(0,6);:_ZNK4MAUI4Font7getNameEv;2B.;setLineSpacing::(18,29)=#(18,19),(0,6),(18,21),(0,3),(0,6);:_ZN4MAUI4Font14setLineSpacingEi;2A.;getLineSpacing::(18,30)=#(18,19),(0,3),(18,24),(0,6);:_ZNK4MAUI4Font14getLineSpacingEv;2B.;getStringDimensions::(18,31)=#(18,19),(3,11),(18,24),(18,27),(0,3),(0,6);:_ZNK4MAUI4Font19getStringDimensionsEPKci;2B.;getBoundedStringDimensions::(18,32)=#(18,19),(3,11),(18,24),(18,27),(18,33)=&(18,34)=k(18,35)=xsRect:,(0,3),(0,6);:_ZNK4MAUI4Font26getBoundedStringDimensionsEPKcRKN6MAUtil4RectEi;2B.;getLineBreak::(18,36)=#(18,19),(0,3),(18,24),(0,3),(18,27),(18,33),(0,6);:_ZNK4MAUI4Font12getLineBreakEiPKcRKN6MAUtil4RectE;2B.;calculateLine::(18,36):_ZNK4MAUI4Font13calculateLineEiPKcRKN6MAUtil4RectE;2B.;calculateRectOfIndex::(18,37)=#(18,19),(18,35),(18,24),(0,3),(18,27),(18,33),(0,6);:_ZNK4MAUI4Font20calculateRectOfIndexEiPKcRKN6MAUtil4RectE;2B.;drawString::(18,38)=#(18,19),(0,6),(18,21),(18,27),(0,3),(0,3),(0,6);:_ZN4MAUI4Font10drawStringEPKcii;2A.;drawBoundedString::(18,39)=#(18,19),(0,6),(18,21),(18,27),(0,3),(0,3),(18,33),(0,6);:_ZN4MAUI4Font17drawBoundedStringEPKciiRKN6MAUtil4RectE;2A.;getCharset::(18,40)=#(18,19),(18,15),(18,24),(0,6);:_ZNK4MAUI4Font10getCharsetEv;2B.;calcCharPos::(18,41)=#(18,19),(0,6),(18,21),(0,19),(11,34),(11,34),(0,6);:_ZN4MAUI4Font11calcCharPosEcPiS1_;1A.;calcLineBreaks::(18,42)=#(18,19),(0,6),(18,24),(18,27),(0,3),(0,3),(18,33),(0,6);:_ZNK4MAUI4Font14calcLineBreaksEPKciiRKN6MAUtil4RectE;1B.;operator=::(18,43)=#(18,19),(18,44)=&(18,19),(18,21),(18,45)=&(18,25),(0,6);:_ZN4MAUI4FontaSERKS0_;2A.;__base_ctor::(18,46)=#(18,19),(0,6),(18,21),(18,45),(0,6);:_ZN4MAUI4FontC2ERKS0_;2A.;__comp_ctor::(18,46):_ZN4MAUI4FontC1ERKS0_;2A.;;",128,0,70,0
	.stabn	162,0,0,0
	.stabs	"c:/MoSync/include/MAUtil/CharInput.h",130,0,0,0
	.stabs	"CharInputCallback:t(19,1)=(19,2)=*(11,43)",128,0,64,0
	.stabs	"StartTimerCallback:t(19,3)=(19,4)=*(19,5)=f(0,6)",128,0,70,0
	.stabs	"StopTimerCallback:t(19,6)=(19,2)",128,0,75,0
	.stabs	"CharCallback:t(19,7)=(19,8)=*(19,9)=f(0,6)",128,0,110,0
	.stabs	"CharInput::CharMode:t(19,10)=eLOWERCASE:0,UPPERCASE:1,NUMBERS:2,;",128,0,182,0
	.stabs	"Vector<MAUtil::ListenerSet<MAUtil::CharInputListener>::Combo>:Tt(19,11)=s12mSize:/1(0,3),0,32;mCapacity:/1(0,3),32,32;mData:/1(19,12)=*(19,13)=xsCombo:,64,32;__base_ctor::(19,14)=#(19,11),(0,6),(19,15)=*(19,11),(0,3),(0,6);:_ZN6MAUtil6VectorINS_11ListenerSetINS_17CharInputListenerEE5ComboEEC2Ei;2A.;__comp_ctor::(19,14):_ZN6MAUtil6VectorINS_11ListenerSetINS_17CharInputListenerEE5ComboEEC1Ei;2A.;__base_ctor::(19,16)=#(19,11),(0,6),(19,15),(19,17)=*(19,18)=k(19,13),(0,3),(0,6);:_ZN6MAUtil6VectorINS_11ListenerSetINS_17CharInputListenerEE5ComboEEC2EPKS4_i;2A.;__comp_ctor::(19,16):_ZN6MAUtil6VectorINS_11ListenerSetINS_17CharInputListenerEE5ComboEEC1EPKS4_i;2A.;__base_ctor::(19,19)=#(19,11),(0,6),(19,15),(19,20)=&(19,21)=k(19,11),(0,6);:_ZN6MAUtil6VectorINS_11ListenerSetINS_17CharInputListenerEE5ComboEEC2ERKS5_;2A.;__comp_ctor::(19,19):_ZN6MAUtil6VectorINS_11ListenerSetINS_17CharInputListenerEE5ComboEEC1ERKS5_;2A.;__base_dtor::(19,22)=#(19,11),(0,6),(19,15),(0,6);:_ZN6MAUtil6VectorINS_11ListenerSetINS_17CharInputListenerEE5ComboEED2Ev;2A.;__comp_dtor::(19,22):_ZN6MAUtil6VectorINS_11ListenerSetINS_17CharInputListenerEE5ComboEED1Ev;2A.;operator=::(19,23)=#(19,11),(19,24)=&(19,11),(19,15),(19,20),(0,6);:_ZN6MAUtil6VectorINS_11ListenerSetINS_17CharInputListenerEE5ComboEEaSERKS5_;2A.;add::(19,25)=#(19,11),(0,6),(19,15),(19,26)=&(19,18),(0,6);:_ZN6MAUtil6VectorINS_11ListenerSetINS_17CharInputListenerEE5ComboEE3addERKS4_;2A.(19,16):_ZN6MAUtil6VectorINS_11ListenerSetINS_17CharInputListenerEE5ComboEE3addEPKS4_i;2A.;remove::(19,27)=#(19,11),(0,6),(19,15),(19,12),(0,6);:_ZN6MAUtil6VectorINS_11ListenerSetINS_17CharInputListenerEE5ComboEE6removeEPS4_;2A.(19,28)=#(19,11),(0,6),(19,15),(0,3),(0,6);:_ZN6MAUtil6VectorINS_11ListenerSetINS_17CharInputListenerEE5ComboEE6removeEi;2A.(19,29)=#(19,11),(0,6),(19,15),(0,3),(0,3),(0,6);:_ZN6MAUtil6VectorINS_11ListenerSetINS_17CharInputListenerEE5ComboEE6removeEii;2A.;insert::(19,30)=#(19,11),(0,6),(19,15),(0,3),(19,13),(0,6);:_ZN6MAUtil6VectorINS_11ListenerSetINS_17CharInputListenerEE5ComboEE6insertEiS4_;2A.;size::(19,31)=#(19,11),(0,3),(19,32)=*(19,21),(0,6);:_ZNK6MAUtil6VectorINS_11ListenerSetINS_17CharInputListenerEE5ComboEE4sizeEv;2B.;resize::(19,28):_ZN6MAUtil6VectorINS_11ListenerSetINS_17CharInputListenerEE5ComboEE6resizeEi;2A.;reserve::(19,28):_ZN6MAUtil6VectorINS_11ListenerSetINS_17CharInputListenerEE5ComboEE7reserveEi;2A.;clear::(19,22):_ZN6MAUtil6VectorINS_11ListenerSetINS_17CharInputListenerEE5ComboEE5clearEv;2A.;empty::(19,33)=#(19,11),(0,4),(19,32),(0,6);:_ZNK6MAUtil6VectorINS_11ListenerSetINS_17CharInputListenerEE5ComboEE5emptyEv;2B.;capacity::(19,31):_ZNK6MAUtil6VectorINS_11ListenerSetINS_17CharInputListenerEE5ComboEE8capacityEv;2B.;begin::(19,34)=#(19,11),(19,12),(19,15),(0,6);:_ZN6MAUtil6VectorINS_11ListenerSetINS_17CharInputListenerEE5ComboEE5beginEv;2A.;end::(19,34):_ZN6MAUtil6VectorINS_11ListenerSetINS_17CharInputListenerEE5ComboEE3endEv;2A.;begin::(19,35)=#(19,11),(19,17),(19,32),(0,6);:_ZNK6MAUtil6VectorINS_11ListenerSetINS_17CharInputListenerEE5ComboEE5beginEv;2B.;end::(19,35):_ZNK6MAUtil6VectorINS_11ListenerSetINS_17CharInputListenerEE5ComboEE3endEv;2B.;operator[]::(19,36)=#(19,11),(19,37)=&(19,13),(19,15),(0,3),(0,6);:_ZN6MAUtil6VectorINS_11ListenerSetINS_17CharInputListenerEE5ComboEEixEi;2A.(19,38)=#(19,11),(19,26),(19,32),(0,3),(0,6);:_ZNK6MAUtil6VectorINS_11ListenerSetINS_17CharInputListenerEE5ComboEEixEi;2B.;pointer::(19,35):_ZNK6MAUtil6VectorINS_11ListenerSetINS_17CharInputListenerEE5ComboEE7pointerEv;2B.(19,34):_ZN6MAUtil6VectorINS_11ListenerSetINS_17CharInputListenerEE5ComboEE7pointerEv;2A.;;",128,0,94,0
	.stabs	"ListenerSet<MAUtil::CharInputListener>:Tt(19,39)=s16mRunning:/0(0,4),0,8;mUpdateRequired:/0(0,4),8,8;mShouldDelete:/0(0,4),16,8;mVec:/0(19,11),32,96;__base_ctor::(19,40)=#(19,39),(0,6),(19,41)=*(19,39),(0,4),(0,6);:_ZN6MAUtil11ListenerSetINS_17CharInputListenerEEC2Eb;2A.;__comp_ctor::(19,40):_ZN6MAUtil11ListenerSetINS_17CharInputListenerEEC1Eb;2A.;begin::(19,42)=#(19,39),(19,43)=xsiterator:,(19,41),(0,6);:_ZN6MAUtil11ListenerSetINS_17CharInputListenerEE5beginEv;2A.;add::(19,44)=#(19,39),(0,6),(19,41),(19,45)=*(19,46)=xsCharInputListener:,(0,6);:_ZN6MAUtil11ListenerSetINS_17CharInputListenerEE3addEPS1_;2A.;remove::(19,44):_ZN6MAUtil11ListenerSetINS_17CharInputListenerEE6removeEPS1_;2A.;contains::(19,47)=#(19,39),(0,4),(19,41),(19,45),(0,6);:_ZN6MAUtil11ListenerSetINS_17CharInputListenerEE8containsEPS1_;2A.;setRunning::(19,48)=#(19,39),(0,6),(19,41),(0,4),(0,6);:_ZN6MAUtil11ListenerSetINS_17CharInputListenerEE10setRunningEb;2A.;size::(19,49)=#(19,39),(0,3),(19,50)=*(19,51)=k(19,39),(0,6);:_ZNK6MAUtil11ListenerSetINS_17CharInputListenerEE4sizeEv;2B.;operator=::(19,52)=#(19,39),(19,53)=&(19,39),(19,41),(19,54)=&(19,51),(0,6);:_ZN6MAUtil11ListenerSetINS_17CharInputListenerEEaSERKS2_;2A.;__base_ctor::(19,55)=#(19,39),(0,6),(19,41),(19,54),(0,6);:_ZN6MAUtil11ListenerSetINS_17CharInputListenerEEC2ERKS2_;2A.;__comp_ctor::(19,55):_ZN6MAUtil11ListenerSetINS_17CharInputListenerEEC1ERKS2_;2A.;__base_dtor::(19,56)=#(19,39),(0,6),(19,41),(0,6);:_ZN6MAUtil11ListenerSetINS_17CharInputListenerEED2Ev;2A.;__comp_dtor::(19,56):_ZN6MAUtil11ListenerSetINS_17CharInputListenerEED1Ev;2A.;;",128,0,46,0
	.stabn	162,0,0,0
	.stabs	"c:/MoSync/include/MAUI/Label.h",130,0,0,0
	.stabs	"Label::HorizontalAlignment:t(20,1)=eHA_LEFT:0,HA_CENTER:1,HA_RIGHT:2,;",128,0,44,0
	.stabs	"Label::VerticalAlignment:t(20,2)=eVA_TOP:0,VA_CENTER:1,VA_BOTTOM:2,;",128,0,50,0
	.stabs	"BasicString<char>:Tt(9,2)=s4sd:/1(20,3)=*(20,4)=xsStringData<char>:,0,32;__base_ctor::(20,5)=#(9,2),(0,6),(20,6)=*(9,2),(0,6);:_ZN6MAUtil11BasicStringIcEC2Ev;2A.;__comp_ctor::(20,5):_ZN6MAUtil11BasicStringIcEC1Ev;2A.;__base_ctor::(20,7)=#(9,2),(0,6),(20,6),(0,3),(0,6);:_ZN6MAUtil11BasicStringIcEC2Ei;2A.;__comp_ctor::(20,7):_ZN6MAUtil11BasicStringIcEC1Ei;2A.;__base_ctor::(20,8)=#(9,2),(0,6),(20,6),(18,27),(0,6);:_ZN6MAUtil11BasicStringIcEC2EPKc;2A.;__comp_ctor::(20,8):_ZN6MAUtil11BasicStringIcEC1EPKc;2A.;__base_ctor::(20,9)=#(9,2),(0,6),(20,6),(18,27),(0,3),(0,6);:_ZN6MAUtil11BasicStringIcEC2EPKci;2A.;__comp_ctor::(20,9):_ZN6MAUtil11BasicStringIcEC1EPKci;2A.;__base_ctor::(20,10)=#(9,2),(0,6),(20,6),(20,11)=&(20,12)=k(9,2),(0,6);:_ZN6MAUtil11BasicStringIcEC2ERKS1_;2A.;__comp_ctor::(20,10):_ZN6MAUtil11BasicStringIcEC1ERKS1_;2A.;c_str::(20,13)=#(9,2),(18,27),(20,14)=*(20,12),(0,6);:_ZNK6MAUtil11BasicStringIcE5c_strEv;2B.;operator=::(20,15)=#(9,2),(20,16)=&(9,2),(20,6),(20,11),(0,6);:_ZN6MAUtil11BasicStringIcEaSERKS1_;2A.;operator[]::(20,17)=#(9,2),(20,18)=&(0,19),(20,6),(0,3),(0,6);:_ZN6MAUtil11BasicStringIcEixEi;2A.(20,19)=#(9,2),(20,20)=&(18,28),(20,14),(0,3),(0,6);:_ZNK6MAUtil11BasicStringIcEixEi;2B.;operator==::(20,21)=#(9,2),(0,4),(20,14),(20,11),(0,6);:_ZNK6MAUtil11BasicStringIcEeqERKS1_;2B.;operator!=::(20,21):_ZNK6MAUtil11BasicStringIcEneERKS1_;2B.;operator<::(20,21):_ZNK6MAUtil11BasicStringIcEltERKS1_;2B.;operator>::(20,21):_ZNK6MAUtil11BasicStringIcEgtERKS1_;2B.;operator<=::(20,21):_ZNK6MAUtil11BasicStringIcEleERKS1_;2B.;operator>=::(20,21):_ZNK6MAUtil11BasicStringIcEgeERKS1_;2B.;operator+::(20,22)=#(9,2),(9,2),(20,14),(20,11),(0,6);:_ZNK6MAUtil11BasicStringIcEplERKS1_;2B.;operator+=::(20,15):_ZN6MAUtil11BasicStringIcEpLERKS1_;2A.;operator+::(20,23)=#(9,2),(9,2),(20,14),(0,19),(0,6);:_ZNK6MAUtil11BasicStringIcEplEc;2B.;operator+=::(20,24)=#(9,2),(20,16),(20,6),(0,19),(0,6);:_ZN6MAUtil11BasicStringIcEpLEc;2A.;find::(20,25)=#(9,2),(0,3),(20,14),(20,11),(0,17),(0,6);:_ZNK6MAUtil11BasicStringIcE4findERKS1_j;2B.;findLastOf::(20,26)=#(9,2),(0,3),(20,14),(0,19),(0,6);:_ZNK6MAUtil11BasicStringIcE10findLastOfEc;2B.;findFirstOf::(20,27)=#(9,2),(0,3),(20,14),(0,19),(0,3),(0,6);:_ZNK6MAUtil11BasicStringIcE11findFirstOfEci;2B.;findFirstNotOf::(20,27):_ZNK6MAUtil11BasicStringIcE14findFirstNotOfEci;2B.;insert::(20,28)=#(9,2),(0,6),(20,6),(0,3),(20,11),(0,6);:_ZN6MAUtil11BasicStringIcE6insertEiRKS1_;2A.(20,29)=#(9,2),(0,6),(20,6),(0,3),(0,19),(0,6);:_ZN6MAUtil11BasicStringIcE6insertEic;2A.;remove::(20,30)=#(9,2),(0,6),(20,6),(0,3),(0,3),(0,6);:_ZN6MAUtil11BasicStringIcE6removeEii;2A.;substr::(20,31)=#(9,2),(9,2),(20,14),(0,3),(0,3),(0,6);:_ZNK6MAUtil11BasicStringIcE6substrEii;2B.;capacity::(20,32)=#(9,2),(0,3),(20,14),(0,6);:_ZNK6MAUtil11BasicStringIcE8capacityEv;2B.;size::(20,32):_ZNK6MAUtil11BasicStringIcE4sizeEv;2B.;length::(20,32):_ZNK6MAUtil11BasicStringIcE6lengthEv;2B.;resize::(20,7):_ZN6MAUtil11BasicStringIcE6resizeEi;2A.;reserve::(20,7):_ZN6MAUtil11BasicStringIcE7reserveEi;2A.;clear::(20,5):_ZN6MAUtil11BasicStringIcE5clearEv;2A.;append::(20,9):_ZN6MAUtil11BasicStringIcE6appendEPKci;2A.;setData::(20,33)=#(9,2),(0,6),(20,6),(20,3),(0,6);:_ZN6MAUtil11BasicStringIcE7setDataEPNS_10StringDataIcEE;2A.;pointer::(20,34)=#(9,2),(3,5),(20,6),(0,6);:_ZN6MAUtil11BasicStringIcE7pointerEv;2A.;__base_dtor::(20,5):_ZN6MAUtil11BasicStringIcED2Ev;2A.;__comp_dtor::(20,5):_ZN6MAUtil11BasicStringIcED1Ev;2A.;allocStringData::(20,9):_ZN6MAUtil11BasicStringIcE15allocStringDataEPKci;1A.;;",128,0,104,0
	.stabn	162,0,0,0
	.stabs	"EditBox::InputMode:t(17,1)=eIM_NUMBERS:0,IM_STANDARD:1,IM_QWERTY:2,;",128,0,69,0
	.stabs	"Vector<MAUI::EditBoxListener*>:Tt(17,2)=s12mSize:/1(0,3),0,32;mCapacity:/1(0,3),32,32;mData:/1(17,3)=*(17,4)=*(17,5)=xsEditBoxListener:,64,32;__base_ctor::(17,6)=#(17,2),(0,6),(17,7)=*(17,2),(0,3),(0,6);:_ZN6MAUtil6VectorIPN4MAUI15EditBoxListenerEEC2Ei;2A.;__comp_ctor::(17,6):_ZN6MAUtil6VectorIPN4MAUI15EditBoxListenerEEC1Ei;2A.;__base_ctor::(17,8)=#(17,2),(0,6),(17,7),(17,9)=*(17,10)=k(17,4),(0,3),(0,6);:_ZN6MAUtil6VectorIPN4MAUI15EditBoxListenerEEC2EPKS3_i;2A.;__comp_ctor::(17,8):_ZN6MAUtil6VectorIPN4MAUI15EditBoxListenerEEC1EPKS3_i;2A.;__base_ctor::(17,11)=#(17,2),(0,6),(17,7),(17,12)=&(17,13)=k(17,2),(0,6);:_ZN6MAUtil6VectorIPN4MAUI15EditBoxListenerEEC2ERKS4_;2A.;__comp_ctor::(17,11):_ZN6MAUtil6VectorIPN4MAUI15EditBoxListenerEEC1ERKS4_;2A.;__base_dtor::(17,14)=#(17,2),(0,6),(17,7),(0,6);:_ZN6MAUtil6VectorIPN4MAUI15EditBoxListenerEED2Ev;2A.;__comp_dtor::(17,14):_ZN6MAUtil6VectorIPN4MAUI15EditBoxListenerEED1Ev;2A.;operator=::(17,15)=#(17,2),(17,16)=&(17,2),(17,7),(17,12),(0,6);:_ZN6MAUtil6VectorIPN4MAUI15EditBoxListenerEEaSERKS4_;2A.;add::(17,17)=#(17,2),(0,6),(17,7),(17,18)=&(17,10),(0,6);:_ZN6MAUtil6VectorIPN4MAUI15EditBoxListenerEE3addERKS3_;2A.(17,8):_ZN6MAUtil6VectorIPN4MAUI15EditBoxListenerEE3addEPKS3_i;2A.;remove::(17,19)=#(17,2),(0,6),(17,7),(17,3),(0,6);:_ZN6MAUtil6VectorIPN4MAUI15EditBoxListenerEE6removeEPS3_;2A.(17,20)=#(17,2),(0,6),(17,7),(0,3),(0,6);:_ZN6MAUtil6VectorIPN4MAUI15EditBoxListenerEE6removeEi;2A.(17,21)=#(17,2),(0,6),(17,7),(0,3),(0,3),(0,6);:_ZN6MAUtil6VectorIPN4MAUI15EditBoxListenerEE6removeEii;2A.;insert::(17,22)=#(17,2),(0,6),(17,7),(0,3),(17,4),(0,6);:_ZN6MAUtil6VectorIPN4MAUI15EditBoxListenerEE6insertEiS3_;2A.;size::(17,23)=#(17,2),(0,3),(17,24)=*(17,13),(0,6);:_ZNK6MAUtil6VectorIPN4MAUI15EditBoxListenerEE4sizeEv;2B.;resize::(17,20):_ZN6MAUtil6VectorIPN4MAUI15EditBoxListenerEE6resizeEi;2A.;reserve::(17,20):_ZN6MAUtil6VectorIPN4MAUI15EditBoxListenerEE7reserveEi;2A.;clear::(17,14):_ZN6MAUtil6VectorIPN4MAUI15EditBoxListenerEE5clearEv;2A.;empty::(17,25)=#(17,2),(0,4),(17,24),(0,6);:_ZNK6MAUtil6VectorIPN4MAUI15EditBoxListenerEE5emptyEv;2B.;capacity::(17,23):_ZNK6MAUtil6VectorIPN4MAUI15EditBoxListenerEE8capacityEv;2B.;begin::(17,26)=#(17,2),(17,3),(17,7),(0,6);:_ZN6MAUtil6VectorIPN4MAUI15EditBoxListenerEE5beginEv;2A.;end::(17,26):_ZN6MAUtil6VectorIPN4MAUI15EditBoxListenerEE3endEv;2A.;begin::(17,27)=#(17,2),(17,9),(17,24),(0,6);:_ZNK6MAUtil6VectorIPN4MAUI15EditBoxListenerEE5beginEv;2B.;end::(17,27):_ZNK6MAUtil6VectorIPN4MAUI15EditBoxListenerEE3endEv;2B.;operator[]::(17,28)=#(17,2),(17,29)=&(17,4),(17,7),(0,3),(0,6);:_ZN6MAUtil6VectorIPN4MAUI15EditBoxListenerEEixEi;2A.(17,30)=#(17,2),(17,18),(17,24),(0,3),(0,6);:_ZNK6MAUtil6VectorIPN4MAUI15EditBoxListenerEEixEi;2B.;pointer::(17,27):_ZNK6MAUtil6VectorIPN4MAUI15EditBoxListenerEE7pointerEv;2B.(17,26):_ZN6MAUtil6VectorIPN4MAUI15EditBoxListenerEE7pointerEv;2A.;;",128,0,94,0
	.stabn	162,0,0,0
	.stabs	"c:/MoSync/include/MAUI/ListBox.h",130,0,0,0
	.stabs	"c:/MoSync/include/MAUI/Engine.h",130,0,0,0
	.stabn	162,0,0,0
	.stabs	"ListBox::ListBoxOrientation:t(21,1)=eLBO_HORIZONTAL:0,LBO_VERTICAL:1,;",128,0,59,0
	.stabs	"ListBox::ListBoxAnimationType:t(21,2)=eLBA_NONE:0,LBA_LINEAR:1,;",128,0,64,0
	.stabs	"Vector<MAUI::ItemSelectedListener*>:Tt(21,3)=s12mSize:/1(0,3),0,32;mCapacity:/1(0,3),32,32;mData:/1(21,4)=*(21,5)=*(21,6)=xsItemSelectedListener:,64,32;__base_ctor::(21,7)=#(21,3),(0,6),(21,8)=*(21,3),(0,3),(0,6);:_ZN6MAUtil6VectorIPN4MAUI20ItemSelectedListenerEEC2Ei;2A.;__comp_ctor::(21,7):_ZN6MAUtil6VectorIPN4MAUI20ItemSelectedListenerEEC1Ei;2A.;__base_ctor::(21,9)=#(21,3),(0,6),(21,8),(21,10)=*(21,11)=k(21,5),(0,3),(0,6);:_ZN6MAUtil6VectorIPN4MAUI20ItemSelectedListenerEEC2EPKS3_i;2A.;__comp_ctor::(21,9):_ZN6MAUtil6VectorIPN4MAUI20ItemSelectedListenerEEC1EPKS3_i;2A.;__base_ctor::(21,12)=#(21,3),(0,6),(21,8),(21,13)=&(21,14)=k(21,3),(0,6);:_ZN6MAUtil6VectorIPN4MAUI20ItemSelectedListenerEEC2ERKS4_;2A.;__comp_ctor::(21,12):_ZN6MAUtil6VectorIPN4MAUI20ItemSelectedListenerEEC1ERKS4_;2A.;__base_dtor::(21,15)=#(21,3),(0,6),(21,8),(0,6);:_ZN6MAUtil6VectorIPN4MAUI20ItemSelectedListenerEED2Ev;2A.;__comp_dtor::(21,15):_ZN6MAUtil6VectorIPN4MAUI20ItemSelectedListenerEED1Ev;2A.;operator=::(21,16)=#(21,3),(21,17)=&(21,3),(21,8),(21,13),(0,6);:_ZN6MAUtil6VectorIPN4MAUI20ItemSelectedListenerEEaSERKS4_;2A.;add::(21,18)=#(21,3),(0,6),(21,8),(21,19)=&(21,11),(0,6);:_ZN6MAUtil6VectorIPN4MAUI20ItemSelectedListenerEE3addERKS3_;2A.(21,9):_ZN6MAUtil6VectorIPN4MAUI20ItemSelectedListenerEE3addEPKS3_i;2A.;remove::(21,20)=#(21,3),(0,6),(21,8),(21,4),(0,6);:_ZN6MAUtil6VectorIPN4MAUI20ItemSelectedListenerEE6removeEPS3_;2A.(21,21)=#(21,3),(0,6),(21,8),(0,3),(0,6);:_ZN6MAUtil6VectorIPN4MAUI20ItemSelectedListenerEE6removeEi;2A.(21,22)=#(21,3),(0,6),(21,8),(0,3),(0,3),(0,6);:_ZN6MAUtil6VectorIPN4MAUI20ItemSelectedListenerEE6removeEii;2A.;insert::(21,23)=#(21,3),(0,6),(21,8),(0,3),(21,5),(0,6);:_ZN6MAUtil6VectorIPN4MAUI20ItemSelectedListenerEE6insertEiS3_;2A.;size::(21,24)=#(21,3),(0,3),(21,25)=*(21,14),(0,6);:_ZNK6MAUtil6VectorIPN4MAUI20ItemSelectedListenerEE4sizeEv;2B.;resize::(21,21):_ZN6MAUtil6VectorIPN4MAUI20ItemSelectedListenerEE6resizeEi;2A.;reserve::(21,21):_ZN6MAUtil6VectorIPN4MAUI20ItemSelectedListenerEE7reserveEi;2A.;clear::(21,15):_ZN6MAUtil6VectorIPN4MAUI20ItemSelectedListenerEE5clearEv;2A.;empty::(21,26)=#(21,3),(0,4),(21,25),(0,6);:_ZNK6MAUtil6VectorIPN4MAUI20ItemSelectedListenerEE5emptyEv;2B.;capacity::(21,24):_ZNK6MAUtil6VectorIPN4MAUI20ItemSelectedListenerEE8capacityEv;2B.;begin::(21,27)=#(21,3),(21,4),(21,8),(0,6);:_ZN6MAUtil6VectorIPN4MAUI20ItemSelectedListenerEE5beginEv;2A.;end::(21,27):_ZN6MAUtil6VectorIPN4MAUI20ItemSelectedListenerEE3endEv;2A.;begin::(21,28)=#(21,3),(21,10),(21,25),(0,6);:_ZNK6MAUtil6VectorIPN4MAUI20ItemSelectedListenerEE5beginEv;2B.;end::(21,28):_ZNK6MAUtil6VectorIPN4MAUI20ItemSelectedListenerEE3endEv;2B.;operator[]::(21,29)=#(21,3),(21,30)=&(21,5),(21,8),(0,3),(0,6);:_ZN6MAUtil6VectorIPN4MAUI20ItemSelectedListenerEEixEi;2A.(21,31)=#(21,3),(21,19),(21,25),(0,3),(0,6);:_ZNK6MAUtil6VectorIPN4MAUI20ItemSelectedListenerEEixEi;2B.;pointer::(21,28):_ZNK6MAUtil6VectorIPN4MAUI20ItemSelectedListenerEE7pointerEv;2B.(21,27):_ZN6MAUtil6VectorIPN4MAUI20ItemSelectedListenerEE7pointerEv;2A.;;",128,0,94,0
	.stabn	162,0,0,0
	.stabs	"c:/MoSync/include/MAUI/Layout.h",130,0,0,0
	.stabs	"Layout::HorizontalAlignment:t(23,1)=eHA_LEFT:0,HA_CENTER:1,HA_RIGHT:2,;",128,0,40,0
	.stabs	"Layout::VerticalAlignment:t(23,2)=eVA_TOP:0,VA_CENTER:1,VA_BOTTOM:2,;",128,0,46,0
	.stabn	162,0,0,0
	.stabs	"c:/MoSync/include/MAUtil/BluetoothDiscovery.h",130,0,0,0
	.stabs	"BtDevice:Tt(24,1)=s12name:(9,1),0,32;address:(3,61),32,48;operator=::(24,2)=#(24,1),(24,3)=&(24,1),(24,4)=*(24,1),(24,5)=&(24,6)=k(24,1),(0,6);:_ZN6MAUtil8BtDeviceaSERKS0_;2A.;__base_ctor::(24,7)=#(24,1),(0,6),(24,4),(24,5),(0,6);:_ZN6MAUtil8BtDeviceC2ERKS0_;2A.;__comp_ctor::(24,7):_ZN6MAUtil8BtDeviceC1ERKS0_;2A.;__base_ctor::(24,8)=#(24,1),(0,6),(24,4),(0,6);:_ZN6MAUtil8BtDeviceC2Ev;2A.;__comp_ctor::(24,8):_ZN6MAUtil8BtDeviceC1Ev;2A.;__base_dtor::(24,8):_ZN6MAUtil8BtDeviceD2Ev;2A.;__comp_dtor::(24,8):_ZN6MAUtil8BtDeviceD1Ev;2A.;;",128,0,54,0
	.stabs	"Vector<MAUUID>:Tt(24,9)=s12mSize:/1(0,3),0,32;mCapacity:/1(0,3),32,32;mData:/1(3,142),64,32;__base_ctor::(24,10)=#(24,9),(0,6),(24,11)=*(24,9),(0,3),(0,6);:_ZN6MAUtil6VectorI6MAUUIDEC2Ei;2A.;__comp_ctor::(24,10):_ZN6MAUtil6VectorI6MAUUIDEC1Ei;2A.;__base_ctor::(24,12)=#(24,9),(0,6),(24,11),(24,13)=*(24,14)=k(3,131),(0,3),(0,6);:_ZN6MAUtil6VectorI6MAUUIDEC2EPKS1_i;2A.;__comp_ctor::(24,12):_ZN6MAUtil6VectorI6MAUUIDEC1EPKS1_i;2A.;__base_ctor::(24,15)=#(24,9),(0,6),(24,11),(24,16)=&(24,17)=k(24,9),(0,6);:_ZN6MAUtil6VectorI6MAUUIDEC2ERKS2_;2A.;__comp_ctor::(24,15):_ZN6MAUtil6VectorI6MAUUIDEC1ERKS2_;2A.;__base_dtor::(24,18)=#(24,9),(0,6),(24,11),(0,6);:_ZN6MAUtil6VectorI6MAUUIDED2Ev;2A.;__comp_dtor::(24,18):_ZN6MAUtil6VectorI6MAUUIDED1Ev;2A.;operator=::(24,19)=#(24,9),(24,20)=&(24,9),(24,11),(24,16),(0,6);:_ZN6MAUtil6VectorI6MAUUIDEaSERKS2_;2A.;add::(24,21)=#(24,9),(0,6),(24,11),(24,22)=&(24,14),(0,6);:_ZN6MAUtil6VectorI6MAUUIDE3addERKS1_;2A.(24,12):_ZN6MAUtil6VectorI6MAUUIDE3addEPKS1_i;2A.;remove::(24,23)=#(24,9),(0,6),(24,11),(3,142),(0,6);:_ZN6MAUtil6VectorI6MAUUIDE6removeEPS1_;2A.(24,24)=#(24,9),(0,6),(24,11),(0,3),(0,6);:_ZN6MAUtil6VectorI6MAUUIDE6removeEi;2A.(24,25)=#(24,9),(0,6),(24,11),(0,3),(0,3),(0,6);:_ZN6MAUtil6VectorI6MAUUIDE6removeEii;2A.;insert::(24,26)=#(24,9),(0,6),(24,11),(0,3),(3,122),(0,6);:_ZN6MAUtil6VectorI6MAUUIDE6insertEiS1_;2A.;size::(24,27)=#(24,9),(0,3),(24,28)=*(24,17),(0,6);:_ZNK6MAUtil6VectorI6MAUUIDE4sizeEv;2B.;resize::(24,24):_ZN6MAUtil6VectorI6MAUUIDE6resizeEi;2A.;reserve::(24,24):_ZN6MAUtil6VectorI6MAUUIDE7reserveEi;2A.;clear::(24,18):_ZN6MAUtil6VectorI6MAUUIDE5clearEv;2A.;empty::(24,29)=#(24,9),(0,4),(24,28),(0,6);:_ZNK6MAUtil6VectorI6MAUUIDE5emptyEv;2B.;capacity::(24,27):_ZNK6MAUtil6VectorI6MAUUIDE8capacityEv;2B.;begin::(24,30)=#(24,9),(3,142),(24,11),(0,6);:_ZN6MAUtil6VectorI6MAUUIDE5beginEv;2A.;end::(24,30):_ZN6MAUtil6VectorI6MAUUIDE3endEv;2A.;begin::(24,31)=#(24,9),(24,13),(24,28),(0,6);:_ZNK6MAUtil6VectorI6MAUUIDE5beginEv;2B.;end::(24,31):_ZNK6MAUtil6VectorI6MAUUIDE3endEv;2B.;operator[]::(24,32)=#(24,9),(24,33)=&(3,131),(24,11),(0,3),(0,6);:_ZN6MAUtil6VectorI6MAUUIDEixEi;2A.(24,34)=#(24,9),(24,22),(24,28),(0,3),(0,6);:_ZNK6MAUtil6VectorI6MAUUIDEixEi;2B.;pointer::(24,31):_ZNK6MAUtil6VectorI6MAUUIDE7pointerEv;2B.(24,30):_ZN6MAUtil6VectorI6MAUUIDE7pointerEv;2A.;;",128,0,94,0
	.stabs	"BtService:Tt(24,35)=s20port:(0,3),0,32;name:(9,1),32,32;uuids:(24,9),64,96;operator=::(24,36)=#(24,35),(24,37)=&(24,35),(24,38)=*(24,35),(24,39)=&(24,40)=k(24,35),(0,6);:_ZN6MAUtil9BtServiceaSERKS0_;2A.;__base_ctor::(24,41)=#(24,35),(0,6),(24,38),(24,39),(0,6);:_ZN6MAUtil9BtServiceC2ERKS0_;2A.;__comp_ctor::(24,41):_ZN6MAUtil9BtServiceC1ERKS0_;2A.;__base_ctor::(24,42)=#(24,35),(0,6),(24,38),(0,6);:_ZN6MAUtil9BtServiceC2Ev;2A.;__comp_ctor::(24,42):_ZN6MAUtil9BtServiceC1Ev;2A.;__base_dtor::(24,42):_ZN6MAUtil9BtServiceD2Ev;2A.;__comp_dtor::(24,42):_ZN6MAUtil9BtServiceD1Ev;2A.;;",128,0,63,0
	.stabn	162,0,0,0
	.stabs	"c:/MoSync/include/MAUtil/BluetoothConnection.h",130,0,0,0
	.stabs	"c:/MoSync/include/MAUtil/Connection.h",130,0,0,0
	.stabn	162,0,0,0
	.stabn	162,0,0,0
	.stabs	"E:\\My Dropbox\\workspace\\GameCards\\BTVouchers\\/Feed.h",130,0,0,0
	.stabs	"E:\\My Dropbox\\workspace\\GameCards\\BTVouchers\\/Albums.h",130,0,0,0
	.stabs	"c:/MoSync/include/MAUtil/Map.h",130,0,0,0
	.stabs	"c:/MoSync/include/MAUtil/Dictionary.h",130,0,0,0
	.stabs	"c:/MoSync/include/kazlib/dict.h",130,0,0,0
	.stabs	"dictcount_t:t(31,1)=(0,16)",128,0,39,0
	.stabs	"dnode_color_t:t(31,2)=ednode_red:0,dnode_black:1,;",128,0,46,0
	.stabs	"dnode_t:Tt(31,3)=s24dict_left:(31,4)=*(31,3),0,32;dict_right:(31,4),32,32;dict_parent:(31,4),64,32;dict_color:(31,2),96,32;dict_key:(14,5),128,32;dict_data:(3,9),160,32;operator=::(31,5)=#(31,3),(31,6)=&(31,3),(31,4),(31,7)=&(31,8)=k(31,3),(0,6);:_ZN7dnode_taSERKS_;2A.;__base_ctor::(31,9)=#(31,3),(0,6),(31,4),(31,7),(0,6);:_ZN7dnode_tC2ERKS_;2A.;__comp_ctor::(31,9):_ZN7dnode_tC1ERKS_;2A.;__base_ctor::(31,10)=#(31,3),(0,6),(31,4),(0,6);:_ZN7dnode_tC2Ev;2A.;__comp_ctor::(31,10):_ZN7dnode_tC1Ev;2A.;;",128,0,48,0
	.stabs	"dnode_t:t(31,11)=(31,3)",128,0,59,0
	.stabs	"dict_comp_t:t(31,12)=(14,15)",128,0,61,0
	.stabs	"dnode_alloc_t:t(31,13)=(31,14)=*(31,15)=f(31,16)=*(31,11)",128,0,62,0
	.stabs	"dnode_free_t:t(31,17)=(31,18)=*(31,19)=f(0,6)",128,0,63,0
	.stabs	"dict_t:Tt(31,20)=s52dict_nilnode:(31,11),0,192;dict_nodecount:(31,1),192,32;dict_maxcount:(31,1),224,32;dict_compare:(31,12),256,32;dict_allocnode:(31,13),288,32;dict_freenode:(31,17),320,32;dict_context:(3,9),352,32;dict_dupes:(0,3),384,32;operator=::(31,21)=#(31,20),(31,22)=&(31,20),(31,23)=*(31,20),(31,24)=&(31,25)=k(31,20),(0,6);:_ZN6dict_taSERKS_;2A.;__base_ctor::(31,26)=#(31,20),(0,6),(31,23),(31,24),(0,6);:_ZN6dict_tC2ERKS_;2A.;__comp_ctor::(31,26):_ZN6dict_tC1ERKS_;2A.;__base_ctor::(31,27)=#(31,20),(0,6),(31,23),(0,6);:_ZN6dict_tC2Ev;2A.;__comp_ctor::(31,27):_ZN6dict_tC1Ev;2A.;;",128,0,65,0
	.stabs	"dict_t:t(31,28)=(31,20)",128,0,78,0
	.stabs	"dnode_process_t:t(31,29)=(31,30)=*(31,31)=f(0,6)",128,0,80,0
	.stabs	"dict_load_t:Tt(31,32)=s28dict_dictptr:(31,33)=*(31,28),0,32;dict_nilnode:(31,11),32,192;operator=::(31,34)=#(31,32),(31,35)=&(31,32),(31,36)=*(31,32),(31,37)=&(31,38)=k(31,32),(0,6);:_ZN11dict_load_taSERKS_;2A.;__base_ctor::(31,39)=#(31,32),(0,6),(31,36),(31,37),(0,6);:_ZN11dict_load_tC2ERKS_;2A.;__comp_ctor::(31,39):_ZN11dict_load_tC1ERKS_;2A.;__base_ctor::(31,40)=#(31,32),(0,6),(31,36),(0,6);:_ZN11dict_load_tC2Ev;2A.;__comp_ctor::(31,40):_ZN11dict_load_tC1Ev;2A.;;",128,0,82,0
	.stabs	"dict_load_t:t(31,41)=(31,32)",128,0,89,0
	.stabn	162,0,0,0
	.stabn	162,0,0,0
	.stabn	162,0,0,0
	.stabs	"Dictionary<const MAUtil::BasicString<char>,MAUtil::Pair<const MAUtil::BasicString<char>, MAUtil::BasicString<char> > >:Tt(28,1)=s56mDict:/1(31,28),0,416;mKeyOffset:/1(0,3),416,32;__base_ctor::(28,2)=#(28,1),(0,6),(28,3)=*(28,1),(28,4)=&(28,5)=k(28,1),(0,6);:_ZN6MAUtil10DictionaryIKNS_11BasicStringIcEENS_4PairIS3_S2_EEEC2ERKS6_;2A.;__comp_ctor::(28,2):_ZN6MAUtil10DictionaryIKNS_11BasicStringIcEENS_4PairIS3_S2_EEEC1ERKS6_;2A.;operator=::(28,6)=#(28,1),(28,7)=&(28,1),(28,3),(28,4),(0,6);:_ZN6MAUtil10DictionaryIKNS_11BasicStringIcEENS_4PairIS3_S2_EEEaSERKS6_;2A.;__base_dtor::(28,8)=#(28,1),(0,6),(28,3),(0,6);:_ZN6MAUtil10DictionaryIKNS_11BasicStringIcEENS_4PairIS3_S2_EEED2Ev;2A.;__comp_dtor::(28,8):_ZN6MAUtil10DictionaryIKNS_11BasicStringIcEENS_4PairIS3_S2_EEED1Ev;2A.;find::(28,9)=#(28,1),(28,10)=xsIterator:,(28,3),(28,11)=&(28,12)=k(9,1),(0,6);:_ZN6MAUtil10DictionaryIKNS_11BasicStringIcEENS_4PairIS3_S2_EEE4findERS3_;2A.(28,13)=#(28,1),(28,14)=xsConstIterator:,(28,15)=*(28,5),(28,11),(0,6);:_ZNK6MAUtil10DictionaryIKNS_11BasicStringIcEENS_4PairIS3_S2_EEE4findERS3_;2B.;erase::(28,16)=#(28,1),(0,4),(28,3),(28,11),(0,6);:_ZN6MAUtil10DictionaryIKNS_11BasicStringIcEENS_4PairIS3_S2_EEE5eraseERS3_;2A.(28,17)=#(28,1),(0,6),(28,3),(28,10),(0,6);:_ZN6MAUtil10DictionaryIKNS_11BasicStringIcEENS_4PairIS3_S2_EEE5eraseENS6_8IteratorE;2A.;begin::(28,18)=#(28,1),(28,10),(28,3),(0,6);:_ZN6MAUtil10DictionaryIKNS_11BasicStringIcEENS_4PairIS3_S2_EEE5beginEv;2A.(28,19)=#(28,1),(28,14),(28,15),(0,6);:_ZNK6MAUtil10DictionaryIKNS_11BasicStringIcEENS_4PairIS3_S2_EEE5beginEv;2B.;end::(28,18):_ZN6MAUtil10DictionaryIKNS_11BasicStringIcEENS_4PairIS3_S2_EEE3endEv;2A.(28,19):_ZNK6MAUtil10DictionaryIKNS_11BasicStringIcEENS_4PairIS3_S2_EEE3endEv;2B.;size::(28,20)=#(28,1),(2,1),(28,15),(0,6);:_ZNK6MAUtil10DictionaryIKNS_11BasicStringIcEENS_4PairIS3_S2_EEE4sizeEv;2B.;clear::(28,8):_ZN6MAUtil10DictionaryIKNS_11BasicStringIcEENS_4PairIS3_S2_EEE5clearEv;2A.;init::(28,21)=#(28,1),(0,6),(28,3),(28,22)=*(28,23)=f(0,3),(0,6);:_ZN6MAUtil10DictionaryIKNS_11BasicStringIcEENS_4PairIS3_S2_EEE4initEPFiRS3_S7_E;1A.;__base_ctor::(28,24)=#(28,1),(0,6),(28,3),(28,22),(0,3),(0,6);:_ZN6MAUtil10DictionaryIKNS_11BasicStringIcEENS_4PairIS3_S2_EEEC2EPFiRS3_S7_Ei;1A.;__comp_ctor::(28,24):_ZN6MAUtil10DictionaryIKNS_11BasicStringIcEENS_4PairIS3_S2_EEEC1EPFiRS3_S7_Ei;1A.;insert::(28,25)=#(28,1),(28,26)=xsPair<MAUtil::Dictionary<const MAUtil::BasicString<char>, MAUtil::Pair<const MAUtil::BasicString<char>, MAUtil::BasicString<char> > >::Iterator,bool>:,(28,3),(28,27)=&(28,28)=k(28,29)=xsPair<const MAUtil::BasicString<char>,MAUtil::BasicString<char> >:,(0,6);:_ZN6MAUtil10DictionaryIKNS_11BasicStringIcEENS_4PairIS3_S2_EEE6insertERKS5_;1A.;;",128,0,57,0
	.stabs	"Map<MAUtil::BasicString<char>,MAUtil::BasicString<char> >:Tt(28,30)=s56!1,020,(28,1);__base_ctor::(28,31)=#(28,30),(0,6),(28,32)=*(28,30),(28,22),(0,6);:_ZN6MAUtil3MapINS_11BasicStringIcEES2_EC2EPFiRKS2_S5_E;2A.;__comp_ctor::(28,31):_ZN6MAUtil3MapINS_11BasicStringIcEES2_EC1EPFiRKS2_S5_E;2A.;insert::(28,33)=#(28,30),(28,26),(28,32),(28,11),(28,11),(0,6);:_ZN6MAUtil3MapINS_11BasicStringIcEES2_E6insertERKS2_S5_;2A.;operator[]::(28,34)=#(28,30),(28,35)=&(9,1),(28,32),(28,11),(0,6);:_ZN6MAUtil3MapINS_11BasicStringIcEES2_EixERKS2_;2A.;operator=::(28,36)=#(28,30),(28,37)=&(28,30),(28,32),(28,38)=&(28,39)=k(28,30),(0,6);:_ZN6MAUtil3MapINS_11BasicStringIcEES2_EaSERKS3_;2A.;__base_ctor::(28,40)=#(28,30),(0,6),(28,32),(28,38),(0,6);:_ZN6MAUtil3MapINS_11BasicStringIcEES2_EC2ERKS3_;2A.;__comp_ctor::(28,40):_ZN6MAUtil3MapINS_11BasicStringIcEES2_EC1ERKS3_;2A.;__base_dtor::(28,41)=#(28,30),(0,6),(28,32),(0,6);:_ZN6MAUtil3MapINS_11BasicStringIcEES2_ED2Ev;2A.;__comp_dtor::(28,41):_ZN6MAUtil3MapINS_11BasicStringIcEES2_ED1Ev;2A.;;",128,0,37,0
	.stabs	"Albums:Tt(28,42)=s60album:/0(28,30),0,448;loaded:/0(0,4),448,8;getNames::(28,43)=#(28,42),(28,44)=xsVector<MAUtil::BasicString<char> >:,(28,45)=*(28,42),(0,6);:_ZN6Albums8getNamesEv;2A.;getIDs::(28,43):_ZN6Albums6getIDsEv;2A.;setAll::(28,46)=#(28,42),(0,6),(28,45),(18,27),(0,6);:_ZN6Albums6setAllEPKc;2A.;addAlbum::(28,47)=#(28,42),(0,6),(28,45),(18,27),(18,27),(0,6);:_ZN6Albums8addAlbumEPKcS1_;2A.;removeAlbum::(28,46):_ZN6Albums11removeAlbumEPKc;2A.;getAll::(28,48)=#(28,42),(9,1),(28,45),(0,6);:_ZN6Albums6getAllEv;2A.;getLoaded::(28,49)=#(28,42),(0,4),(28,45),(0,6);:_ZN6Albums9getLoadedEv;2A.;setLoaded::(28,50)=#(28,42),(0,6),(28,45),(0,4),(0,6);:_ZN6Albums9setLoadedEb;2A.;clearAll::(28,51)=#(28,42),(0,6),(28,45),(0,6);:_ZN6Albums8clearAllEv;2A.;size::(28,52)=#(28,42),(0,3),(28,45),(0,6);:_ZN6Albums4sizeEv;2A.;getId::(28,53)=#(28,42),(9,1),(28,45),(9,1),(0,6);:_ZN6Albums5getIdEN6MAUtil11BasicStringIcEE;2A.;operator=::(28,54)=#(28,42),(28,55)=&(28,42),(28,45),(28,56)=&(28,57)=k(28,42),(0,6);:_ZN6AlbumsaSERKS_;2A.;__base_ctor::(28,58)=#(28,42),(0,6),(28,45),(28,56),(0,6);:_ZN6AlbumsC2ERKS_;2A.;__comp_ctor::(28,58):_ZN6AlbumsC1ERKS_;2A.;__base_ctor::(28,51):_ZN6AlbumsC2Ev;2A.;__comp_ctor::(28,51):_ZN6AlbumsC1Ev;2A.;__base_dtor::(28,51):_ZN6AlbumsD2Ev;2A.;__comp_dtor::(28,51):_ZN6AlbumsD1Ev;2A.;;",128,0,10,0
	.stabn	162,0,0,0
	.stabs	"Feed:Tt(27,1)=s84encrypt:/0(9,1),0,32;uname:/0(9,1),32,32;noSuccess:/0(9,1),64,32;touch:/0(9,1),96,32;album:/0(28,45),128,32;real_album:/0(28,42),160,480;touchEnabled:/0(0,4),640,8;loaded:/0(0,4),648,8;setEncrypt::(27,2)=#(27,1),(0,6),(27,3)=*(27,1),(18,27),(0,6);:_ZN4Feed10setEncryptEPKc;2A.;setUsername::(27,2):_ZN4Feed11setUsernameEPKc;2A.;setID::(27,2):_ZN4Feed5setIDEPKc;2A.;setUnsuccessful::(27,2):_ZN4Feed15setUnsuccessfulEPKc;2A.;setAll::(27,2):_ZN4Feed6setAllEPKc;2A.;setLoaded::(27,4)=#(27,1),(0,6),(27,3),(0,4),(0,6);:_ZN4Feed9setLoadedEb;2A.;setAlbum::(27,2):_ZN4Feed8setAlbumEPKc;2A.;setTouch::(27,5)=#(27,1),(0,4),(27,3),(18,27),(0,6);:_ZN4Feed8setTouchEPKc;2A.;setTouchEnabled::(27,6)=#(27,1),(0,4),(27,3),(0,4),(0,6);:_ZN4Feed15setTouchEnabledEb;2A.;getAlbum::(27,7)=#(27,1),(28,45),(27,3),(0,6);:_ZN4Feed8getAlbumEv;2A.;getAlbumString::(27,8)=#(27,1),(9,1),(27,3),(0,6);:_ZN4Feed14getAlbumStringEv;2A.;getEncrypt::(27,8):_ZN4Feed10getEncryptEv;2A.;getUsername::(27,8):_ZN4Feed11getUsernameEv;2A.;getID::(27,8):_ZN4Feed5getIDEv;2A.;getUnsuccessful::(27,8):_ZN4Feed15getUnsuccessfulEv;2A.;getAll::(27,8):_ZN4Feed6getAllEv;2A.;getAlbumNames::(27,9)=#(27,1),(28,44),(27,3),(0,6);:_ZN4Feed13getAlbumNamesEv;2A.;getTouchEnabled::(27,10)=#(27,1),(0,4),(27,3),(0,6);:_ZN4Feed15getTouchEnabledEv;2A.;getTouch::(27,8):_ZN4Feed8getTouchEv;2A.;getLoaded::(27,10):_ZN4Feed9getLoadedEv;2A.;operator=::(27,11)=#(27,1),(27,12)=&(27,1),(27,3),(27,13)=&(27,14)=k(27,1),(0,6);:_ZN4FeedaSERKS_;2A.;__base_ctor::(27,15)=#(27,1),(0,6),(27,3),(27,13),(0,6);:_ZN4FeedC2ERKS_;2A.;__comp_ctor::(27,15):_ZN4FeedC1ERKS_;2A.;__base_ctor::(27,16)=#(27,1),(0,6),(27,3),(0,6);:_ZN4FeedC2Ev;2A.;__comp_ctor::(27,16):_ZN4FeedC1Ev;2A.;__base_dtor::(27,16):_ZN4FeedD2Ev;2A.;__comp_dtor::(27,16):_ZN4FeedD1Ev;2A.;;",128,0,8,0
	.stabn	162,0,0,0
	.stabs	"E:\\My Dropbox\\workspace\\GameCards\\BTVouchers\\/XmlConnection.h",130,0,0,0
	.stabs	"c:/MoSync/include/MTXml/MTXml.h",130,0,0,0
	.stabs	"MTXContext:t(33,1)=(33,2)=xsMTXContext:",128,0,82,0
	.stabs	"MTXContext:Tt(33,2)=s52encoding:(33,3)=*(33,4)=f(0,6),0,32;tagStart:(33,5)=*(33,6)=f(0,6),32,32;tagAttr:(33,7)=*(33,8)=f(0,6),64,32;tagStartEnd:(33,9)=*(33,10)=f(0,6),96,32;tagData:(33,5),128,32;tagEnd:(33,5),160,32;emptyTagEnd:(33,9),192,32;dataRemains:(33,11)=*(33,12)=f(0,6),224,32;parseError:(33,9),256,32;unicodeCharacter:(33,13)=*(33,14)=f(0,10),288,32;userData:(3,9),320,32;iState:(0,3),352,32;iUtf8:(0,3),384,32;operator=::(33,15)=#(33,2),(33,16)=&(33,2),(33,17)=*(33,2),(33,18)=&(33,19)=k(33,2),(0,6);:_ZN10MTXContextaSERKS_;2A.;__base_ctor::(33,20)=#(33,2),(0,6),(33,17),(33,18),(0,6);:_ZN10MTXContextC2ERKS_;2A.;__comp_ctor::(33,20):_ZN10MTXContextC1ERKS_;2A.;__base_ctor::(33,21)=#(33,2),(0,6),(33,17),(0,6);:_ZN10MTXContextC2Ev;2A.;__comp_ctor::(33,21):_ZN10MTXContextC1Ev;2A.;;",128,0,101,0
	.stabs	"ContextBase:Tt(33,22)=s56mContext:/1(33,1),0,416;mMtx:/1(33,23)=*(33,24)=xsMtxListener:,416,32;stop::(33,25)=#(33,22),(0,6),(33,26)=*(33,22),(0,6);:_ZN3Mtx11ContextBase4stopEv;2A.;initBase::(33,25):_ZN3Mtx11ContextBase8initBaseEv;1A.;operator=::(33,27)=#(33,22),(33,28)=&(33,22),(33,26),(33,29)=&(33,30)=k(33,22),(0,6);:_ZN3Mtx11ContextBaseaSERKS0_;2A.;__base_ctor::(33,31)=#(33,22),(0,6),(33,26),(33,29),(0,6);:_ZN3Mtx11ContextBaseC2ERKS0_;2A.;__comp_ctor::(33,31):_ZN3Mtx11ContextBaseC1ERKS0_;2A.;__base_ctor::(33,32)=#(33,22),(0,6),(33,26),(0,6);:_ZN3Mtx11ContextBaseC2Ev;2A.;__comp_ctor::(33,32):_ZN3Mtx11ContextBaseC1Ev;2A.;;",128,0,362,0
	.stabs	"ContextW:Tt(33,33)=s60!1,020,(33,22);mXml:/0(33,34)=*(33,35)=xsXmlListenerW:,448,32;init::(33,36)=#(33,33),(0,6),(33,37)=*(33,33),(33,23),(33,34),(0,6);:_ZN3Mtx8ContextW4initEPNS_11MtxListenerEPNS_12XmlListenerWE;2A.;feed::(33,38)=#(33,33),(0,4),(33,37),(3,5),(33,39)=*(0,5),(0,6);:_ZN3Mtx8ContextW4feedEPcPw;2A.;operator=::(33,40)=#(33,33),(33,41)=&(33,33),(33,37),(33,42)=&(33,43)=k(33,33),(0,6);:_ZN3Mtx8ContextWaSERKS0_;2A.;__base_ctor::(33,44)=#(33,33),(0,6),(33,37),(33,42),(0,6);:_ZN3Mtx8ContextWC2ERKS0_;2A.;__comp_ctor::(33,44):_ZN3Mtx8ContextWC1ERKS0_;2A.;__base_ctor::(33,45)=#(33,33),(0,6),(33,37),(0,6);:_ZN3Mtx8ContextWC2Ev;2A.;__comp_ctor::(33,45):_ZN3Mtx8ContextWC1Ev;2A.;;",128,0,377,0
	.stabs	"Context:Tt(33,46)=s60!1,020,(33,22);mXml:/0(33,47)=*(33,48)=xsXmlListener:,448,32;init::(33,49)=#(33,46),(0,6),(33,50)=*(33,46),(33,23),(33,47),(0,6);:_ZN3Mtx7Context4initEPNS_11MtxListenerEPNS_11XmlListenerE;2A.;feed::(33,51)=#(33,46),(0,4),(33,50),(3,5),(0,6);:_ZN3Mtx7Context4feedEPc;2A.;feedProcess::(33,51):_ZN3Mtx7Context11feedProcessEPc;2A.;process::(33,52)=#(33,46),(0,3),(33,50),(3,5),(0,6);:_ZN3Mtx7Context7processEPc;2A.;operator=::(33,53)=#(33,46),(33,54)=&(33,46),(33,50),(33,55)=&(33,56)=k(33,46),(0,6);:_ZN3Mtx7ContextaSERKS0_;2A.;__base_ctor::(33,57)=#(33,46),(0,6),(33,50),(33,55),(0,6);:_ZN3Mtx7ContextC2ERKS0_;2A.;__comp_ctor::(33,57):_ZN3Mtx7ContextC1ERKS0_;2A.;__base_ctor::(33,58)=#(33,46),(0,6),(33,50),(0,6);:_ZN3Mtx7ContextC2Ev;2A.;__comp_ctor::(33,58):_ZN3Mtx7ContextC1Ev;2A.;;",128,0,394,0
	.stabn	162,0,0,0
	.stabn	162,0,0,0
	.stabs	"Vector<MAUtil::BtDevice>:Tt(5,1)=s12mSize:/1(0,3),0,32;mCapacity:/1(0,3),32,32;mData:/1(24,4),64,32;__base_ctor::(5,2)=#(5,1),(0,6),(5,3)=*(5,1),(0,3),(0,6);:_ZN6MAUtil6VectorINS_8BtDeviceEEC2Ei;2A.;__comp_ctor::(5,2):_ZN6MAUtil6VectorINS_8BtDeviceEEC1Ei;2A.;__base_ctor::(5,4)=#(5,1),(0,6),(5,3),(5,5)=*(24,6),(0,3),(0,6);:_ZN6MAUtil6VectorINS_8BtDeviceEEC2EPKS1_i;2A.;__comp_ctor::(5,4):_ZN6MAUtil6VectorINS_8BtDeviceEEC1EPKS1_i;2A.;__base_ctor::(5,6)=#(5,1),(0,6),(5,3),(5,7)=&(5,8)=k(5,1),(0,6);:_ZN6MAUtil6VectorINS_8BtDeviceEEC2ERKS2_;2A.;__comp_ctor::(5,6):_ZN6MAUtil6VectorINS_8BtDeviceEEC1ERKS2_;2A.;__base_dtor::(5,9)=#(5,1),(0,6),(5,3),(0,6);:_ZN6MAUtil6VectorINS_8BtDeviceEED2Ev;2A.;__comp_dtor::(5,9):_ZN6MAUtil6VectorINS_8BtDeviceEED1Ev;2A.;operator=::(5,10)=#(5,1),(5,11)=&(5,1),(5,3),(5,7),(0,6);:_ZN6MAUtil6VectorINS_8BtDeviceEEaSERKS2_;2A.;add::(5,12)=#(5,1),(0,6),(5,3),(24,5),(0,6);:_ZN6MAUtil6VectorINS_8BtDeviceEE3addERKS1_;2A.(5,4):_ZN6MAUtil6VectorINS_8BtDeviceEE3addEPKS1_i;2A.;remove::(5,13)=#(5,1),(0,6),(5,3),(24,4),(0,6);:_ZN6MAUtil6VectorINS_8BtDeviceEE6removeEPS1_;2A.(5,14)=#(5,1),(0,6),(5,3),(0,3),(0,6);:_ZN6MAUtil6VectorINS_8BtDeviceEE6removeEi;2A.(5,15)=#(5,1),(0,6),(5,3),(0,3),(0,3),(0,6);:_ZN6MAUtil6VectorINS_8BtDeviceEE6removeEii;2A.;insert::(5,16)=#(5,1),(0,6),(5,3),(0,3),(24,1),(0,6);:_ZN6MAUtil6VectorINS_8BtDeviceEE6insertEiS1_;2A.;size::(5,17)=#(5,1),(0,3),(5,18)=*(5,8),(0,6);:_ZNK6MAUtil6VectorINS_8BtDeviceEE4sizeEv;2B.;resize::(5,14):_ZN6MAUtil6VectorINS_8BtDeviceEE6resizeEi;2A.;reserve::(5,14):_ZN6MAUtil6VectorINS_8BtDeviceEE7reserveEi;2A.;clear::(5,9):_ZN6MAUtil6VectorINS_8BtDeviceEE5clearEv;2A.;empty::(5,19)=#(5,1),(0,4),(5,18),(0,6);:_ZNK6MAUtil6VectorINS_8BtDeviceEE5emptyEv;2B.;capacity::(5,17):_ZNK6MAUtil6VectorINS_8BtDeviceEE8capacityEv;2B.;begin::(5,20)=#(5,1),(24,4),(5,3),(0,6);:_ZN6MAUtil6VectorINS_8BtDeviceEE5beginEv;2A.;end::(5,20):_ZN6MAUtil6VectorINS_8BtDeviceEE3endEv;2A.;begin::(5,21)=#(5,1),(5,5),(5,18),(0,6);:_ZNK6MAUtil6VectorINS_8BtDeviceEE5beginEv;2B.;end::(5,21):_ZNK6MAUtil6VectorINS_8BtDeviceEE3endEv;2B.;operator[]::(5,22)=#(5,1),(24,3),(5,3),(0,3),(0,6);:_ZN6MAUtil6VectorINS_8BtDeviceEEixEi;2A.(5,23)=#(5,1),(24,5),(5,18),(0,3),(0,6);:_ZNK6MAUtil6VectorINS_8BtDeviceEEixEi;2B.;pointer::(5,21):_ZNK6MAUtil6VectorINS_8BtDeviceEE7pointerEv;2B.(5,20):_ZN6MAUtil6VectorINS_8BtDeviceEE7pointerEv;2A.;;",128,0,94,0
	.stabn	162,0,0,0
	.stabs	"E:\\My Dropbox\\workspace\\GameCards\\BTVouchers\\/Util.h",130,0,0,0
	.stabs	"c:/MoSync/include/MAUI/Image.h",130,0,0,0
	.stabn	162,0,0,0
	.stabs	"c:/MoSync/include/conprint.h",130,0,0,0
	.stabs	"c:/MoSync/include/maarg.h",130,0,0,0
	.stabs	"__gnuc_va_list:t(37,1)=(0,20)",128,0,34,0
	.stabs	"va_list:t(37,2)=(37,1)",128,0,35,0
	.stabn	162,0,0,0
	.stabn	162,0,0,0
	.stabs	"E:\\My Dropbox\\workspace\\GameCards\\BTVouchers\\/Card.h",130,0,0,0
	.stabs	"Card:Tt(38,1)=s36quantity:/0(9,1),0,32;text:/0(9,1),32,32;thumb:/0(9,1),64,32;front:/0(9,1),96,32;back:/0(9,1),128,32;id:/0(9,1),160,32;rate:/0(9,1),192,32;value:/0(9,1),224,32;loaded:/0(0,4),256,8;getQuantity::(38,2)=#(38,1),(9,1),(38,3)=*(38,1),(0,6);:_ZN4Card11getQuantityEv;2A.;setQuantity::(38,4)=#(38,1),(0,6),(38,3),(18,27),(0,6);:_ZN4Card11setQuantityEPKc;2A.;getText::(38,2):_ZN4Card7getTextEv;2A.;setText::(38,4):_ZN4Card7setTextEPKc;2A.;getThumb::(38,2):_ZN4Card8getThumbEv;2A.;setThumb::(38,4):_ZN4Card8setThumbEPKc;2A.;getFront::(38,2):_ZN4Card8getFrontEv;2A.;setFront::(38,4):_ZN4Card8setFrontEPKc;2A.;getBack::(38,2):_ZN4Card7getBackEv;2A.;setBack::(38,4):_ZN4Card7setBackEPKc;2A.;getId::(38,2):_ZN4Card5getIdEv;2A.;setId::(38,4):_ZN4Card5setIdEPKc;2A.;getRate::(38,2):_ZN4Card7getRateEv;2A.;setRate::(38,4):_ZN4Card7setRateEPKc;2A.;getValue::(38,2):_ZN4Card8getValueEv;2A.;setValue::(38,4):_ZN4Card8setValueEPKc;2A.;getLoaded::(38,5)=#(38,1),(0,4),(38,3),(0,6);:_ZN4Card9getLoadedEv;2A.;setLoaded::(38,6)=#(38,1),(0,6),(38,3),(0,4),(0,6);:_ZN4Card9setLoadedEb;2A.;getAll::(38,2):_ZN4Card6getAllEv;2A.;setAll::(38,4):_ZN4Card6setAllEPKc;2A.;operator=::(38,7)=#(38,1),(38,8)=&(38,1),(38,3),(38,9)=&(38,10)=k(38,1),(0,6);:_ZN4CardaSERKS_;2A.;__base_ctor::(38,11)=#(38,1),(0,6),(38,3),(38,9),(0,6);:_ZN4CardC2ERKS_;2A.;__comp_ctor::(38,11):_ZN4CardC1ERKS_;2A.;__base_ctor::(38,12)=#(38,1),(0,6),(38,3),(0,6);:_ZN4CardC2Ev;2A.;__comp_ctor::(38,12):_ZN4CardC1Ev;2A.;__base_dtor::(38,12):_ZN4CardD2Ev;2A.;__comp_dtor::(38,12):_ZN4CardD1Ev;2A.;;",128,0,8,0
	.stabn	162,0,0,0
	.stabs	"E:\\My Dropbox\\workspace\\GameCards\\BTVouchers\\/ImageCache.h",130,0,0,0
	.stabs	"E:\\My Dropbox\\workspace\\GameCards\\BTVouchers\\/ImageCacheRequest.h",130,0,0,0
	.stabs	"ImageCacheRequest:Tt(40,1)=s16card:/0(38,3),0,32;img:/0(40,2)=*(40,3)=xsImage:,32,32;height:/0(0,3),64,32;type:/0(0,3),96,32;__base_ctor::(40,4)=#(40,1),(0,6),(40,5)=*(40,1),(0,6);:_ZN17ImageCacheRequestC2Ev;2A.;__comp_ctor::(40,4):_ZN17ImageCacheRequestC1Ev;2A.;__base_ctor::(40,6)=#(40,1),(0,6),(40,5),(40,2),(38,3),(0,3),(0,3),(0,6);:_ZN17ImageCacheRequestC2EPN4MAUI5ImageEP4Cardii;2A.;__comp_ctor::(40,6):_ZN17ImageCacheRequestC1EPN4MAUI5ImageEP4Cardii;2A.;__base_dtor::(40,4):_ZN17ImageCacheRequestD2Ev;2A.;__comp_dtor::(40,4):_ZN17ImageCacheRequestD1Ev;2A.;getUrl::(40,7)=#(40,1),(9,1),(40,5),(0,6);:_ZN17ImageCacheRequest6getUrlEv;2A.;getSaveName::(40,7):_ZN17ImageCacheRequest11getSaveNameEv;2A.;getImage::(40,8)=#(40,1),(40,2),(40,5),(0,6);:_ZN17ImageCacheRequest8getImageEv;2A.;getHeight::(40,9)=#(40,1),(0,3),(40,5),(0,6);:_ZN17ImageCacheRequest9getHeightEv;2A.;getType::(40,9):_ZN17ImageCacheRequest7getTypeEv;2A.;operator=::(40,10)=#(40,1),(40,11)=&(40,1),(40,5),(40,12)=&(40,13)=k(40,1),(0,6);:_ZN17ImageCacheRequestaSERKS_;2A.;__base_ctor::(40,14)=#(40,1),(0,6),(40,5),(40,12),(0,6);:_ZN17ImageCacheRequestC2ERKS_;2A.;__comp_ctor::(40,14):_ZN17ImageCacheRequestC1ERKS_;2A.;;",128,0,14,0
	.stabn	162,0,0,0
	.stabs	"c:/MoSync/include/MAUtil/Downloader.h",130,0,0,0
	.stabs	"Vector<MAUtil::DownloadListener*>:Tt(41,1)=s12mSize:/1(0,3),0,32;mCapacity:/1(0,3),32,32;mData:/1(41,2)=*(41,3)=*(41,4)=xsDownloadListener:,64,32;__base_ctor::(41,5)=#(41,1),(0,6),(41,6)=*(41,1),(0,3),(0,6);:_ZN6MAUtil6VectorIPNS_16DownloadListenerEEC2Ei;2A.;__comp_ctor::(41,5):_ZN6MAUtil6VectorIPNS_16DownloadListenerEEC1Ei;2A.;__base_ctor::(41,7)=#(41,1),(0,6),(41,6),(41,8)=*(41,9)=k(41,3),(0,3),(0,6);:_ZN6MAUtil6VectorIPNS_16DownloadListenerEEC2EPKS2_i;2A.;__comp_ctor::(41,7):_ZN6MAUtil6VectorIPNS_16DownloadListenerEEC1EPKS2_i;2A.;__base_ctor::(41,10)=#(41,1),(0,6),(41,6),(41,11)=&(41,12)=k(41,1),(0,6);:_ZN6MAUtil6VectorIPNS_16DownloadListenerEEC2ERKS3_;2A.;__comp_ctor::(41,10):_ZN6MAUtil6VectorIPNS_16DownloadListenerEEC1ERKS3_;2A.;__base_dtor::(41,13)=#(41,1),(0,6),(41,6),(0,6);:_ZN6MAUtil6VectorIPNS_16DownloadListenerEED2Ev;2A.;__comp_dtor::(41,13):_ZN6MAUtil6VectorIPNS_16DownloadListenerEED1Ev;2A.;operator=::(41,14)=#(41,1),(41,15)=&(41,1),(41,6),(41,11),(0,6);:_ZN6MAUtil6VectorIPNS_16DownloadListenerEEaSERKS3_;2A.;add::(41,16)=#(41,1),(0,6),(41,6),(41,17)=&(41,9),(0,6);:_ZN6MAUtil6VectorIPNS_16DownloadListenerEE3addERKS2_;2A.(41,7):_ZN6MAUtil6VectorIPNS_16DownloadListenerEE3addEPKS2_i;2A.;remove::(41,18)=#(41,1),(0,6),(41,6),(41,2),(0,6);:_ZN6MAUtil6VectorIPNS_16DownloadListenerEE6removeEPS2_;2A.(41,19)=#(41,1),(0,6),(41,6),(0,3),(0,6);:_ZN6MAUtil6VectorIPNS_16DownloadListenerEE6removeEi;2A.(41,20)=#(41,1),(0,6),(41,6),(0,3),(0,3),(0,6);:_ZN6MAUtil6VectorIPNS_16DownloadListenerEE6removeEii;2A.;insert::(41,21)=#(41,1),(0,6),(41,6),(0,3),(41,3),(0,6);:_ZN6MAUtil6VectorIPNS_16DownloadListenerEE6insertEiS2_;2A.;size::(41,22)=#(41,1),(0,3),(41,23)=*(41,12),(0,6);:_ZNK6MAUtil6VectorIPNS_16DownloadListenerEE4sizeEv;2B.;resize::(41,19):_ZN6MAUtil6VectorIPNS_16DownloadListenerEE6resizeEi;2A.;reserve::(41,19):_ZN6MAUtil6VectorIPNS_16DownloadListenerEE7reserveEi;2A.;clear::(41,13):_ZN6MAUtil6VectorIPNS_16DownloadListenerEE5clearEv;2A.;empty::(41,24)=#(41,1),(0,4),(41,23),(0,6);:_ZNK6MAUtil6VectorIPNS_16DownloadListenerEE5emptyEv;2B.;capacity::(41,22):_ZNK6MAUtil6VectorIPNS_16DownloadListenerEE8capacityEv;2B.;begin::(41,25)=#(41,1),(41,2),(41,6),(0,6);:_ZN6MAUtil6VectorIPNS_16DownloadListenerEE5beginEv;2A.;end::(41,25):_ZN6MAUtil6VectorIPNS_16DownloadListenerEE3endEv;2A.;begin::(41,26)=#(41,1),(41,8),(41,23),(0,6);:_ZNK6MAUtil6VectorIPNS_16DownloadListenerEE5beginEv;2B.;end::(41,26):_ZNK6MAUtil6VectorIPNS_16DownloadListenerEE3endEv;2B.;operator[]::(41,27)=#(41,1),(41,28)=&(41,3),(41,6),(0,3),(0,6);:_ZN6MAUtil6VectorIPNS_16DownloadListenerEEixEi;2A.(41,29)=#(41,1),(41,17),(41,23),(0,3),(0,6);:_ZNK6MAUtil6VectorIPNS_16DownloadListenerEEixEi;2B.;pointer::(41,26):_ZNK6MAUtil6VectorIPNS_16DownloadListenerEE7pointerEv;2B.(41,25):_ZN6MAUtil6VectorIPNS_16DownloadListenerEE7pointerEv;2A.;;",128,0,94,0
	.stabs	"Vector<MAHandle>:Tt(41,30)=s12mSize:/1(0,3),0,32;mCapacity:/1(0,3),32,32;mData:/1(41,31)=*(3,10),64,32;__base_ctor::(41,32)=#(41,30),(0,6),(41,33)=*(41,30),(0,3),(0,6);:_ZN6MAUtil6VectorIiEC2Ei;2A.;__comp_ctor::(41,32):_ZN6MAUtil6VectorIiEC1Ei;2A.;__base_ctor::(41,34)=#(41,30),(0,6),(41,33),(41,35)=*(41,36)=k(3,10),(0,3),(0,6);:_ZN6MAUtil6VectorIiEC2EPKii;2A.;__comp_ctor::(41,34):_ZN6MAUtil6VectorIiEC1EPKii;2A.;__base_ctor::(41,37)=#(41,30),(0,6),(41,33),(41,38)=&(41,39)=k(41,30),(0,6);:_ZN6MAUtil6VectorIiEC2ERKS1_;2A.;__comp_ctor::(41,37):_ZN6MAUtil6VectorIiEC1ERKS1_;2A.;__base_dtor::(41,40)=#(41,30),(0,6),(41,33),(0,6);:_ZN6MAUtil6VectorIiED2Ev;2A.;__comp_dtor::(41,40):_ZN6MAUtil6VectorIiED1Ev;2A.;operator=::(41,41)=#(41,30),(41,42)=&(41,30),(41,33),(41,38),(0,6);:_ZN6MAUtil6VectorIiEaSERKS1_;2A.;add::(41,43)=#(41,30),(0,6),(41,33),(41,44)=&(41,36),(0,6);:_ZN6MAUtil6VectorIiE3addERKi;2A.(41,34):_ZN6MAUtil6VectorIiE3addEPKii;2A.;remove::(41,45)=#(41,30),(0,6),(41,33),(41,31),(0,6);:_ZN6MAUtil6VectorIiE6removeEPi;2A.(41,46)=#(41,30),(0,6),(41,33),(0,3),(0,6);:_ZN6MAUtil6VectorIiE6removeEi;2A.(41,47)=#(41,30),(0,6),(41,33),(0,3),(0,3),(0,6);:_ZN6MAUtil6VectorIiE6removeEii;2A.;insert::(41,47):_ZN6MAUtil6VectorIiE6insertEii;2A.;size::(41,48)=#(41,30),(0,3),(41,49)=*(41,39),(0,6);:_ZNK6MAUtil6VectorIiE4sizeEv;2B.;resize::(41,46):_ZN6MAUtil6VectorIiE6resizeEi;2A.;reserve::(41,46):_ZN6MAUtil6VectorIiE7reserveEi;2A.;clear::(41,40):_ZN6MAUtil6VectorIiE5clearEv;2A.;empty::(41,50)=#(41,30),(0,4),(41,49),(0,6);:_ZNK6MAUtil6VectorIiE5emptyEv;2B.;capacity::(41,48):_ZNK6MAUtil6VectorIiE8capacityEv;2B.;begin::(41,51)=#(41,30),(41,31),(41,33),(0,6);:_ZN6MAUtil6VectorIiE5beginEv;2A.;end::(41,51):_ZN6MAUtil6VectorIiE3endEv;2A.;begin::(41,52)=#(41,30),(41,35),(41,49),(0,6);:_ZNK6MAUtil6VectorIiE5beginEv;2B.;end::(41,52):_ZNK6MAUtil6VectorIiE3endEv;2B.;operator[]::(41,53)=#(41,30),(41,54)=&(3,10),(41,33),(0,3),(0,6);:_ZN6MAUtil6VectorIiEixEi;2A.(41,55)=#(41,30),(41,44),(41,49),(0,3),(0,6);:_ZNK6MAUtil6VectorIiEixEi;2B.;pointer::(41,52):_ZNK6MAUtil6VectorIiE7pointerEv;2B.(41,51):_ZN6MAUtil6VectorIiE7pointerEv;2A.;;",128,0,94,0
	.stabn	162,0,0,0
	.stabs	"Vector<ImageCacheRequest*>:Tt(39,1)=s12mSize:/1(0,3),0,32;mCapacity:/1(0,3),32,32;mData:/1(39,2)=*(40,5),64,32;__base_ctor::(39,3)=#(39,1),(0,6),(39,4)=*(39,1),(0,3),(0,6);:_ZN6MAUtil6VectorIP17ImageCacheRequestEC2Ei;2A.;__comp_ctor::(39,3):_ZN6MAUtil6VectorIP17ImageCacheRequestEC1Ei;2A.;__base_ctor::(39,5)=#(39,1),(0,6),(39,4),(39,6)=*(39,7)=k(40,5),(0,3),(0,6);:_ZN6MAUtil6VectorIP17ImageCacheRequestEC2EPKS2_i;2A.;__comp_ctor::(39,5):_ZN6MAUtil6VectorIP17ImageCacheRequestEC1EPKS2_i;2A.;__base_ctor::(39,8)=#(39,1),(0,6),(39,4),(39,9)=&(39,10)=k(39,1),(0,6);:_ZN6MAUtil6VectorIP17ImageCacheRequestEC2ERKS3_;2A.;__comp_ctor::(39,8):_ZN6MAUtil6VectorIP17ImageCacheRequestEC1ERKS3_;2A.;__base_dtor::(39,11)=#(39,1),(0,6),(39,4),(0,6);:_ZN6MAUtil6VectorIP17ImageCacheRequestED2Ev;2A.;__comp_dtor::(39,11):_ZN6MAUtil6VectorIP17ImageCacheRequestED1Ev;2A.;operator=::(39,12)=#(39,1),(39,13)=&(39,1),(39,4),(39,9),(0,6);:_ZN6MAUtil6VectorIP17ImageCacheRequestEaSERKS3_;2A.;add::(39,14)=#(39,1),(0,6),(39,4),(39,15)=&(39,7),(0,6);:_ZN6MAUtil6VectorIP17ImageCacheRequestE3addERKS2_;2A.(39,5):_ZN6MAUtil6VectorIP17ImageCacheRequestE3addEPKS2_i;2A.;remove::(39,16)=#(39,1),(0,6),(39,4),(39,2),(0,6);:_ZN6MAUtil6VectorIP17ImageCacheRequestE6removeEPS2_;2A.(39,17)=#(39,1),(0,6),(39,4),(0,3),(0,6);:_ZN6MAUtil6VectorIP17ImageCacheRequestE6removeEi;2A.(39,18)=#(39,1),(0,6),(39,4),(0,3),(0,3),(0,6);:_ZN6MAUtil6VectorIP17ImageCacheRequestE6removeEii;2A.;insert::(39,19)=#(39,1),(0,6),(39,4),(0,3),(40,5),(0,6);:_ZN6MAUtil6VectorIP17ImageCacheRequestE6insertEiS2_;2A.;size::(39,20)=#(39,1),(0,3),(39,21)=*(39,10),(0,6);:_ZNK6MAUtil6VectorIP17ImageCacheRequestE4sizeEv;2B.;resize::(39,17):_ZN6MAUtil6VectorIP17ImageCacheRequestE6resizeEi;2A.;reserve::(39,17):_ZN6MAUtil6VectorIP17ImageCacheRequestE7reserveEi;2A.;clear::(39,11):_ZN6MAUtil6VectorIP17ImageCacheRequestE5clearEv;2A.;empty::(39,22)=#(39,1),(0,4),(39,21),(0,6);:_ZNK6MAUtil6VectorIP17ImageCacheRequestE5emptyEv;2B.;capacity::(39,20):_ZNK6MAUtil6VectorIP17ImageCacheRequestE8capacityEv;2B.;begin::(39,23)=#(39,1),(39,2),(39,4),(0,6);:_ZN6MAUtil6VectorIP17ImageCacheRequestE5beginEv;2A.;end::(39,23):_ZN6MAUtil6VectorIP17ImageCacheRequestE3endEv;2A.;begin::(39,24)=#(39,1),(39,6),(39,21),(0,6);:_ZNK6MAUtil6VectorIP17ImageCacheRequestE5beginEv;2B.;end::(39,24):_ZNK6MAUtil6VectorIP17ImageCacheRequestE3endEv;2B.;operator[]::(39,25)=#(39,1),(39,26)=&(40,5),(39,4),(0,3),(0,6);:_ZN6MAUtil6VectorIP17ImageCacheRequestEixEi;2A.(39,27)=#(39,1),(39,15),(39,21),(0,3),(0,6);:_ZNK6MAUtil6VectorIP17ImageCacheRequestEixEi;2B.;pointer::(39,24):_ZNK6MAUtil6VectorIP17ImageCacheRequestE7pointerEv;2B.(39,23):_ZN6MAUtil6VectorIP17ImageCacheRequestE7pointerEv;2A.;;",128,0,94,0
	.stabn	162,0,0,0
	.stabs	"E:\\My Dropbox\\workspace\\GameCards\\BTVouchers\\/AlbumLoadScreen.h",130,0,0,0
	.stabn	162,0,0,0
	.stabn	162,0,0,0
	.stabs	"Login:Tt(0,25)=s2344!6,020,(0,26)=xsScreen:;0096,(7,33);00128,(0,27)=xsBluetoothDeviceDiscoveryListener:;00160,(0,28)=xsXCListener:;00192,(33,48);00224,(0,29)=xsConnectionListener:;previous:/0(0,30)=*(0,26),256,32;mainLayout:/0(0,31)=*(0,32)=xsLayout:,288,32;listBox:/0(0,33)=*(0,34)=xsListBox:,320,32;label:/0(0,35)=*(0,36)=xsLabel:,352,32;editBoxLogin:/0(0,37)=*(0,38)=xsEditBox:,384,32;mConn:/0(0,39)=xsBluetoothConnection:,416,544;mDiscoverer:/0(0,40)=*(0,41)=xsBluetoothDiscoverer:,960,32;mDevices:/0(5,1),992,96;mDevice:/0(24,4),1088,32;mDeviceIndex:/0(0,3),1120,32;xmlConn:/0(0,42)=xsXmlConnection:,1152,17056;parentTag:/0(9,1),18208,32;conCatenation:/0(9,1),18240,32;ret:/0(9,1),18272,32;value:/0(9,1),18304,32;value1:/0(9,1),18336,32;value2:/0(9,1),18368,32;convertAsterisk:/0(9,1),18400,32;underscore:/0(9,1),18432,32;username:/0(9,1),18464,32;encrypt:/0(9,1),18496,32;error_msg:/0(9,1),18528,32;touch:/0(9,1),18560,32;list:/0(0,4),18592,8;left:/0(0,4),18600,8;right:/0(0,4),18608,8;error:/0(0,4),18616,8;j:/0(0,3),18624,32;feed:/0(27,3),18656,32;next:/0(0,30),18688,32;mIsBusy:/0(0,4),18720,8;__base_ctor::(0,43)=#(0,25),(0,6),(0,44)=*(0,25),(27,3),(0,6);:_ZN5LoginC2EP4Feed;2A.;__comp_ctor::(0,43):_ZN5LoginC1EP4Feed;2A.;__base_dtor::(0,45)=#(0,25),(0,6),(0,44),(0,6);:_ZN5LoginD2Ev;2A.;__comp_dtor::(0,45):_ZN5LoginD1Ev;2A*0;(0,25);;__deleting_dtor::(0,45):_ZN5LoginD0Ev;2A*1;(0,25);;keyPressEvent::(0,46)=#(0,25),(0,6),(0,44),(0,3),(0,6);:_ZN5Login13keyPressEventEi;2A*5;(0,25);;selectionChanged::(0,47)=#(0,25),(0,6),(0,44),(7,3),(0,4),(0,6);:_ZN5Login16selectionChangedEPN4MAUI6WidgetEb;2A*12;(0,25);;show::(0,45):_ZN5Login4showEv;2A*7;(0,25);;hide::(0,45):_ZN5Login4hideEv;2A*11;(0,25);;pointerPressEvent::(0,48)=#(0,25),(0,6),(0,44),(3,23),(0,6);:_ZN5Login17pointerPressEventE9MAPoint2d;2A*8;(0,25);;pointerMoveEvent::(0,48):_ZN5Login16pointerMoveEventE9MAPoint2d;2A*10;(0,25);;pointerReleaseEvent::(0,48):_ZN5Login19pointerReleaseEventE9MAPoint2d;2A*9;(0,25);;locateItem::(0,48):_ZN5Login10locateItemE9MAPoint2d;2A.;btNewDevice::(0,49)=#(0,25),(0,6),(0,44),(24,5),(0,6);:_ZN5Login11btNewDeviceERKN6MAUtil8BtDeviceE;2A*13;(0,25);;btDeviceDiscoveryFinished::(0,46):_ZN5Login25btDeviceDiscoveryFinishedEi;2A*14;(0,25);;connect::(0,50)=#(0,25),(0,6),(0,44),(3,61),(3,131),(0,6);:_ZN5Login7connectE8MABtAddr6MAUUID;2A.;connectFinished::(0,51)=#(0,25),(0,6),(0,44),(0,52)=*(0,53)=xsConnection:,(0,3),(0,6);:_ZN5Login15connectFinishedEPN6MAUtil10ConnectionEi;0A*15;(0,25);;connReadFinished::(0,51):_ZN5Login16connReadFinishedEPN6MAUtil10ConnectionEi;0A*16;(0,25);;connWriteFinished::(0,51):_ZN5Login17connWriteFinishedEPN6MAUtil10ConnectionEi;0A*17;(0,25);;xcConnError::(0,46):_ZN5Login11xcConnErrorEi;0A*18;(0,25);;mtxEncoding::(0,54)=#(0,25),(0,6),(0,44),(18,27),(0,6);:_ZN5Login11mtxEncodingEPKc;0A*19;(0,25);;mtxTagStart::(0,55)=#(0,25),(0,6),(0,44),(18,27),(0,3),(0,6);:_ZN5Login11mtxTagStartEPKci;0A*20;(0,25);;mtxTagAttr::(0,56)=#(0,25),(0,6),(0,44),(18,27),(18,27),(0,6);:_ZN5Login10mtxTagAttrEPKcS1_;0A*21;(0,25);;mtxTagData::(0,55):_ZN5Login10mtxTagDataEPKci;0A*22;(0,25);;mtxTagEnd::(0,55):_ZN5Login9mtxTagEndEPKci;0A*23;(0,25);;mtxParseError::(0,45):_ZN5Login13mtxParseErrorEv;0A*24;(0,25);;mtxEmptyTagEnd::(0,45):_ZN5Login14mtxEmptyTagEndEv;0A*25;(0,25);;mtxTagStartEnd::(0,45):_ZN5Login14mtxTagStartEndEv;0A*26;(0,25);;base64::(0,57)=#(0,25),(9,1),(0,44),(0,58)=*(0,59)=k(0,10),(0,17),(0,6);:_ZN5Login6base64EPKhj;0A.;operator=::(0,60)=#(0,25),(0,61)=&(0,25),(0,44),(0,62)=&(0,63)=k(0,25),(0,6);:_ZN5LoginaSERKS_;2A.;__base_ctor::(0,64)=#(0,25),(0,6),(0,44),(0,62),(0,6);:_ZN5LoginC2ERKS_;2A.;__comp_ctor::(0,64):_ZN5LoginC1ERKS_;2A.;;~%(16,46);",128,0,21,0
	.stabs	"XCListener:Tt(0,28)=s4_vptr$XCListener:(0,65)=*(0,1),0,32;xcConnError::(0,66)=#(0,28),(0,6),(0,67)=*(0,28),(0,3),(0,6);:_ZN10XCListener11xcConnErrorEi;2A*0;(0,28);;operator=::(0,68)=#(0,28),(0,69)=&(0,28),(0,67),(0,70)=&(0,71)=k(0,28),(0,6);:_ZN10XCListeneraSERKS_;2A.;__base_ctor::(0,72)=#(0,28),(0,6),(0,67),(0,70),(0,6);:_ZN10XCListenerC2ERKS_;2A.;__comp_ctor::(0,72):_ZN10XCListenerC1ERKS_;2A.;__base_ctor::(0,73)=#(0,28),(0,6),(0,67),(0,6);:_ZN10XCListenerC2Ev;2A.;__comp_ctor::(0,73):_ZN10XCListenerC1Ev;2A.;;~%(0,28);",128,0,8,0
	.stabs	"MtxListener:Tt(33,24)=s4_vptr$MtxListener:(0,65),0,32;mtxDataRemains::(0,74)=#(33,24),(0,6),(33,23),(18,27),(0,3),(0,6);:_ZN3Mtx11MtxListener14mtxDataRemainsEPKci;2A*0;(33,24);;operator=::(0,75)=#(33,24),(0,76)=&(33,24),(33,23),(0,77)=&(0,78)=k(33,24),(0,6);:_ZN3Mtx11MtxListeneraSERKS0_;2A.;__base_ctor::(0,79)=#(33,24),(0,6),(33,23),(0,77),(0,6);:_ZN3Mtx11MtxListenerC2ERKS0_;2A.;__comp_ctor::(0,79):_ZN3Mtx11MtxListenerC1ERKS0_;2A.;__base_ctor::(0,80)=#(33,24),(0,6),(33,23),(0,6);:_ZN3Mtx11MtxListenerC2Ev;2A.;__comp_ctor::(0,80):_ZN3Mtx11MtxListenerC1Ev;2A.;;~%(33,24);",128,0,353,0
	.stabs	"XmlListenerT<char>:Tt(0,81)=s4_vptr$XmlListenerT:(0,65),0,32;mtxEncoding::(0,82)=#(0,81),(0,6),(0,83)=*(0,81),(18,27),(0,6);:_ZN3Mtx12XmlListenerTIcE11mtxEncodingEPKc;2A*0;(0,81);;mtxTagStart::(0,84)=#(0,81),(0,6),(0,83),(18,27),(0,3),(0,6);:_ZN3Mtx12XmlListenerTIcE11mtxTagStartEPKci;2A*1;(0,81);;mtxTagAttr::(0,85)=#(0,81),(0,6),(0,83),(18,27),(18,27),(0,6);:_ZN3Mtx12XmlListenerTIcE10mtxTagAttrEPKcS3_;2A*2;(0,81);;mtxTagStartEnd::(0,86)=#(0,81),(0,6),(0,83),(0,6);:_ZN3Mtx12XmlListenerTIcE14mtxTagStartEndEv;2A*3;(0,81);;mtxTagData::(0,84):_ZN3Mtx12XmlListenerTIcE10mtxTagDataEPKci;2A*4;(0,81);;mtxTagEnd::(0,84):_ZN3Mtx12XmlListenerTIcE9mtxTagEndEPKci;2A*5;(0,81);;mtxParseError::(0,86):_ZN3Mtx12XmlListenerTIcE13mtxParseErrorEv;2A*6;(0,81);;mtxEmptyTagEnd::(0,86):_ZN3Mtx12XmlListenerTIcE14mtxEmptyTagEndEv;2A*7;(0,81);;operator=::(0,87)=#(0,81),(0,88)=&(0,81),(0,83),(0,89)=&(0,90)=k(0,81),(0,6);:_ZN3Mtx12XmlListenerTIcEaSERKS1_;2A.;__base_ctor::(0,91)=#(0,81),(0,6),(0,83),(0,89),(0,6);:_ZN3Mtx12XmlListenerTIcEC2ERKS1_;2A.;__comp_ctor::(0,91):_ZN3Mtx12XmlListenerTIcEC1ERKS1_;2A.;__base_ctor::(0,92)=#(0,81),(0,6),(0,83),(0,6);:_ZN3Mtx12XmlListenerTIcEC2Ev;2A.;__comp_ctor::(0,92):_ZN3Mtx12XmlListenerTIcEC1Ev;2A.;;~%(0,81);",128,0,299,0
	.stabs	"BluetoothDeviceDiscoveryListener:Tt(0,27)=s4_vptr$BluetoothDeviceDiscoveryListener:(0,65),0,32;btNewDevice::(0,93)=#(0,27),(0,6),(0,94)=*(0,27),(24,5),(0,6);:_ZN6MAUtil32BluetoothDeviceDiscoveryListener11btNewDeviceERKNS_8BtDeviceE;2A*0;(0,27);;btDeviceDiscoveryFinished::(0,95)=#(0,27),(0,6),(0,94),(0,3),(0,6);:_ZN6MAUtil32BluetoothDeviceDiscoveryListener25btDeviceDiscoveryFinishedEi;2A*1;(0,27);;operator=::(0,96)=#(0,27),(0,97)=&(0,27),(0,94),(0,98)=&(0,99)=k(0,27),(0,6);:_ZN6MAUtil32BluetoothDeviceDiscoveryListeneraSERKS0_;2A.;__base_ctor::(0,100)=#(0,27),(0,6),(0,94),(0,98),(0,6);:_ZN6MAUtil32BluetoothDeviceDiscoveryListenerC2ERKS0_;2A.;__comp_ctor::(0,100):_ZN6MAUtil32BluetoothDeviceDiscoveryListenerC1ERKS0_;2A.;__base_ctor::(0,101)=#(0,27),(0,6),(0,94),(0,6);:_ZN6MAUtil32BluetoothDeviceDiscoveryListenerC2Ev;2A.;__comp_ctor::(0,101):_ZN6MAUtil32BluetoothDeviceDiscoveryListenerC1Ev;2A.;;~%(0,27);",128,0,73,0
	.stabs	"WidgetListener:Tt(7,33)=s4_vptr$WidgetListener:(0,65),0,32;triggered::(0,102)=#(7,33),(0,6),(7,32),(7,3),(0,6);:_ZN4MAUI14WidgetListener9triggeredEPNS_6WidgetE;2A*0;(7,33);;selectionChanged::(0,103)=#(7,33),(0,6),(7,32),(7,3),(0,4),(0,6);:_ZN4MAUI14WidgetListener16selectionChangedEPNS_6WidgetEb;2A*1;(7,33);;enableStateChanged::(0,103):_ZN4MAUI14WidgetListener18enableStateChangedEPNS_6WidgetEb;2A*2;(7,33);;boundsChanged::(0,104)=#(7,33),(0,6),(7,32),(7,3),(18,33),(0,6);:_ZN4MAUI14WidgetListener13boundsChangedEPNS_6WidgetERKN6MAUtil4RectE;2A*3;(7,33);;operator=::(0,105)=#(7,33),(0,106)=&(7,33),(7,32),(0,107)=&(0,108)=k(7,33),(0,6);:_ZN4MAUI14WidgetListeneraSERKS0_;2A.;__base_ctor::(0,109)=#(7,33),(0,6),(7,32),(0,107),(0,6);:_ZN4MAUI14WidgetListenerC2ERKS0_;2A.;__comp_ctor::(0,109):_ZN4MAUI14WidgetListenerC1ERKS0_;2A.;__base_ctor::(0,110)=#(7,33),(0,6),(7,32),(0,6);:_ZN4MAUI14WidgetListenerC2Ev;2A.;__comp_ctor::(0,110):_ZN4MAUI14WidgetListenerC1Ev;2A.;;~%(7,33);",128,0,55,0
	.stabs	"RefCounted:Tt(0,111)=s8_vptr$RefCounted:(0,65),0,32;mRefCount:/0(0,3),32,32;__base_ctor::(0,112)=#(0,111),(0,6),(0,113)=*(0,111),(0,3),(0,6);:_ZN6MAUtil10RefCountedC2Ei;2A.;__comp_ctor::(0,112):_ZN6MAUtil10RefCountedC1Ei;2A.;addRef::(0,114)=#(0,111),(0,6),(0,113),(0,6);:_ZN6MAUtil10RefCounted6addRefEv;2A.;release::(0,114):_ZN6MAUtil10RefCounted7releaseEv;2A.;getRefCount::(0,115)=#(0,111),(0,3),(0,113),(0,6);:_ZN6MAUtil10RefCounted11getRefCountEv;2A.;__base_dtor::(0,114):_ZN6MAUtil10RefCountedD2Ev;2A.;__comp_dtor::(0,114):_ZN6MAUtil10RefCountedD1Ev;2A*0;(0,111);;__deleting_dtor::(0,114):_ZN6MAUtil10RefCountedD0Ev;2A*1;(0,111);;operator=::(0,116)=#(0,111),(0,117)=&(0,111),(0,113),(0,118)=&(0,119)=k(0,111),(0,6);:_ZN6MAUtil10RefCountedaSERKS0_;2A.;__base_ctor::(0,120)=#(0,111),(0,6),(0,113),(0,118),(0,6);:_ZN6MAUtil10RefCountedC2ERKS0_;2A.;__comp_ctor::(0,120):_ZN6MAUtil10RefCountedC1ERKS0_;2A.;;~%(0,111);",128,0,28,0
	.ctor __GLOBAL__I__ZN5LoginC2EP4Feed
	.dtor __GLOBAL__D__ZN5LoginC2EP4Feed
	.global	__ZTV5Login
.data
	.align 4
__ZTV5Login:
	.long	0
	.long	0
	.long	__ZN5LoginD1Ev
	.long	__ZN5LoginD0Ev
	.long	__ZN4MAUI6Screen13keyPressEventEii
	.long	__ZN4MAUI6Screen15keyReleaseEventEii
	.long	__ZN6MAUtil11KeyListener9charEventEj
	.long	__ZN5Login13keyPressEventEi
	.long	__ZN6MAUtil11KeyListener15keyReleaseEventEi
	.long	__ZN5Login4showEv
	.long	__ZN5Login17pointerPressEventE9MAPoint2d
	.long	__ZN5Login19pointerReleaseEventE9MAPoint2d
	.long	__ZN5Login16pointerMoveEventE9MAPoint2d
	.long	__ZN5Login4hideEv
	.long	__ZN5Login16selectionChangedEPN4MAUI6WidgetEb
	.long	__ZN5Login11btNewDeviceERKN6MAUtil8BtDeviceE
	.long	__ZN5Login25btDeviceDiscoveryFinishedEi
	.long	__ZN5Login15connectFinishedEPN6MAUtil10ConnectionEi
	.long	__ZN5Login16connReadFinishedEPN6MAUtil10ConnectionEi
	.long	__ZN5Login17connWriteFinishedEPN6MAUtil10ConnectionEi
	.long	__ZN5Login11xcConnErrorEi
	.long	__ZN5Login11mtxEncodingEPKc
	.long	__ZN5Login11mtxTagStartEPKci
	.long	__ZN5Login10mtxTagAttrEPKcS1_
	.long	__ZN5Login10mtxTagDataEPKci
	.long	__ZN5Login9mtxTagEndEPKci
	.long	__ZN5Login13mtxParseErrorEv
	.long	__ZN5Login14mtxEmptyTagEndEv
	.long	__ZN5Login14mtxTagStartEndEv
	.long	-4
	.long	0
	.long	__ZThn4_N5LoginD1Ev
	.long	__ZThn4_N5LoginD0Ev
	.long	__ZThn4_N5Login17pointerPressEventE9MAPoint2d
	.long	__ZThn4_N5Login16pointerMoveEventE9MAPoint2d
	.long	__ZThn4_N5Login19pointerReleaseEventE9MAPoint2d
	.long	__ZN6MAUtil15PointerListener20multitouchPressEventE9MAPoint2di
	.long	__ZN6MAUtil15PointerListener19multitouchMoveEventE9MAPoint2di
	.long	__ZN6MAUtil15PointerListener22multitouchReleaseEventE9MAPoint2di
	.long	-12
	.long	0
	.long	__ZN4MAUI14WidgetListener9triggeredEPNS_6WidgetE
	.long	__ZThn12_N5Login16selectionChangedEPN4MAUI6WidgetEb
	.long	__ZN4MAUI14WidgetListener18enableStateChangedEPNS_6WidgetEb
	.long	__ZN4MAUI14WidgetListener13boundsChangedEPNS_6WidgetERKN6MAUtil4RectE
	.long	-16
	.long	0
	.long	__ZThn16_N5Login11btNewDeviceERKN6MAUtil8BtDeviceE
	.long	__ZThn16_N5Login25btDeviceDiscoveryFinishedEi
	.long	-20
	.long	0
	.long	__ZThn20_N5Login11xcConnErrorEi
	.long	-24
	.long	0
	.long	__ZThn24_N5Login11mtxEncodingEPKc
	.long	__ZThn24_N5Login11mtxTagStartEPKci
	.long	__ZThn24_N5Login10mtxTagAttrEPKcS1_
	.long	__ZThn24_N5Login14mtxTagStartEndEv
	.long	__ZThn24_N5Login10mtxTagDataEPKci
	.long	__ZThn24_N5Login9mtxTagEndEPKci
	.long	__ZThn24_N5Login13mtxParseErrorEv
	.long	__ZThn24_N5Login14mtxEmptyTagEndEv
	.long	__ZN3Mtx11XmlListener19mtxUnicodeCharacterEi
	.long	-28
	.long	0
	.long	__ZThn28_N5Login15connectFinishedEPN6MAUtil10ConnectionEi
	.long	__ZN6MAUtil18ConnectionListener16connRecvFinishedEPNS_10ConnectionEi
	.long	__ZThn28_N5Login17connWriteFinishedEPN6MAUtil10ConnectionEi
	.long	__ZThn28_N5Login16connReadFinishedEPN6MAUtil10ConnectionEi
	.lcomm	_TRADE, 4 ; size=4
	.lcomm	_CARDS, 4 ; size=4
	.lcomm	_ALBUMS, 4 ; size=4
	.lcomm	_USER, 4 ; size=4
	.lcomm	_URL, 4 ; size=4
	.lcomm	_base64_chars, 4 ; size=4
LC0:
	.ascii "error\0"
	.align 4
_xml_error:
	.long	LC0
LC1:
	.ascii "lb.sav\0"
	.align 4
_ALBUM:
	.long	LC1
LC2:
	.ascii "fd.sav\0"
	.align 4
_FEED:
	.long	LC2
LC3:
	.ascii "Success\0"
	.align 4
_success:
	.long	LC3
LC4:
	.ascii "status\0"
	.align 4
_xml_status:
	.long	LC4
LC5:
	.ascii "name\0"
	.align 4
_xml_handle:
	.long	LC5
LC6:
	.ascii "email\0"
	.align 4
_xml_email:
	.long	LC6
LC7:
	.ascii "credits\0"
	.align 4
_xml_credits:
	.long	LC7
LC8:
	.ascii "username\0"
	.align 4
_xml_username:
	.long	LC8
LC9:
	.ascii "Unable to connect, try again later...\0"
	.align 4
_no_connect:
	.long	LC9
	.align 4
_sUuid:
	.long	270544960
	.long	1348497536
	.long	-1868517184
	.long	-790564848
LC10:
	.ascii "true\0"
	.align 4
_truesz:
	.long	LC10
LC11:
	.ascii "false\0"
	.align 4
_falsesz:
	.long	LC11
LC12:
	.ascii "Phone Number:\0"
	.align 4
_userlbl:
	.long	LC12
LC13:
	.ascii "Log In\0"
	.align 4
_login:
	.long	LC13
LC14:
	.ascii "Exit\0"
	.align 4
_exit:
	.long	LC14
	.align 4
__ZTVN4MAUI14WidgetListenerE:
	.long	0
	.long	0
	.long	__ZN4MAUI14WidgetListener9triggeredEPNS_6WidgetE
	.long	__ZN4MAUI14WidgetListener16selectionChangedEPNS_6WidgetEb
	.long	__ZN4MAUI14WidgetListener18enableStateChangedEPNS_6WidgetEb
	.long	__ZN4MAUI14WidgetListener13boundsChangedEPNS_6WidgetERKN6MAUtil4RectE
	.align 4
__ZTVN6MAUtil32BluetoothDeviceDiscoveryListenerE:
	.long	0
	.long	0
	.long	___cxa_pure_virtual
	.long	___cxa_pure_virtual
	.align 4
__ZTV10XCListener:
	.long	0
	.long	0
	.long	___cxa_pure_virtual
	.align 4
__ZTVN3Mtx12XmlListenerTIcEE:
	.long	0
	.long	0
	.long	___cxa_pure_virtual
	.long	___cxa_pure_virtual
	.long	___cxa_pure_virtual
	.long	___cxa_pure_virtual
	.long	___cxa_pure_virtual
	.long	___cxa_pure_virtual
	.long	___cxa_pure_virtual
	.long	___cxa_pure_virtual
.code
	.stabs	"_ZN4MAUI14WidgetListener9triggeredEPNS_6WidgetE:f(0,6)",36,0,60,__ZN4MAUI14WidgetListener9triggeredEPNS_6WidgetE
	.stabs	"this:P(7,38)",64,0,60,12
	.stabs	"widget:P(7,3)",64,0,60,13

.func __ZN4MAUI14WidgetListener9triggeredEPNS_6WidgetE, 2, void
	.stabs	"c:/MoSync/include/MAUI/Widget.h",132,0,0,Ltext1
Ltext1:
	.line 60
	push fr,fr
	ld   fr,sp
	add  fr,#0x4
	.line 60
	pop  fr,fr
	ret
Lscope0:
	.stabs	"_ZN4MAUI14WidgetListener16selectionChangedEPNS_6WidgetEb:f(0,6)",36,0,63,__ZN4MAUI14WidgetListener16selectionChangedEPNS_6WidgetEb
	.stabs	"this:P(7,38)",64,0,63,12
	.stabs	"widget:P(7,3)",64,0,63,13
	.stabs	"selected:P(0,4)",64,0,63,14

.func __ZN4MAUI14WidgetListener16selectionChangedEPNS_6WidgetEb, 3, void
	.line 63
	push fr,fr
	ld   fr,sp
	add  fr,#0x4
	.line 63
	pop  fr,fr
	ret
Lscope1:
	.stabs	"_ZN4MAUI14WidgetListener18enableStateChangedEPNS_6WidgetEb:f(0,6)",36,0,64,__ZN4MAUI14WidgetListener18enableStateChangedEPNS_6WidgetEb
	.stabs	"this:P(7,38)",64,0,64,12
	.stabs	"widget:P(7,3)",64,0,64,13
	.stabs	"enabled:P(0,4)",64,0,64,14

.func __ZN4MAUI14WidgetListener18enableStateChangedEPNS_6WidgetEb, 3, void
	.line 64
	push fr,fr
	ld   fr,sp
	add  fr,#0x4
	.line 64
	pop  fr,fr
	ret
Lscope2:
	.stabs	"_ZN4MAUI14WidgetListener13boundsChangedEPNS_6WidgetERKN6MAUtil4RectE:f(0,6)",36,0,67,__ZN4MAUI14WidgetListener13boundsChangedEPNS_6WidgetERKN6MAUtil4RectE
	.stabs	"this:P(7,38)",64,0,67,12
	.stabs	"widget:P(7,3)",64,0,67,13
	.stabs	"bounds:P(18,33)",64,0,67,14

.func __ZN4MAUI14WidgetListener13boundsChangedEPNS_6WidgetERKN6MAUtil4RectE, 3, void
	.line 67
	push fr,fr
	ld   fr,sp
	add  fr,#0x4
	.line 67
	pop  fr,fr
	ret
Lscope3:
	.stabs	"_ZN6MAUtil11KeyListener15keyReleaseEventEi:f(0,6)",36,0,58,__ZN6MAUtil11KeyListener15keyReleaseEventEi
	.stabs	"this:P(0,121)=k(16,45)",64,0,58,12
	.stabs	"keyCode:P(0,3)",64,0,58,13

.func __ZN6MAUtil11KeyListener15keyReleaseEventEi, 2, void
	.stabs	"c:/MoSync/include/MAUtil/Environment.h",132,0,0,Ltext2
Ltext2:
	.line 58
	push fr,fr
	ld   fr,sp
	add  fr,#0x4
	.line 58
	pop  fr,fr
	ret
Lscope4:
	.stabs	"_ZN6MAUtil15PointerListener20multitouchPressEventE9MAPoint2di:f(0,6)",36,0,71,__ZN6MAUtil15PointerListener20multitouchPressEventE9MAPoint2di
	.stabs	"this:P(0,122)=k(16,91)",64,0,71,12
	.stabs	"p:P(3,23)",64,0,71,13
	.stabs	"touchId:P(0,3)",64,0,71,15

.func __ZN6MAUtil15PointerListener20multitouchPressEventE9MAPoint2di, 4, void
	.line 71
	push fr,fr
	ld   fr,sp
	add  fr,#0x4
	.line 71
	pop  fr,fr
	ret
Lscope5:
	.stabs	"_ZN6MAUtil15PointerListener19multitouchMoveEventE9MAPoint2di:f(0,6)",36,0,72,__ZN6MAUtil15PointerListener19multitouchMoveEventE9MAPoint2di
	.stabs	"this:P(0,122)",64,0,72,12
	.stabs	"p:P(3,23)",64,0,72,13
	.stabs	"touchId:P(0,3)",64,0,72,15

.func __ZN6MAUtil15PointerListener19multitouchMoveEventE9MAPoint2di, 4, void
	.line 72
	push fr,fr
	ld   fr,sp
	add  fr,#0x4
	.line 72
	pop  fr,fr
	ret
Lscope6:
	.stabs	"_ZN6MAUtil15PointerListener22multitouchReleaseEventE9MAPoint2di:f(0,6)",36,0,73,__ZN6MAUtil15PointerListener22multitouchReleaseEventE9MAPoint2di
	.stabs	"this:P(0,122)",64,0,73,12
	.stabs	"p:P(3,23)",64,0,73,13
	.stabs	"touchId:P(0,3)",64,0,73,15

.func __ZN6MAUtil15PointerListener22multitouchReleaseEventE9MAPoint2di, 4, void
	.line 73
	push fr,fr
	ld   fr,sp
	add  fr,#0x4
	.line 73
	pop  fr,fr
	ret
Lscope7:
	.stabs	"_ZN4MAUI6Screen13keyPressEventEii:f(0,6)",36,0,60,__ZN4MAUI6Screen13keyPressEventEii
	.stabs	"this:P(0,123)=k(0,30)",64,0,60,12
	.stabs	"keyCode:P(0,3)",64,0,60,13
	.stabs	"nativeCode:P(0,3)",64,0,60,14

.func __ZN4MAUI6Screen13keyPressEventEii, 3, void
	.stabs	"c:/MoSync/include/MAUI/Screen.h",132,0,0,Ltext3
Ltext3:
	.line 60
	push fr,fr
	ld   fr,sp
	add  fr,#0x4
	.line 60
	pop  fr,fr
	ret
Lscope8:
	.stabs	"_ZN4MAUI6Screen15keyReleaseEventEii:f(0,6)",36,0,64,__ZN4MAUI6Screen15keyReleaseEventEii
	.stabs	"this:P(0,123)",64,0,64,12
	.stabs	"keyCode:P(0,3)",64,0,64,13
	.stabs	"nativeCode:P(0,3)",64,0,64,14

.func __ZN4MAUI6Screen15keyReleaseEventEii, 3, void
	.line 64
	push fr,fr
	ld   fr,sp
	add  fr,#0x4
	.line 64
	pop  fr,fr
	ret
Lscope9:
	.set	%0=__ZN5Login16selectionChangedEPN4MAUI6WidgetEb
	.stabs	"this:P(0,124)=k(0,44)",64,0,44,12
	.stabs	"widget:P(7,3)",64,0,44,13
	.stabs	"selected:P(0,4)",64,0,44,14
	.global	__ZThn12_N5Login16selectionChangedEPN4MAUI6WidgetEb

.func __ZThn12_N5Login16selectionChangedEPN4MAUI6WidgetEb, 3, void
	.stabs	"E:\\My Dropbox\\workspace\\GameCards\\BTVouchers\\/Login.h",132,0,0,Ltext4
Ltext4:
	.line 21
	push rt,fr
	ld   fr,sp
	add  fr,#0x8
	.line 21
	add  i0,#0xfffffff4
	call &%0 ; call non-native
	pop  rt,fr
	ret
Lscope10:
	.stabs	"_ZN5Login16selectionChangedEPN4MAUI6WidgetEb:F(0,6)",36,0,44,__ZN5Login16selectionChangedEPN4MAUI6WidgetEb
	.stabs	"this:P(0,124)",64,0,44,12
	.stabs	"widget:P(7,3)",64,0,44,12
	.stabs	"selected:P(0,4)",64,0,44,14
	.global	__ZN5Login16selectionChangedEPN4MAUI6WidgetEb

.func __ZN5Login16selectionChangedEPN4MAUI6WidgetEb, 3, void
	.stabs	"E:\\My Dropbox\\workspace\\GameCards\\BTVouchers\\Login.cpp",132,0,0,Ltext5
Ltext5:
	.line 44
	push rt,d1
	ld   fr,sp
	add  fr,#0x10
	ld   i0,i1
	.dlab LBB2
	.line 45
	ld   d1,i2
	and  d1,#0xff  ; zero extend
	ld   r14,#0x0
	jc   eq,d1,r14,#L13
	.dlab LBB3
	.stabs	"c:/MoSync/include/MAUtil/Vector.h",132,0,0,Ltext6
Ltext6:
	.line 362
	call &__ZN4MAUI6Widget11getChildrenEv ; call non-native
	.dlab LBB4
	ld   r14,[r14,8]
	.dlab LBE4
	.dlab LBE3
	ld   i0,[r14]
	ld   r14,[i0]
	ld   d0,[r14,48]
	ld   i1,#0x1
	call d0 ; call non-native
	.dlab LBE2
	.stabs	"E:\\My Dropbox\\workspace\\GameCards\\BTVouchers\\Login.cpp",132,0,0,Ltext7
Ltext7:
	.line 50
	pop  rt,d1
	ret
L13:
	.dlab LBB5
	.dlab LBB6
	.stabs	"c:/MoSync/include/MAUtil/Vector.h",132,0,0,Ltext8
Ltext8:
	.line 362
	call &__ZN4MAUI6Widget11getChildrenEv ; call non-native
	.dlab LBB7
	ld   r14,[r14,8]
	.dlab LBE7
	.dlab LBE6
	ld   i0,[r14]
	ld   r14,[i0]
	ld   d0,[r14,48]
	ld   i1,d1
	call d0 ; call non-native
	.dlab LBE5
	.stabs	"E:\\My Dropbox\\workspace\\GameCards\\BTVouchers\\Login.cpp",132,0,0,Ltext9
Ltext9:
	.line 50
	pop  rt,d1
	ret
Lscope11:
	.set	%1=__ZN5Login19pointerReleaseEventE9MAPoint2d
	.stabs	"this:P(0,124)",64,0,63,12
	.stabs	"point:P(3,23)",64,0,63,30
	.global	__ZThn4_N5Login19pointerReleaseEventE9MAPoint2d

.func __ZThn4_N5Login19pointerReleaseEventE9MAPoint2d, 3, void
	.stabs	"E:\\My Dropbox\\workspace\\GameCards\\BTVouchers\\/Login.h",132,0,0,Ltext10
Ltext10:
	.line 21
	push rt,fr
	ld   fr,sp
	add  fr,#0x8
	.line 21
	add  i0,#0xfffffffc
	call &%1 ; call non-native
	pop  rt,fr
	ret
Lscope12:
	.stabs	"_ZN5Login19pointerReleaseEventE9MAPoint2d:F(0,6)",36,0,63,__ZN5Login19pointerReleaseEventE9MAPoint2d
	.stabs	"this:P(0,124)",64,0,63,16
	.stabs	"point:P(3,23)",64,0,63,13
	.global	__ZN5Login19pointerReleaseEventE9MAPoint2d

.func __ZN5Login19pointerReleaseEventE9MAPoint2d, 3, void
	.stabs	"E:\\My Dropbox\\workspace\\GameCards\\BTVouchers\\Login.cpp",132,0,0,Ltext11
Ltext11:
	.line 63
	push rt,d0
	ld   fr,sp
	add  fr,#0xc
	ld   r0,i0
	.dlab LBB8
	.line 64
	ld.b r14,[i0,2326]
	and  r14,#0xff  ; zero extend
	ld   r1,#0x0
	jc   ne,r14,r1,#L27
	.line 66
	ld.b r1,[i0,2325]
	and  r1,#0xff  ; zero extend
	jc   eq,r1,r14,#L23
	.line 67
	ld   r14,[i0]
	ld   d0,[r14,20]
	ld   i1,#0x11d
	.line 69
	call d0 ; call non-native
L20:
	.dlab LBE8
	.line 71
	pop  rt,d0
	ret
L23:
	.dlab LBB9
	.line 68
	ld.b r14,[i0,2324]
	and  r14,#0xff  ; zero extend
	jc   eq,r14,r1,#L20
	.line 69
	ld   r14,[i0]
	ld   d0,[r14,20]
	ld   i1,#0x11c
	call d0 ; call non-native
	jp   #L20
L27:
	.line 65
	ld   r14,[i0]
	ld   d0,[r14,20]
	ld   i1,#0x11e
	.line 69
	call d0 ; call non-native
	jp   #L20
	.dlab LBE9
Lscope13:
	.stabs	"_ZN5Login10locateItemE9MAPoint2d:F(0,6)",36,0,74,__ZN5Login10locateItemE9MAPoint2d
	.stabs	"this:P(0,124)",64,0,74,5
	.stabs	"point:P(3,23)",64,0,74,6
	.global	__ZN5Login10locateItemE9MAPoint2d

.func __ZN5Login10locateItemE9MAPoint2d, 3, void
	.line 74
	push rt,d4
	sub  sp,#0xc
	ld   fr,sp
	add  fr,#0x28
	ld   d1,i0
	ld   d2,i1
	ld   d3,i2
	.dlab LBB10
	.dlab LBB11
	.line 75
	ld   d4,fr
	add  d4,#0xffffffe0
	ld   i0,d4
	ld   i1,[&_truesz]
	call &__ZN6MAUtil11BasicStringIcEC1EPKc ; call non-native
	ld   d0,d1
	add  d0,#0x910
	ld   i0,d0
	ld   i1,d4
	call &__ZN6MAUtil11BasicStringIcEaSERKS1_ ; call non-native
	ld   i0,d4
	call &__ZN6MAUtil11BasicStringIcED1Ev ; call non-native
	.line 76
	ld   i0,d0
	call &__ZNK6MAUtil11BasicStringIcE5c_strEv ; call non-native
	ld   i0,[d1,2332]
	ld   i1,r14
	call &__ZN4Feed8setTouchEPKc ; call non-native
	and  r14,#0xff  ; zero extend
	ld   r0,#0x0
	jc   ne,r14,r0,#L58
L29:
	.line 79
	ld   r14,#0x0
	ld.b [d1,2324],r14
	.line 80
	ld.b [d1,2325],r14
	.line 81
	ld.b [d1,2326],r14
	.dlab LBB12
	.dlab LBB13
	.stabs	"c:/MoSync/include/MAUtil/Geometry.h",132,0,0,Ltext12
Ltext12:
	.line 41
	ld   [fr,-40],d2
	ld   [fr,-36],d3
	.dlab LBE13
	.dlab LBE12
	.dlab LBB14
	.stabs	"E:\\My Dropbox\\workspace\\GameCards\\BTVouchers\\Login.cpp",132,0,0,Ltext13
Ltext13:
	.line 85
	ld   d2,#0x0
	jp   #L33
L45:
	.dlab LBB15
	.dlab LBB16
	.dlab LBB17
	.stabs	"c:/MoSync/include/MAUtil/Vector.h",132,0,0,Ltext14
Ltext14:
	.line 362
	ld   i0,d1
	call &__ZN4MAUI6Screen7getMainEv ; call non-native
	ld   i0,r14
	call &__ZN4MAUI6Widget11getChildrenEv ; call non-native
	.dlab LBB18
	ld   r14,[r14,8]
	.dlab LBE18
	.dlab LBE17
	ld   i0,[r14]
	call &__ZN4MAUI6Widget11getChildrenEv ; call non-native
	.dlab LBB19
	ld   r14,[r14,8]
	add  r14,#0x8
	.dlab LBE19
	.dlab LBE16
	ld   i0,[r14]
	call &__ZN4MAUI6Widget11getChildrenEv ; call non-native
	.dlab LBB20
	ld   r0,d2
	sll  r0,#0x2
	ld   r14,[r14,8]
	add  r0,r14
	.dlab LBE20
	.dlab LBE15
	ld   i0,[r0]
	ld   r14,[i0]
	ld   d0,[r14,40]
	ld   i1,fr
	add  i1,#0xffffffd8
	call d0 ; call non-native
	and  r14,#0xff  ; zero extend
	ld   r0,#0x0
	jc   ne,r14,r0,#L59
	.stabs	"E:\\My Dropbox\\workspace\\GameCards\\BTVouchers\\Login.cpp",132,0,0,Ltext15
Ltext15:
	.line 85
	add  d2,#0x1
L33:
	.dlab LBB21
	.dlab LBB22
	.dlab LBB23
	.stabs	"c:/MoSync/include/MAUtil/Vector.h",132,0,0,Ltext16
Ltext16:
	.line 362
	ld   i0,d1
	call &__ZN4MAUI6Screen7getMainEv ; call non-native
	ld   i0,r14
	call &__ZN4MAUI6Widget11getChildrenEv ; call non-native
	.dlab LBB24
	ld   r14,[r14,8]
	.dlab LBE24
	.dlab LBE23
	ld   i0,[r14]
	call &__ZN4MAUI6Widget11getChildrenEv ; call non-native
	.dlab LBB25
	ld   r14,[r14,8]
	add  r14,#0x8
	.dlab LBE25
	.dlab LBE22
	ld   i0,[r14]
	call &__ZN4MAUI6Widget11getChildrenEv ; call non-native
	.dlab LBB26
	.line 265
	ld   r14,[r14]
	.dlab LBE26
	.dlab LBE21
	.line 366
	jc   gt,r14,d2,#L45
	.dlab LBE14
	.dlab LBB27
	.stabs	"E:\\My Dropbox\\workspace\\GameCards\\BTVouchers\\Login.cpp",132,0,0,Ltext17
Ltext17:
	.line 94
	ld   d2,#0x0
	jp   #L46
L57:
	.dlab LBB28
	.dlab LBB29
	.stabs	"c:/MoSync/include/MAUtil/Vector.h",132,0,0,Ltext18
Ltext18:
	.line 362
	ld   i0,d1
	call &__ZN4MAUI6Screen7getMainEv ; call non-native
	ld   i0,r14
	call &__ZN4MAUI6Widget11getChildrenEv ; call non-native
	.dlab LBB30
	ld   r14,[r14,8]
	add  r14,#0x4
	.dlab LBE30
	.dlab LBE29
	ld   i0,[r14]
	call &__ZN4MAUI6Widget11getChildrenEv ; call non-native
	.dlab LBB31
	ld   r0,d2
	sll  r0,#0x2
	ld   r14,[r14,8]
	add  r0,r14
	.dlab LBE31
	.dlab LBE28
	ld   i0,[r0]
	ld   r14,[i0]
	ld   d0,[r14,40]
	ld   i1,fr
	add  i1,#0xffffffd8
	call d0 ; call non-native
	and  r14,#0xff  ; zero extend
	ld   r0,#0x0
	jc   ne,r14,r0,#L60
	.stabs	"E:\\My Dropbox\\workspace\\GameCards\\BTVouchers\\Login.cpp",132,0,0,Ltext19
Ltext19:
	.line 94
	add  d2,#0x1
L46:
	.dlab LBB32
	.dlab LBB33
	.stabs	"c:/MoSync/include/MAUtil/Vector.h",132,0,0,Ltext20
Ltext20:
	.line 362
	ld   i0,d1
	call &__ZN4MAUI6Screen7getMainEv ; call non-native
	ld   i0,r14
	call &__ZN4MAUI6Widget11getChildrenEv ; call non-native
	.dlab LBB34
	ld   r14,[r14,8]
	add  r14,#0x4
	.dlab LBE34
	.dlab LBE33
	ld   i0,[r14]
	call &__ZN4MAUI6Widget11getChildrenEv ; call non-native
	.dlab LBB35
	.line 265
	ld   r14,[r14]
	.dlab LBE35
	.dlab LBE32
	.line 366
	jc   gt,r14,d2,#L57
	jp   #L28
L59:
	.dlab LBE27
	.dlab LBB36
	.dlab LBB37
	.dlab LBB38
	.line 362
	ld   i0,d1
	call &__ZN4MAUI6Screen7getMainEv ; call non-native
	ld   i0,r14
	call &__ZN4MAUI6Widget11getChildrenEv ; call non-native
	.dlab LBB39
	ld   r14,[r14,8]
	.dlab LBE39
	.dlab LBE38
	ld   i0,[r14]
	call &__ZN4MAUI6Widget11getChildrenEv ; call non-native
	.dlab LBB40
	ld   r14,[r14,8]
	add  r14,#0x8
	.dlab LBE40
	.dlab LBE37
	ld   i0,[r14]
	ld   i1,d2
	call &__ZN4MAUI7ListBox16setSelectedIndexEi ; call non-native
	.stabs	"E:\\My Dropbox\\workspace\\GameCards\\BTVouchers\\Login.cpp",132,0,0,Ltext21
Ltext21:
	.line 90
	ld   r14,#0x1
	ld.b [d1,2324],r14
L28:
	.dlab LBE36
	.dlab LBE11
	.dlab LBE10
	.line 106
	add  sp,#0xc
	pop  rt,d4
	ret
L58:
	.dlab LBB41
	.dlab LBB42
	.line 77
	ld   i0,d4
	ld   i1,[d1,2332]
	call &__ZN4Feed6getAllEv ; call non-native
	ld   i0,d4
	call &__ZNK6MAUtil11BasicStringIcE5c_strEv ; call non-native
	ld   i0,[&_FEED]
	ld   i1,r14
	call &__Z8saveDataPKcS0_ ; call non-native
	ld   i0,d4
	call &__ZN6MAUtil11BasicStringIcED1Ev ; call non-native
	jp   #L29
L60:
	.dlab LBB43
	.line 98
	jc   ne,d2,r0,#L54
	.line 99
	ld   r14,#0x1
	ld.b [d1,2325],r14
	.dlab LBE43
	.dlab LBE42
	.dlab LBE41
	.line 106
	add  sp,#0xc
	pop  rt,d4
	ret
L54:
	.dlab LBB44
	.dlab LBB45
	.dlab LBB46
	.line 100
	ld   r0,#0x2
	jc   ne,d2,r0,#L28
	.line 101
	ld   r14,#0x1
	ld.b [d1,2326],r14
	jp   #L28
	.dlab LBE46
	.dlab LBE45
	.dlab LBE44
	.stabs	"p:(10,1)",128,0,83,-40
	.stabn	192,0,0,LBB11-__ZN5Login10locateItemE9MAPoint2d
	.stabs	"i:r(0,3)",64,0,85,6
	.stabn	192,0,0,LBB14-__ZN5Login10locateItemE9MAPoint2d
	.stabn	224,0,0,LBE14-__ZN5Login10locateItemE9MAPoint2d
	.stabs	"i:r(0,3)",64,0,94,6
	.stabn	192,0,0,LBB27-__ZN5Login10locateItemE9MAPoint2d
	.stabn	224,0,0,LBE27-__ZN5Login10locateItemE9MAPoint2d
	.stabs	"i:r(0,3)",64,0,85,6
	.stabn	192,0,0,LBB36-__ZN5Login10locateItemE9MAPoint2d
	.stabn	224,0,0,LBE36-__ZN5Login10locateItemE9MAPoint2d
	.stabn	224,0,0,LBE11-__ZN5Login10locateItemE9MAPoint2d
	.stabs	"p:(10,1)",128,0,83,-40
	.stabn	192,0,0,LBB42-__ZN5Login10locateItemE9MAPoint2d
	.stabs	"i:r(0,3)",64,0,94,6
	.stabn	192,0,0,LBB43-__ZN5Login10locateItemE9MAPoint2d
	.stabn	224,0,0,LBE43-__ZN5Login10locateItemE9MAPoint2d
	.stabn	224,0,0,LBE42-__ZN5Login10locateItemE9MAPoint2d
	.stabs	"p:(10,1)",128,0,83,-40
	.stabn	192,0,0,LBB45-__ZN5Login10locateItemE9MAPoint2d
	.stabs	"i:r(0,3)",64,0,94,6
	.stabn	192,0,0,LBB46-__ZN5Login10locateItemE9MAPoint2d
	.stabn	224,0,0,LBE46-__ZN5Login10locateItemE9MAPoint2d
	.stabn	224,0,0,LBE45-__ZN5Login10locateItemE9MAPoint2d
Lscope14:
	.set	%2=__ZN5Login16pointerMoveEventE9MAPoint2d
	.stabs	"this:P(0,124)",64,0,58,12
	.stabs	"point:p(3,23)",160,0,58,-16
	.global	__ZThn4_N5Login16pointerMoveEventE9MAPoint2d

.func __ZThn4_N5Login16pointerMoveEventE9MAPoint2d, 3, void
	.stabs	"E:\\My Dropbox\\workspace\\GameCards\\BTVouchers\\/Login.h",132,0,0,Ltext22
Ltext22:
	.line 21
	push rt,fr
	sub  sp,#0x8
	ld   fr,sp
	add  fr,#0x10
	ld   [fr,-16],i1
	ld   [fr,-12],i2
	.line 21
	add  i0,#0xfffffffc
	call &%2 ; call non-native
	add  sp,#0x8
	pop  rt,fr
	ret
Lscope15:
	.stabs	"_ZN5Login16pointerMoveEventE9MAPoint2d:F(0,6)",36,0,58,__ZN5Login16pointerMoveEventE9MAPoint2d
	.stabs	"this:P(0,124)",64,0,58,12
	.stabs	"point:p(3,23)",160,0,58,-16
	.global	__ZN5Login16pointerMoveEventE9MAPoint2d

.func __ZN5Login16pointerMoveEventE9MAPoint2d, 3, void
	.stabs	"E:\\My Dropbox\\workspace\\GameCards\\BTVouchers\\Login.cpp",132,0,0,Ltext23
Ltext23:
	.line 58
	push rt,fr
	sub  sp,#0x8
	ld   fr,sp
	add  fr,#0x10
	ld   [fr,-16],i1
	ld   [fr,-12],i2
	.dlab LBB47
	.line 59
	call &__ZN5Login10locateItemE9MAPoint2d ; call non-native
	.dlab LBE47
	add  sp,#0x8
	pop  rt,fr
	ret
Lscope16:
	.set	%3=__ZN5Login17pointerPressEventE9MAPoint2d
	.stabs	"this:P(0,124)",64,0,53,12
	.stabs	"point:p(3,23)",160,0,53,-16
	.global	__ZThn4_N5Login17pointerPressEventE9MAPoint2d

.func __ZThn4_N5Login17pointerPressEventE9MAPoint2d, 3, void
	.stabs	"E:\\My Dropbox\\workspace\\GameCards\\BTVouchers\\/Login.h",132,0,0,Ltext24
Ltext24:
	.line 21
	push rt,fr
	sub  sp,#0x8
	ld   fr,sp
	add  fr,#0x10
	ld   [fr,-16],i1
	ld   [fr,-12],i2
	.line 21
	add  i0,#0xfffffffc
	call &%3 ; call non-native
	add  sp,#0x8
	pop  rt,fr
	ret
Lscope17:
	.stabs	"_ZN5Login17pointerPressEventE9MAPoint2d:F(0,6)",36,0,53,__ZN5Login17pointerPressEventE9MAPoint2d
	.stabs	"this:P(0,124)",64,0,53,12
	.stabs	"point:p(3,23)",160,0,53,-16
	.global	__ZN5Login17pointerPressEventE9MAPoint2d

.func __ZN5Login17pointerPressEventE9MAPoint2d, 3, void
	.stabs	"E:\\My Dropbox\\workspace\\GameCards\\BTVouchers\\Login.cpp",132,0,0,Ltext25
Ltext25:
	.line 53
	push rt,fr
	sub  sp,#0x8
	ld   fr,sp
	add  fr,#0x10
	ld   [fr,-16],i1
	ld   [fr,-12],i2
	.dlab LBB48
	.line 54
	call &__ZN5Login10locateItemE9MAPoint2d ; call non-native
	.dlab LBE48
	add  sp,#0x8
	pop  rt,fr
	ret
Lscope18:
	.stabs	"_ZN5Login4showEv:F(0,6)",36,0,108,__ZN5Login4showEv
	.stabs	"this:P(0,124)",64,0,108,5
	.global	__ZN5Login4showEv

.func __ZN5Login4showEv, 1, void
	.line 108
	push rt,d1
	ld   fr,sp
	add  fr,#0x10
	ld   d1,i0
	.dlab LBB49
	.dlab LBB50
	.stabs	"c:/MoSync/include/MAUtil/Vector.h",132,0,0,Ltext26
Ltext26:
	.line 362
	ld   i0,[i0,40]
	call &__ZN4MAUI6Widget11getChildrenEv ; call non-native
	ld   d0,r14
	ld   i0,[d1,40]
	call &__ZNK4MAUI7ListBox16getSelectedIndexEv ; call non-native
	.dlab LBB51
	sll  r14,#0x2
	ld   d0,[d0,8]
	add  r14,d0
	.dlab LBE51
	.dlab LBE50
	ld   i0,[r14]
	ld   r14,[i0]
	ld   d0,[r14,48]
	ld   i1,#0x1
	call d0 ; call non-native
	.stabs	"E:\\My Dropbox\\workspace\\GameCards\\BTVouchers\\Login.cpp",132,0,0,Ltext27
Ltext27:
	.line 110
	ld   i0,d1
	call &__ZN4MAUI6Screen4showEv ; call non-native
	.dlab LBE49
	pop  rt,d1
	ret
Lscope19:
	.stabs	"_ZN5Login4hideEv:F(0,6)",36,0,113,__ZN5Login4hideEv
	.stabs	"this:P(0,124)",64,0,113,5
	.global	__ZN5Login4hideEv

.func __ZN5Login4hideEv, 1, void
	.line 113
	push rt,d1
	ld   fr,sp
	add  fr,#0x10
	ld   d1,i0
	.dlab LBB52
	.dlab LBB53
	.stabs	"c:/MoSync/include/MAUtil/Vector.h",132,0,0,Ltext28
Ltext28:
	.line 362
	ld   i0,[i0,40]
	call &__ZN4MAUI6Widget11getChildrenEv ; call non-native
	ld   d0,r14
	ld   i0,[d1,40]
	call &__ZNK4MAUI7ListBox16getSelectedIndexEv ; call non-native
	.dlab LBB54
	sll  r14,#0x2
	ld   d0,[d0,8]
	add  r14,d0
	.dlab LBE54
	.dlab LBE53
	ld   i0,[r14]
	ld   r14,[i0]
	ld   d0,[r14,48]
	ld   i1,#0x0
	call d0 ; call non-native
	.stabs	"E:\\My Dropbox\\workspace\\GameCards\\BTVouchers\\Login.cpp",132,0,0,Ltext29
Ltext29:
	.line 115
	ld   i0,d1
	call &__ZN4MAUI6Screen4hideEv ; call non-native
	.dlab LBE52
	pop  rt,d1
	ret
Lscope20:
	.stabs	"_ZN5Login7connectE8MABtAddr6MAUUID:F(0,6)",36,0,125,__ZN5Login7connectE8MABtAddr6MAUUID
	.stabs	"this:P(0,124)",64,0,125,12
	.stabs	"address:p(3,61)",160,0,125,-16
	.stabs	"service:p(3,131)",160,0,125,0
	.global	__ZN5Login7connectE8MABtAddr6MAUUID

.func __ZN5Login7connectE8MABtAddr6MAUUID, 7, void
	.line 125
	push rt,fr
	sub  sp,#0x8
	ld   fr,sp
	add  fr,#0x10
	ld   [fr,-16],i1
	ld   [fr,-12],i2
	.dlab LBB55
	.line 126
	add  i0,#0x34
	ld   i1,fr
	add  i1,#0xfffffff0
	ld   i2,fr
	call &__ZN6MAUtil19BluetoothConnection7connectERK8MABtAddrRK6MAUUID ; call non-native
	.dlab LBE55
	add  sp,#0x8
	pop  rt,fr
	ret
Lscope21:
	.set	%4=__ZN5Login25btDeviceDiscoveryFinishedEi
	.stabs	"this:P(0,124)",64,0,139,12
	.stabs	"state:P(0,3)",64,0,139,13
	.global	__ZThn16_N5Login25btDeviceDiscoveryFinishedEi

.func __ZThn16_N5Login25btDeviceDiscoveryFinishedEi, 2, void
	.stabs	"E:\\My Dropbox\\workspace\\GameCards\\BTVouchers\\/Login.h",132,0,0,Ltext30
Ltext30:
	.line 21
	push rt,fr
	ld   fr,sp
	add  fr,#0x8
	.line 21
	add  i0,#0xfffffff0
	call &%4 ; call non-native
	pop  rt,fr
	ret
Lscope22:
.data
LC15:
	.ascii "No server connections founds\0"
.code
	.stabs	"_ZN5Login25btDeviceDiscoveryFinishedEi:F(0,6)",36,0,139,__ZN5Login25btDeviceDiscoveryFinishedEi
	.stabs	"this:P(0,124)",64,0,139,5
	.stabs	"state:P(0,3)",64,0,139,13
	.global	__ZN5Login25btDeviceDiscoveryFinishedEi

.func __ZN5Login25btDeviceDiscoveryFinishedEi, 2, void
	.stabs	"E:\\My Dropbox\\workspace\\GameCards\\BTVouchers\\Login.cpp",132,0,0,Ltext31
Ltext31:
	.line 139
	push rt,d1
	sub  sp,#0x1c
	ld   fr,sp
	add  fr,#0x2c
	ld   d1,i0
	.dlab LBB56
	.line 140
	ld   r0,#0x0
	ld.b [i0,2340],r0
	.line 141
	ld   r1,#0x0
	ld   [i0,140],r1
	.dlab LBB57
	.stabs	"c:/MoSync/include/MAUtil/Vector.h",132,0,0,Ltext32
Ltext32:
	.line 265
	ld   r0,i0
	add  r0,#0x7c
	.dlab LBB58
	ld   r14,[r0]
	.dlab LBE58
	.dlab LBE57
	jc   le,r14,r1,#L72
	.dlab LBB59
	.line 362
	ld   r14,#0x1
	ld   [i0,140],r14
	.dlab LBB60
	ld   r14,[r0,8]
	.dlab LBE60
	.dlab LBE59
	ld   [i0,136],r14
	.stabs	"E:\\My Dropbox\\workspace\\GameCards\\BTVouchers\\Login.cpp",132,0,0,Ltext33
Ltext33:
	.line 144
	ld.b r0,[r14,4]
	ld.b [fr,-24],r0
	ld.b r1,[r14,5]
	ld.b [fr,-23],r1
	ld.b r0,[r14,6]
	ld.b [fr,-22],r0
	ld.b r1,[r14,7]
	ld.b [fr,-21],r1
	ld.b r0,[r14,8]
	ld.b [fr,-20],r0
	ld.b r14,[r14,9]
	ld.b [fr,-19],r14
	ld   i0,sp
	ld   i1,#_sUuid
	ld   i2,#0x10
	call &_memcpy ; call non-native
	ld   i0,d1
	ld   i1,[fr,-24]
	ld.h i2,[fr,-20]
	and  i2,#0xffff ; zero extend
	call &__ZN5Login7connectE8MABtAddr6MAUUID ; call non-native
	.dlab LBE56
	.line 148
	add  sp,#0x1c
	pop  rt,d1
	ret
L72:
	.dlab LBB61
	.line 146
	ld   d0,fr
	add  d0,#0xffffffe4
	ld   i0,d0
	ld   i1,#LC15
	call &__ZN6MAUtil11BasicStringIcEC1EPKc ; call non-native
	ld   i0,[d1,44]
	ld   r14,[i0]
	ld   d1,[r14,92]
	ld   i1,d0
	call d1 ; call non-native
	ld   i0,d0
	call &__ZN6MAUtil11BasicStringIcED1Ev ; call non-native
	.dlab LBE61
	.line 148
	add  sp,#0x1c
	pop  rt,d1
	ret
	.stabs	"this:r(0,125)=k(5,18)",64,0,265,16
	.stabn	192,0,0,LBB57-__ZN5Login25btDeviceDiscoveryFinishedEi
	.stabn	224,0,0,LBE57-__ZN5Login25btDeviceDiscoveryFinishedEi
Lscope23:
.data
LC16:
	.ascii "0722627309\0"
LC17:
	.ascii "Starting Device Discovery [%d]\0"
.code
	.stabs	"_ZN5Login13keyPressEventEi:F(0,6)",36,0,156,__ZN5Login13keyPressEventEi
	.stabs	"this:P(0,124)",64,0,156,5
	.stabs	"keyCode:P(0,3)",64,0,156,4
	.global	__ZN5Login13keyPressEventEi

.func __ZN5Login13keyPressEventEi, 2, void
	.line 156
	push rt,d2
	sub  sp,#0x108
	ld   fr,sp
	add  fr,#0x11c
	ld   d1,i0
	ld   d0,i1
	.dlab LBB62
	.dlab LBB63
	.line 157
	ld   r0,#0x0
	ld.b [i0,2327],r0
	.line 158
	ld   i0,[i0,40]
	call &__ZNK4MAUI7ListBox16getSelectedIndexEv ; call non-native
	.dlab LBB64
	.line 159
	case d0,#0x111,#0xd,#L85,#L76
.data
	.align 4
L85:
	.word L83
	.word L83
	.word L76
	.word L76
	.word L76
	.word L76
	.word L76
	.word L76
	.word L76
	.word L76
	.word L76
	.word L76
	.word L81
	.word L79
.code
L83:
	.dlab LBB65
	.line 178
	ld   i0,[d1,40]
	ld   i1,#0x1
	call &__ZN4MAUI7ListBox16setSelectedIndexEi ; call non-native
L76:
	.dlab LBE65
	.dlab LBE64
	.dlab LBE63
	.dlab LBE62
	.line 183
	add  sp,#0x108
	pop  rt,d2
	ret
L79:
	.dlab LBB66
	.dlab LBB67
	.dlab LBB68
	.dlab LBB69
	.line 163
	ld   d2,fr
	add  d2,#0xffffffe8
	ld   i0,d2
	ld   i1,#LC16
	call &__ZN6MAUtil11BasicStringIcEC1EPKc ; call non-native
	ld   i0,[d1,48]
	ld   i1,d2
	call &__ZN4MAUI7EditBox7setTextERKN6MAUtil11BasicStringIcEE ; call non-native
	ld   i0,d2
	call &__ZN6MAUtil11BasicStringIcED1Ev ; call non-native
	.dlab LBB70
	.line 165
	ld.b r14,[d1,2340]
	and  r14,#0xff  ; zero extend
	ld   r0,#0x0
	jc   ne,r14,r0,#L76
	.dlab LBB71
	.line 166
	ld   r14,#0x1
	ld.b [d1,2340],r14
	.line 167
	ld   i0,#0xc
	call &__Znwm ; call non-native
	ld   d0,r14
	ld   i0,r14
	call &__ZN6MAUtil19BluetoothDiscovererC1Ev ; call non-native
	ld   [d1,120],d0
	.line 169
	ld   i0,d0
	ld   i1,d1
	add  i1,#0x10
	ld   i2,#0x1
	call &__ZN6MAUtil19BluetoothDiscoverer20startDeviceDiscoveryEPNS_32BluetoothDeviceDiscoveryListenerEb ; call non-native
	ld   d0,fr
	add  d0,#0xfffffee8
	ld   [sp],r14
	ld   i0,d0
	ld   i1,#LC17
	call &_sprintf ; call non-native
	.line 170
	ld   i0,d2
	ld   i1,d0
	call &__ZN6MAUtil11BasicStringIcEC1EPKc ; call non-native
	ld   i0,[d1,44]
	ld   r14,[i0]
	ld   d0,[r14,92]
	ld   i1,d2
	call d0 ; call non-native
	ld   i0,d2
	call &__ZN6MAUtil11BasicStringIcED1Ev ; call non-native
	jp   #L76
L81:
	.dlab LBE71
	.dlab LBE70
	.line 174
	ld   i0,#0x0
	call &_maExit ; call non-native
	.dlab LBE69
	.dlab LBE68
	.dlab LBE67
	.dlab LBE66
	.stabs	"mBuffer:(0,126)=ar(3,53);0;254;(0,19)",128,0,168,-280
	.stabn	192,0,0,LBB71-__ZN5Login13keyPressEventEi
	.stabn	224,0,0,LBE71-__ZN5Login13keyPressEventEi
Lscope24:
	.set	%5=__ZN5Login15connectFinishedEPN6MAUtil10ConnectionEi
	.stabs	"this:P(0,124)",64,0,185,12
	.stabs	"http:P(0,52)",64,0,185,13
	.stabs	"result:P(0,3)",64,0,185,14
	.global	__ZThn28_N5Login15connectFinishedEPN6MAUtil10ConnectionEi

.func __ZThn28_N5Login15connectFinishedEPN6MAUtil10ConnectionEi, 3, void
	.stabs	"E:\\My Dropbox\\workspace\\GameCards\\BTVouchers\\/Login.h",132,0,0,Ltext34
Ltext34:
	.line 21
	push rt,fr
	ld   fr,sp
	add  fr,#0x8
	.line 21
	add  i0,#0xffffffe4
	call &%5 ; call non-native
	pop  rt,fr
	ret
Lscope25:
	.stabs	"_ZN5Login15connectFinishedEPN6MAUtil10ConnectionEi:F(0,6)",36,0,185,__ZN5Login15connectFinishedEPN6MAUtil10ConnectionEi
	.stabs	"this:P(0,124)",64,0,185,6
	.stabs	"http:P(0,52)",64,0,185,7
	.stabs	"result:P(0,3)",64,0,185,14
	.global	__ZN5Login15connectFinishedEPN6MAUtil10ConnectionEi

.func __ZN5Login15connectFinishedEPN6MAUtil10ConnectionEi, 3, void
	.stabs	"E:\\My Dropbox\\workspace\\GameCards\\BTVouchers\\Login.cpp",132,0,0,Ltext35
Ltext35:
	.line 185
	push rt,d3
	sub  sp,#0x870
	ld   fr,sp
	add  fr,#0x888
	ld   d2,i0
	ld   d3,i1
	.dlab LBB72
	.line 186
	ld   r0,#0xc8
	jc   eq,i2,r0,#L89
	ld   r14,#0x1
	jc   eq,i2,r14,#L89
	.line 190
	ld   r14,#0x14
	jc   eq,i2,r14,#L99
	.line 197
	ld   d0,fr
	add  d0,#0xfffff788
	ld   i0,d0
	ld   i1,[&_no_connect]
	call &__ZN6MAUtil11BasicStringIcEC1EPKc ; call non-native
	ld   i0,[d2,44]
	ld   r14,[i0]
	ld   d1,[r14,92]
	ld   i1,d0
	call d1 ; call non-native
	ld   i0,d0
	call &__ZN6MAUtil11BasicStringIcED1Ev ; call non-native
	.line 198
	ld   r14,#0x0
	ld.b [d2,2340],r14
L87:
	.dlab LBE72
	.line 200
	add  sp,#0x870
	pop  rt,d3
	ret
L99:
	.dlab LBB73
	.dlab LBB74
	.stabs	"c:/MoSync/include/MAUtil/Vector.h",132,0,0,Ltext36
Ltext36:
	.line 265
	ld   r1,i0
	add  r1,#0x7c
	.dlab LBB75
	ld   r14,[r1]
	.dlab LBE75
	.dlab LBE74
	ld   r0,[i0,140]
	jc   le,r14,r0,#L87
	.dlab LBB76
	.line 362
	add  r0,#0x1
	ld   [i0,140],r0
	ld   r14,r0
	add  r14,#0xffffffff
	.dlab LBB77
	mul  r14,#0xc
	ld   r1,[r1,8]
	add  r14,r1
	.dlab LBE77
	.dlab LBE76
	ld   [i0,136],r14
	.stabs	"E:\\My Dropbox\\workspace\\GameCards\\BTVouchers\\Login.cpp",132,0,0,Ltext37
Ltext37:
	.line 193
	ld.b r0,[r14,4]
	ld.b [fr,-2164],r0
	ld.b r0,[r14,5]
	ld.b [fr,-2163],r0
	ld.b r0,[r14,6]
	ld.b [fr,-2162],r0
	ld.b r0,[r14,7]
	ld.b [fr,-2161],r0
	ld.b r0,[r14,8]
	ld.b [fr,-2160],r0
	ld.b r14,[r14,9]
	ld.b [fr,-2159],r14
	ld   i0,sp
	ld   i1,#_sUuid
	ld   i2,#0x10
	call &_memcpy ; call non-native
	ld   i0,d2
	ld   i1,[fr,-2164]
	ld.h i2,[fr,-2160]
	and  i2,#0xffff ; zero extend
	call &__ZN5Login7connectE8MABtAddr6MAUUID ; call non-native
	jp   #L87
L89:
	.line 187
	ld   i0,[d2,48]
	call &__ZNK4MAUI7EditBox7getTextEv ; call non-native
	ld   i0,r14
	call &__ZNK6MAUtil11BasicStringIcE5c_strEv ; call non-native
	ld   d0,r14
	ld   i0,[d2,48]
	call &__ZNK4MAUI7EditBox7getTextEv ; call non-native
	ld   i0,r14
	call &__ZNK6MAUtil11BasicStringIcE4sizeEv ; call non-native
	ld   i0,d2
	add  i0,#0x34
	ld   i1,d0
	ld   i2,r14
	call &__ZN6MAUtil10Connection5writeEPKvi ; call non-native
	.dlab LBB78
	.line 188
	ld   d0,d2
	add  d0,#0x90
	ld   d1,fr
	add  d1,#0xfffff794
	ld   i0,d1
	call &__ZN13XmlConnectionC1Ev ; call non-native
	.dlab LBB79
	ld   i0,d2
	add  i0,#0x98
	ld   i1,fr
	add  i1,#0xfffff79c
	ld   i2,#0x3c
	call &_memcpy ; call non-native
	ld   r0,[fr,-2088]
	ld   [d0,68],r0
	ld   r14,[fr,-2084]
	ld   [d0,72],r14
	ld   i0,d2
	add  i0,#0xdc
	ld   i1,fr
	add  i1,#0xfffff7e0
	ld   i2,#0x800
	call &_memcpy ; call non-native
	ld   r0,[fr,-32]
	ld   [d0,2124],r0
	ld   r14,[fr,-28]
	ld   [d0,2128],r14
	.dlab LBE79
	.dlab LBE78
	ld   i0,d1
	call &__ZN13XmlConnectionD1Ev ; call non-native
	.line 189
	ld   r0,[d2,44]
	ld   [sp],r0
	ld   i0,d0
	ld   i1,d3
	ld   i2,d2
	add  i2,#0x14
	ld   i3,d2
	add  i3,#0x18
	call &__ZN13XmlConnection5parseEPN6MAUtil10ConnectionEP10XCListenerPN3Mtx11XmlListenerEPN4MAUI5LabelE ; call non-native
	.dlab LBE73
	.line 200
	add  sp,#0x870
	pop  rt,d3
	ret
	.stabs	"this:r(0,125)",64,0,265,17
	.stabn	192,0,0,LBB74-__ZN5Login15connectFinishedEPN6MAUtil10ConnectionEi
	.stabn	224,0,0,LBE74-__ZN5Login15connectFinishedEPN6MAUtil10ConnectionEi
	.stabs	"this:r(0,127)=k(0,128)=*(0,42)",64,0,188,4
	.stabn	192,0,0,LBB78-__ZN5Login15connectFinishedEPN6MAUtil10ConnectionEi
	.stabn	224,0,0,LBE78-__ZN5Login15connectFinishedEPN6MAUtil10ConnectionEi
Lscope26:
	.set	%6=__ZN5Login17connWriteFinishedEPN6MAUtil10ConnectionEi
	.stabs	"this:P(0,124)",64,0,202,12
	.stabs	"conn:P(0,52)",64,0,202,13
	.stabs	"result:P(0,3)",64,0,202,14
	.global	__ZThn28_N5Login17connWriteFinishedEPN6MAUtil10ConnectionEi

.func __ZThn28_N5Login17connWriteFinishedEPN6MAUtil10ConnectionEi, 3, void
	.stabs	"E:\\My Dropbox\\workspace\\GameCards\\BTVouchers\\/Login.h",132,0,0,Ltext38
Ltext38:
	.line 21
	push rt,fr
	ld   fr,sp
	add  fr,#0x8
	.line 21
	add  i0,#0xffffffe4
	call &%6 ; call non-native
	pop  rt,fr
	ret
Lscope27:
	.stabs	"_ZN5Login17connWriteFinishedEPN6MAUtil10ConnectionEi:F(0,6)",36,0,202,__ZN5Login17connWriteFinishedEPN6MAUtil10ConnectionEi
	.stabs	"this:P(0,124)",64,0,202,12
	.stabs	"conn:P(0,52)",64,0,202,13
	.stabs	"result:P(0,3)",64,0,202,14
	.global	__ZN5Login17connWriteFinishedEPN6MAUtil10ConnectionEi

.func __ZN5Login17connWriteFinishedEPN6MAUtil10ConnectionEi, 3, void
	.stabs	"E:\\My Dropbox\\workspace\\GameCards\\BTVouchers\\Login.cpp",132,0,0,Ltext39
Ltext39:
	.line 202
	push fr,fr
	ld   fr,sp
	add  fr,#0x4
	.line 202
	pop  fr,fr
	ret
Lscope28:
	.set	%7=__ZN5Login16connReadFinishedEPN6MAUtil10ConnectionEi
	.stabs	"this:P(0,124)",64,0,204,12
	.stabs	"conn:P(0,52)",64,0,204,13
	.stabs	"result:P(0,3)",64,0,204,14
	.global	__ZThn28_N5Login16connReadFinishedEPN6MAUtil10ConnectionEi

.func __ZThn28_N5Login16connReadFinishedEPN6MAUtil10ConnectionEi, 3, void
	.stabs	"E:\\My Dropbox\\workspace\\GameCards\\BTVouchers\\/Login.h",132,0,0,Ltext40
Ltext40:
	.line 21
	push rt,fr
	ld   fr,sp
	add  fr,#0x8
	.line 21
	add  i0,#0xffffffe4
	call &%7 ; call non-native
	pop  rt,fr
	ret
Lscope29:
	.stabs	"_ZN5Login16connReadFinishedEPN6MAUtil10ConnectionEi:F(0,6)",36,0,204,__ZN5Login16connReadFinishedEPN6MAUtil10ConnectionEi
	.stabs	"this:P(0,124)",64,0,204,12
	.stabs	"conn:P(0,52)",64,0,204,13
	.stabs	"result:P(0,3)",64,0,204,14
	.global	__ZN5Login16connReadFinishedEPN6MAUtil10ConnectionEi

.func __ZN5Login16connReadFinishedEPN6MAUtil10ConnectionEi, 3, void
	.stabs	"E:\\My Dropbox\\workspace\\GameCards\\BTVouchers\\Login.cpp",132,0,0,Ltext41
Ltext41:
	.line 204
	push fr,fr
	ld   fr,sp
	add  fr,#0x4
	.line 204
	pop  fr,fr
	ret
Lscope30:
	.set	%8=__ZN5Login11xcConnErrorEi
	.stabs	"this:P(0,124)",64,0,206,12
	.stabs	"code:P(0,3)",64,0,206,13
	.global	__ZThn20_N5Login11xcConnErrorEi

.func __ZThn20_N5Login11xcConnErrorEi, 2, void
	.stabs	"E:\\My Dropbox\\workspace\\GameCards\\BTVouchers\\/Login.h",132,0,0,Ltext42
Ltext42:
	.line 21
	push rt,fr
	ld   fr,sp
	add  fr,#0x8
	.line 21
	add  i0,#0xffffffec
	call &%8 ; call non-native
	pop  rt,fr
	ret
Lscope31:
	.stabs	"_ZN5Login11xcConnErrorEi:F(0,6)",36,0,206,__ZN5Login11xcConnErrorEi
	.stabs	"this:P(0,124)",64,0,206,12
	.stabs	"code:P(0,3)",64,0,206,13
	.global	__ZN5Login11xcConnErrorEi

.func __ZN5Login11xcConnErrorEi, 2, void
	.stabs	"E:\\My Dropbox\\workspace\\GameCards\\BTVouchers\\Login.cpp",132,0,0,Ltext43
Ltext43:
	.line 206
	push fr,fr
	ld   fr,sp
	add  fr,#0x4
	.dlab LBB80
	.line 207
	ld   r14,#0x0
	ld.b [i0,2340],r14
	.dlab LBE80
	pop  fr,fr
	ret
Lscope32:
	.set	%9=__ZN5Login11mtxEncodingEPKc
	.stabs	"this:P(0,124)",64,0,210,12
	.global	__ZThn24_N5Login11mtxEncodingEPKc

.func __ZThn24_N5Login11mtxEncodingEPKc, 2, void
	.stabs	"E:\\My Dropbox\\workspace\\GameCards\\BTVouchers\\/Login.h",132,0,0,Ltext44
Ltext44:
	.line 21
	push rt,fr
	ld   fr,sp
	add  fr,#0x8
	.line 21
	add  i0,#0xffffffe8
	call &%9 ; call non-native
	pop  rt,fr
	ret
Lscope33:
	.stabs	"_ZN5Login11mtxEncodingEPKc:F(0,6)",36,0,210,__ZN5Login11mtxEncodingEPKc
	.stabs	"this:P(0,124)",64,0,210,12
	.global	__ZN5Login11mtxEncodingEPKc

.func __ZN5Login11mtxEncodingEPKc, 2, void
	.stabs	"E:\\My Dropbox\\workspace\\GameCards\\BTVouchers\\Login.cpp",132,0,0,Ltext45
Ltext45:
	.line 210
	push fr,fr
	ld   fr,sp
	add  fr,#0x4
	.line 210
	pop  fr,fr
	ret
Lscope34:
	.set	%10=__ZN5Login11mtxTagStartEPKci
	.stabs	"this:P(0,124)",64,0,213,12
	.stabs	"name:P(18,27)",64,0,213,13
	.stabs	"len:P(0,3)",64,0,213,14
	.global	__ZThn24_N5Login11mtxTagStartEPKci

.func __ZThn24_N5Login11mtxTagStartEPKci, 3, void
	.stabs	"E:\\My Dropbox\\workspace\\GameCards\\BTVouchers\\/Login.h",132,0,0,Ltext46
Ltext46:
	.line 21
	push rt,fr
	ld   fr,sp
	add  fr,#0x8
	.line 21
	add  i0,#0xffffffe8
	call &%10 ; call non-native
	pop  rt,fr
	ret
Lscope35:
	.stabs	"_ZN5Login11mtxTagStartEPKci:F(0,6)",36,0,213,__ZN5Login11mtxTagStartEPKci
	.stabs	"this:P(0,124)",64,0,213,5
	.stabs	"name:P(18,27)",64,0,213,13
	.stabs	"len:P(0,3)",64,0,213,14
	.global	__ZN5Login11mtxTagStartEPKci

.func __ZN5Login11mtxTagStartEPKci, 3, void
	.stabs	"E:\\My Dropbox\\workspace\\GameCards\\BTVouchers\\Login.cpp",132,0,0,Ltext47
Ltext47:
	.line 213
	push rt,d1
	sub  sp,#0x4
	ld   fr,sp
	add  fr,#0x14
	ld   d1,i0
	.dlab LBB81
	.line 214
	ld   d0,fr
	add  d0,#0xffffffec
	ld   i0,d0
	call &__ZN6MAUtil11BasicStringIcEC1EPKc ; call non-native
	ld   i0,d1
	add  i0,#0x8e4
	ld   i1,d0
	call &__ZN6MAUtil11BasicStringIcEaSERKS1_ ; call non-native
	ld   i0,d0
	call &__ZN6MAUtil11BasicStringIcED1Ev ; call non-native
	.dlab LBE81
	add  sp,#0x4
	pop  rt,d1
	ret
Lscope36:
	.set	%11=__ZN5Login10mtxTagAttrEPKcS1_
	.stabs	"this:P(0,124)",64,0,217,12
	.stabs	"attrName:P(18,27)",64,0,217,13
	.stabs	"attrValue:P(18,27)",64,0,217,14
	.global	__ZThn24_N5Login10mtxTagAttrEPKcS1_

.func __ZThn24_N5Login10mtxTagAttrEPKcS1_, 3, void
	.stabs	"E:\\My Dropbox\\workspace\\GameCards\\BTVouchers\\/Login.h",132,0,0,Ltext48
Ltext48:
	.line 21
	push rt,fr
	ld   fr,sp
	add  fr,#0x8
	.line 21
	add  i0,#0xffffffe8
	call &%11 ; call non-native
	pop  rt,fr
	ret
Lscope37:
	.stabs	"_ZN5Login10mtxTagAttrEPKcS1_:F(0,6)",36,0,217,__ZN5Login10mtxTagAttrEPKcS1_
	.stabs	"this:P(0,124)",64,0,217,12
	.stabs	"attrName:P(18,27)",64,0,217,13
	.stabs	"attrValue:P(18,27)",64,0,217,14
	.global	__ZN5Login10mtxTagAttrEPKcS1_

.func __ZN5Login10mtxTagAttrEPKcS1_, 3, void
	.stabs	"E:\\My Dropbox\\workspace\\GameCards\\BTVouchers\\Login.cpp",132,0,0,Ltext49
Ltext49:
	.line 217
	push fr,fr
	ld   fr,sp
	add  fr,#0x4
	.line 217
	pop  fr,fr
	ret
Lscope38:
	.set	%12=__ZN5Login10mtxTagDataEPKci
	.stabs	"this:P(0,124)",64,0,220,12
	.stabs	"data:P(18,27)",64,0,220,13
	.stabs	"len:P(0,3)",64,0,220,14
	.global	__ZThn24_N5Login10mtxTagDataEPKci

.func __ZThn24_N5Login10mtxTagDataEPKci, 3, void
	.stabs	"E:\\My Dropbox\\workspace\\GameCards\\BTVouchers\\/Login.h",132,0,0,Ltext50
Ltext50:
	.line 21
	push rt,fr
	ld   fr,sp
	add  fr,#0x8
	.line 21
	add  i0,#0xffffffe8
	call &%12 ; call non-native
	pop  rt,fr
	ret
Lscope39:
	.stabs	"_ZN5Login10mtxTagDataEPKci:F(0,6)",36,0,220,__ZN5Login10mtxTagDataEPKci
	.stabs	"this:P(0,124)",64,0,220,5
	.stabs	"data:P(18,27)",64,0,220,6
	.stabs	"len:P(0,3)",64,0,220,14
	.global	__ZN5Login10mtxTagDataEPKci

.func __ZN5Login10mtxTagDataEPKci, 3, void
	.stabs	"E:\\My Dropbox\\workspace\\GameCards\\BTVouchers\\Login.cpp",132,0,0,Ltext51
Ltext51:
	.line 220
	push rt,d2
	sub  sp,#0x4
	ld   fr,sp
	add  fr,#0x18
	ld   d1,i0
	ld   d2,i1
	.dlab LBB82
	.line 221
	ld   d0,i0
	add  d0,#0x8e4
	ld   i0,d0
	call &__ZNK6MAUtil11BasicStringIcE5c_strEv ; call non-native
	ld   i0,r14
	ld   i1,[&_xml_username]
	call &_strcmp ; call non-native
	ld   r0,#0x0
	jc   ne,r14,r0,#L114
	.line 222
	ld   d0,fr
	add  d0,#0xffffffe8
	ld   i0,d0
	ld   i1,d2
	call &__ZN6MAUtil11BasicStringIcEC1EPKc ; call non-native
	ld   i0,d1
	add  i0,#0x904
L123:
	.line 230
	ld   i1,d0
	call &__ZN6MAUtil11BasicStringIcEaSERKS1_ ; call non-native
	ld   i0,d0
	call &__ZN6MAUtil11BasicStringIcED1Ev ; call non-native
L113:
	.dlab LBE82
	.line 232
	add  sp,#0x4
	pop  rt,d2
	ret
L114:
	.dlab LBB83
	.line 223
	ld   i0,d0
	call &__ZNK6MAUtil11BasicStringIcE5c_strEv ; call non-native
	ld   i0,r14
	ld   i1,[&_xml_credits]
	call &_strcmp ; call non-native
	ld   r0,#0x0
	jc   eq,r14,r0,#L113
	.line 225
	ld   i0,d0
	call &__ZNK6MAUtil11BasicStringIcE5c_strEv ; call non-native
	ld   i0,r14
	ld   i1,[&_xml_email]
	call &_strcmp ; call non-native
	ld   r0,#0x0
	jc   eq,r14,r0,#L113
	.line 227
	ld   i0,d0
	call &__ZNK6MAUtil11BasicStringIcE5c_strEv ; call non-native
	ld   i0,r14
	ld   i1,[&_xml_handle]
	call &_strcmp ; call non-native
	ld   r0,#0x0
	jc   eq,r14,r0,#L113
	.line 229
	ld   i0,d0
	call &__ZNK6MAUtil11BasicStringIcE5c_strEv ; call non-native
	ld   i0,r14
	ld   i1,[&_xml_error]
	call &_strcmp ; call non-native
	ld   r0,#0x0
	jc   ne,r14,r0,#L113
	.line 230
	ld   d0,fr
	add  d0,#0xffffffe8
	ld   i0,d0
	ld   i1,d2
	call &__ZN6MAUtil11BasicStringIcEC1EPKc ; call non-native
	ld   i0,d1
	add  i0,#0x90c
	jp   #L123
	.dlab LBE83
Lscope40:
	.set	%13=__ZN5Login9mtxTagEndEPKci
	.stabs	"this:P(0,124)",64,0,234,12
	.stabs	"name:P(18,27)",64,0,234,13
	.stabs	"len:P(0,3)",64,0,234,14
	.global	__ZThn24_N5Login9mtxTagEndEPKci

.func __ZThn24_N5Login9mtxTagEndEPKci, 3, void
	.stabs	"E:\\My Dropbox\\workspace\\GameCards\\BTVouchers\\/Login.h",132,0,0,Ltext52
Ltext52:
	.line 21
	push rt,fr
	ld   fr,sp
	add  fr,#0x8
	.line 21
	add  i0,#0xffffffe8
	call &%13 ; call non-native
	pop  rt,fr
	ret
Lscope41:
.data
LC18:
	.ascii "\0"
.code
	.stabs	"_ZN5Login9mtxTagEndEPKci:F(0,6)",36,0,234,__ZN5Login9mtxTagEndEPKci
	.stabs	"this:P(0,124)",64,0,234,5
	.stabs	"name:P(18,27)",64,0,234,4
	.stabs	"len:P(0,3)",64,0,234,14
	.global	__ZN5Login9mtxTagEndEPKci

.func __ZN5Login9mtxTagEndEPKci, 3, void
	.stabs	"E:\\My Dropbox\\workspace\\GameCards\\BTVouchers\\Login.cpp",132,0,0,Ltext53
Ltext53:
	.line 234
	push rt,d1
	sub  sp,#0x4
	ld   fr,sp
	add  fr,#0x14
	ld   d1,i0
	ld   d0,i1
	.dlab LBB84
	.line 235
	ld   i0,i1
	ld   i1,[&_xml_status]
	call &_strcmp ; call non-native
	ld   r0,#0x0
	jc   eq,r14,r0,#L133
	.line 243
	ld   i0,d0
	ld   i1,[&_xml_error]
	call &_strcmp ; call non-native
	ld   r0,#0x0
	jc   eq,r14,r0,#L134
	.line 248
	ld.b r0,[d1,2327]
	and  r0,#0xff  ; zero extend
	ld   r14,#0x0
	jc   ne,r0,r14,#L125
	.line 249
	ld   r14,[d1,44]
	jc   eq,r14,r0,#L125
	.line 250
	ld   d0,fr
	add  d0,#0xffffffec
	ld   i0,d0
	ld   i1,#LC18
	jp   #L132
L134:
	.line 244
	ld   r14,#0x1
	ld.b [d1,2327],r14
	.line 245
	ld   d0,d1
	add  d0,#0x90c
	ld   i0,d0
	call &__ZNK6MAUtil11BasicStringIcE5c_strEv ; call non-native
	ld   i0,[d1,2332]
	ld   i1,r14
	call &__ZN4Feed15setUnsuccessfulEPKc ; call non-native
	.line 246
	ld   i0,d0
	call &__ZNK6MAUtil11BasicStringIcE5c_strEv ; call non-native
	ld   d0,fr
	add  d0,#0xffffffec
	ld   i0,d0
	ld   i1,r14
L132:
	.line 250
	call &__ZN6MAUtil11BasicStringIcEC1EPKc ; call non-native
	ld   i0,[d1,44]
	ld   r14,[i0]
	ld   d1,[r14,92]
	ld   i1,d0
	call d1 ; call non-native
	ld   i0,d0
	call &__ZN6MAUtil11BasicStringIcED1Ev ; call non-native
L125:
	.dlab LBE84
	.line 254
	add  sp,#0x4
	pop  rt,d1
	ret
L133:
	.dlab LBB85
	.line 236
	ld   i0,[d1,2332]
	ld   i1,[&_success]
	call &__ZN4Feed15setUnsuccessfulEPKc ; call non-native
	.line 237
	ld   i0,d1
	add  i0,#0x910
	call &__ZNK6MAUtil11BasicStringIcE5c_strEv ; call non-native
	ld   i0,[d1,2332]
	ld   i1,r14
	call &__ZN4Feed8setTouchEPKc ; call non-native
	.line 238
	ld   d0,fr
	add  d0,#0xffffffec
	ld   i0,d0
	ld   i1,#LC18
	call &__ZN6MAUtil11BasicStringIcEC1EPKc ; call non-native
	ld   i0,d1
	add  i0,#0x90c
	ld   i1,d0
	call &__ZN6MAUtil11BasicStringIcEaSERKS1_ ; call non-native
	ld   i0,d0
	call &__ZN6MAUtil11BasicStringIcED1Ev ; call non-native
	.line 239
	ld   i0,d0
	ld   i1,[d1,2332]
	call &__ZN4Feed6getAllEv ; call non-native
	ld   i0,d0
	call &__ZNK6MAUtil11BasicStringIcE5c_strEv ; call non-native
	ld   i0,[&_FEED]
	ld   i1,r14
	call &__Z8saveDataPKcS0_ ; call non-native
	ld   i0,d0
	call &__ZN6MAUtil11BasicStringIcED1Ev ; call non-native
	.line 240
	ld   i0,[&_ALBUM]
	call &__Z7getDataPKc ; call non-native
	ld   i0,[d1,2332]
	ld   i1,r14
	call &__ZN4Feed8setAlbumEPKc ; call non-native
	.line 241
	ld   i0,#0x8d4
	call &__Znwm ; call non-native
	ld   d0,r14
	ld   i0,r14
	ld   i1,[d1,2332]
	call &__ZN15AlbumLoadScreenC1EP4Feed ; call non-native
	ld   [d1,2336],d0
	.line 242
	ld   r14,[d0]
	ld   d1,[r14,28]
	ld   i0,d0
	call d1 ; call non-native
	.dlab LBE85
	.line 254
	add  sp,#0x4
	pop  rt,d1
	ret
Lscope42:
	.set	%14=__ZN5Login13mtxParseErrorEv
	.stabs	"this:P(0,124)",64,0,256,12
	.global	__ZThn24_N5Login13mtxParseErrorEv

.func __ZThn24_N5Login13mtxParseErrorEv, 1, void
	.stabs	"E:\\My Dropbox\\workspace\\GameCards\\BTVouchers\\/Login.h",132,0,0,Ltext54
Ltext54:
	.line 21
	push rt,fr
	ld   fr,sp
	add  fr,#0x8
	.line 21
	add  i0,#0xffffffe8
	call &%14 ; call non-native
	pop  rt,fr
	ret
Lscope43:
	.stabs	"_ZN5Login13mtxParseErrorEv:F(0,6)",36,0,256,__ZN5Login13mtxParseErrorEv
	.stabs	"this:P(0,124)",64,0,256,12
	.global	__ZN5Login13mtxParseErrorEv

.func __ZN5Login13mtxParseErrorEv, 1, void
	.stabs	"E:\\My Dropbox\\workspace\\GameCards\\BTVouchers\\Login.cpp",132,0,0,Ltext55
Ltext55:
	.line 256
	push fr,fr
	ld   fr,sp
	add  fr,#0x4
	.line 256
	pop  fr,fr
	ret
Lscope44:
	.set	%15=__ZN5Login14mtxEmptyTagEndEv
	.stabs	"this:P(0,124)",64,0,259,12
	.global	__ZThn24_N5Login14mtxEmptyTagEndEv

.func __ZThn24_N5Login14mtxEmptyTagEndEv, 1, void
	.stabs	"E:\\My Dropbox\\workspace\\GameCards\\BTVouchers\\/Login.h",132,0,0,Ltext56
Ltext56:
	.line 21
	push rt,fr
	ld   fr,sp
	add  fr,#0x8
	.line 21
	add  i0,#0xffffffe8
	call &%15 ; call non-native
	pop  rt,fr
	ret
Lscope45:
	.stabs	"_ZN5Login14mtxEmptyTagEndEv:F(0,6)",36,0,259,__ZN5Login14mtxEmptyTagEndEv
	.stabs	"this:P(0,124)",64,0,259,12
	.global	__ZN5Login14mtxEmptyTagEndEv

.func __ZN5Login14mtxEmptyTagEndEv, 1, void
	.stabs	"E:\\My Dropbox\\workspace\\GameCards\\BTVouchers\\Login.cpp",132,0,0,Ltext57
Ltext57:
	.line 259
	push fr,fr
	ld   fr,sp
	add  fr,#0x4
	.line 259
	pop  fr,fr
	ret
Lscope46:
	.set	%16=__ZN5Login14mtxTagStartEndEv
	.stabs	"this:P(0,124)",64,0,262,12
	.global	__ZThn24_N5Login14mtxTagStartEndEv

.func __ZThn24_N5Login14mtxTagStartEndEv, 1, void
	.stabs	"E:\\My Dropbox\\workspace\\GameCards\\BTVouchers\\/Login.h",132,0,0,Ltext58
Ltext58:
	.line 21
	push rt,fr
	ld   fr,sp
	add  fr,#0x8
	.line 21
	add  i0,#0xffffffe8
	call &%16 ; call non-native
	pop  rt,fr
	ret
Lscope47:
	.stabs	"_ZN5Login14mtxTagStartEndEv:F(0,6)",36,0,262,__ZN5Login14mtxTagStartEndEv
	.stabs	"this:P(0,124)",64,0,262,12
	.global	__ZN5Login14mtxTagStartEndEv

.func __ZN5Login14mtxTagStartEndEv, 1, void
	.stabs	"E:\\My Dropbox\\workspace\\GameCards\\BTVouchers\\Login.cpp",132,0,0,Ltext59
Ltext59:
	.line 262
	push fr,fr
	ld   fr,sp
	add  fr,#0x4
	.line 262
	pop  fr,fr
	ret
Lscope48:
	.stabs	"_ZN5Login6base64EPKhj:F(9,1)",36,0,265,__ZN5Login6base64EPKhj
	.stabs	"this:P(0,124)",64,0,265,8
	.stabs	"bytes_to_encode:P(0,58)",64,0,265,6
	.stabs	"in_len:P(0,17)",64,0,265,5
	.global	__ZN5Login6base64EPKhj

.func __ZN5Login6base64EPKhj, 4, int
	.line 265
	push rt,d5
	sub  sp,#0xc
	ld   fr,sp
	add  fr,#0x2c
	ld   d5,i0
	ld   d4,i1
	ld   d2,i2
	ld   d1,i3
	.dlab LBB86
	.dlab LBB87
	.line 291
	ld   d0,fr
	add  d0,#0xffffffd4
	ld   i0,d0
	ld   i1,#LC18
	call &__ZN6MAUtil11BasicStringIcEC1EPKc ; call non-native
	ld   d3,d4
	add  d3,#0x8ec
	ld   i0,d3
	ld   i1,d0
	call &__ZN6MAUtil11BasicStringIcEpLERKS1_ ; call non-native
	ld   i0,d0
	call &__ZN6MAUtil11BasicStringIcED1Ev ; call non-native
	.line 292
	ld   d0,#0x0
	.line 303
	add  d1,#0xffffffff
	ld   r0,#0xffffffff
	jc   ne,d1,r0,#L149
	jp   #L150
L142:
	add  d1,#0xffffffff
	ld   r0,#0xffffffff
	jc   eq,d1,r0,#L172
L149:
	.line 294
	ld   r0,#0xffffffe0
	add  r0,fr
	add  r0,d0
	ld.b r14,[d2]
	add  d2,#0x1
	ld.b [r0,-4],r14
	add  d0,#0x1
	.line 295
	ld   r1,#0x3
	jc   ne,d0,r1,#L142
	.line 296
	ld.b r14,[fr,-36]
	and  r14,#0xff  ; zero extend
	ld   r0,r14
	srl  r0,#0x2
	ld.b [fr,-40],r0
	.line 297
	and  r14,r1
	sll  r14,#0x4
	ld.b r0,[fr,-35]
	and  r0,#0xff  ; zero extend
	ld   r1,r0
	srl  r1,#0x4
	add  r14,r1
	ld.b [fr,-39],r14
	.line 298
	and  r0,#0xf
	sll  r0,#0x2
	ld.b r1,[fr,-34]
	ld   r14,r1
	and  r14,#0xc0
	sra  r14,#0x6
	add  r0,r14
	ld.b [fr,-38],r0
	.line 299
	and  r1,#0x3f
	ld.b [fr,-37],r1
	.line 300
	ld   d0,#0x0
L148:
	.line 301
	ld   r14,#0xffffffe0
	add  r14,fr
	add  r14,d0
	ld   i0,#_base64_chars
	ld.b i1,[r14,-8]
	and  i1,#0xff  ; zero extend
	call &__ZNK6MAUtil11BasicStringIcEixEi ; call non-native
	ld   i0,d3
	ld.b i1,[r14]
	call &__ZN6MAUtil11BasicStringIcEpLEc ; call non-native
	.line 300
	add  d0,#0x1
	ld   r14,#0x3
	jc   le,d0,r14,#L148
	.line 303
	ld   d0,#0x0
	add  d1,#0xffffffff
	ld   r0,#0xffffffff
	jc   ne,d1,r0,#L149
L172:
	.line 306
	ld   r1,#0x0
	jc   eq,d0,r1,#L150
	.line 307
	ld   r0,d0
	ld   r14,#0x2
	jc   gt,d0,r14,#L167
L154:
	ld   [d4,2328],r0
	.line 308
	ld   r14,#0xffffffe0
	add  r14,fr
	add  r14,r0
	ld   r1,#0x0
	ld.b [r14,-4],r1
	.line 307
	ld   r14,r0
	add  r14,#0x1
	ld   r0,r14
	ld   r1,#0x2
	jc   le,r14,r1,#L154
L167:
	.line 309
	ld.b r14,[fr,-36]
	and  r14,#0xff  ; zero extend
	ld   r0,r14
	srl  r0,#0x2
	ld.b [fr,-40],r0
	.line 310
	and  r14,#0x3
	sll  r14,#0x4
	ld.b r0,[fr,-35]
	and  r0,#0xff  ; zero extend
	ld   r1,r0
	srl  r1,#0x4
	add  r14,r1
	ld.b [fr,-39],r14
	.line 311
	and  r0,#0xf
	sll  r0,#0x2
	ld.b r1,[fr,-34]
	ld   r14,r1
	and  r14,#0xc0
	sra  r14,#0x6
	add  r0,r14
	ld.b [fr,-38],r0
	.line 312
	and  r1,#0x3f
	ld.b [fr,-37],r1
	.line 314
	ld   r14,#0x0
	ld   [d4,2328],r14
	ld   d1,d0
	add  d1,#0x1
	jc   le,d1,r14,#L169
L173:
	.line 315
	ld   r14,[d4,2328]
	ld   r0,#0xffffffe0
	add  r0,fr
	add  r14,r0
	ld   i0,#_base64_chars
	ld.b i1,[r14,-8]
	and  i1,#0xff  ; zero extend
	call &__ZNK6MAUtil11BasicStringIcEixEi ; call non-native
	ld   i0,d3
	ld.b i1,[r14]
	call &__ZN6MAUtil11BasicStringIcEpLEc ; call non-native
	.line 314
	ld   r14,[d4,2328]
	add  r14,#0x1
	ld   [d4,2328],r14
	jc   gt,d1,r14,#L173
L169:
	.line 318
	ld   r14,d0
	ld   d0,d1
	ld   r1,#0x2
	jc   gt,r14,r1,#L150
L161:
	ld   i0,d3
	ld   i1,#0x3d
	call &__ZN6MAUtil11BasicStringIcEpLEc ; call non-native
	ld   r14,d0
	add  d0,#0x1
	ld   r0,#0x2
	jc   le,r14,r0,#L161
L150:
	.line 320
	ld   i0,d5
	ld   i1,d3
	call &__ZN6MAUtil11BasicStringIcEC1ERKS1_ ; call non-native
	.dlab LBE87
	.dlab LBE86
	.line 321
	ld   r14,d5
	add  sp,#0xc
	pop  rt,d5
	ret
	.stabs	"char_array_3:(0,129)=ar(3,53);0;2;(0,10)",128,0,288,-36
	.stabs	"char_array_4:(0,130)=ar(3,53);0;3;(0,10)",128,0,289,-40
	.stabs	"i:r(0,3)",64,0,292,4
	.stabn	192,0,0,LBB87-__ZN5Login6base64EPKhj
	.stabn	224,0,0,LBE87-__ZN5Login6base64EPKhj
Lscope49:
	.set	%17=__ZN5LoginD0Ev
	.stabs	"this:P(0,124)",64,0,42,12
	.global	__ZThn4_N5LoginD0Ev

.func __ZThn4_N5LoginD0Ev, 1, void
	.stabs	"E:\\My Dropbox\\workspace\\GameCards\\BTVouchers\\/Login.h",132,0,0,Ltext60
Ltext60:
	.line 21
	push rt,fr
	ld   fr,sp
	add  fr,#0x8
	.line 21
	add  i0,#0xfffffffc
	call &%17 ; call non-native
	pop  rt,fr
	ret
Lscope50:
	.stabs	"_ZN5LoginD0Ev:F(0,6)",36,0,42,__ZN5LoginD0Ev
	.stabs	"this:P(0,124)",64,0,42,5
	.global	__ZN5LoginD0Ev

.func __ZN5LoginD0Ev, 1, void
	.stabs	"E:\\My Dropbox\\workspace\\GameCards\\BTVouchers\\Login.cpp",132,0,0,Ltext61
Ltext61:
	.line 42
	push rt,d2
	ld   fr,sp
	add  fr,#0x14
	ld   d1,i0
	.dlab LBB88
	.line 42
	ld   r14,#__ZTV5Login+8
	ld   [i0],r14
	ld   r14,#__ZTV5Login+124
	ld   [i0,4],r14
	ld   r14,#__ZTV5Login+164
	ld   [i0,12],r14
	ld   r14,#__ZTV5Login+188
	ld   [i0,16],r14
	ld   r14,#__ZTV5Login+204
	ld   [i0,20],r14
	ld   r14,#__ZTV5Login+216
	ld   [i0,24],r14
	ld   r14,#__ZTV5Login+260
	ld   [i0,28],r14
	add  i0,#0x910
	call &__ZN6MAUtil11BasicStringIcED1Ev ; call non-native
	ld   i0,d1
	add  i0,#0x90c
	call &__ZN6MAUtil11BasicStringIcED1Ev ; call non-native
	ld   i0,d1
	add  i0,#0x908
	call &__ZN6MAUtil11BasicStringIcED1Ev ; call non-native
	ld   i0,d1
	add  i0,#0x904
	call &__ZN6MAUtil11BasicStringIcED1Ev ; call non-native
	ld   i0,d1
	add  i0,#0x900
	call &__ZN6MAUtil11BasicStringIcED1Ev ; call non-native
	ld   i0,d1
	add  i0,#0x8fc
	call &__ZN6MAUtil11BasicStringIcED1Ev ; call non-native
	ld   i0,d1
	add  i0,#0x8f8
	call &__ZN6MAUtil11BasicStringIcED1Ev ; call non-native
	ld   i0,d1
	add  i0,#0x8f4
	call &__ZN6MAUtil11BasicStringIcED1Ev ; call non-native
	ld   i0,d1
	add  i0,#0x8f0
	call &__ZN6MAUtil11BasicStringIcED1Ev ; call non-native
	ld   i0,d1
	add  i0,#0x8ec
	call &__ZN6MAUtil11BasicStringIcED1Ev ; call non-native
	ld   i0,d1
	add  i0,#0x8e8
	call &__ZN6MAUtil11BasicStringIcED1Ev ; call non-native
	ld   i0,d1
	add  i0,#0x8e4
	call &__ZN6MAUtil11BasicStringIcED1Ev ; call non-native
	ld   i0,d1
	add  i0,#0x90
	call &__ZN13XmlConnectionD1Ev ; call non-native
	.dlab LBB89
	.stabs	"c:/MoSync/include/MAUtil/Vector.h",132,0,0,Ltext62
Ltext62:
	.line 142
	ld   d2,d1
	add  d2,#0x7c
	.dlab LBB90
	.line 143
	ld   i0,[d2,8]
	ld   r14,#0x0
	jc   eq,i0,r14,#L186
	ld   d0,[i0,-4]
	mul  d0,#0xc
	add  d0,i0
	jc   eq,i0,d0,#L181
L189:
	add  d0,#0xfffffff4
	.dlab LBB91
	.dlab LBB92
	ld   i0,d0
	call &__ZN6MAUtil11BasicStringIcED1Ev ; call non-native
	ld   i0,[d2,8]
	.dlab LBE92
	.dlab LBE91
	jc   ne,i0,d0,#L189
L181:
	add  i0,#0xfffffffc
	call &__ZdaPv ; call non-native
L186:
	.dlab LBE90
	.dlab LBE89
	ld   i0,d1
	add  i0,#0x34
	call &__ZN6MAUtil19BluetoothConnectionD1Ev ; call non-native
	ld   i0,d1
	call &__ZN4MAUI6ScreenD2Ev ; call non-native
	.dlab LBE88
	.stabs	"E:\\My Dropbox\\workspace\\GameCards\\BTVouchers\\Login.cpp",132,0,0,Ltext63
Ltext63:
	.line 42
	ld   i0,d1
	call &__ZdlPv ; call non-native
	pop  rt,d2
	ret
	.stabs	"this:r(0,131)=k(5,3)",64,0,142,6
	.stabn	192,0,0,LBB89-__ZN5LoginD0Ev
	.stabn	224,0,0,LBE89-__ZN5LoginD0Ev
Lscope51:
	.set	%18=__ZN5LoginD1Ev
	.stabs	"this:P(0,124)",64,0,42,12
	.global	__ZThn4_N5LoginD1Ev

.func __ZThn4_N5LoginD1Ev, 1, void
	.stabs	"E:\\My Dropbox\\workspace\\GameCards\\BTVouchers\\/Login.h",132,0,0,Ltext64
Ltext64:
	.line 21
	push rt,fr
	ld   fr,sp
	add  fr,#0x8
	.line 21
	add  i0,#0xfffffffc
	call &%18 ; call non-native
	pop  rt,fr
	ret
Lscope52:
	.stabs	"_ZN5LoginD1Ev:F(0,6)",36,0,42,__ZN5LoginD1Ev
	.stabs	"this:P(0,124)",64,0,42,5
	.global	__ZN5LoginD1Ev

.func __ZN5LoginD1Ev, 1, void
	.stabs	"E:\\My Dropbox\\workspace\\GameCards\\BTVouchers\\Login.cpp",132,0,0,Ltext65
Ltext65:
	.line 42
	push rt,d2
	ld   fr,sp
	add  fr,#0x14
	ld   d1,i0
	.dlab LBB93
	.line 42
	ld   r14,#__ZTV5Login+8
	ld   [i0],r14
	ld   r14,#__ZTV5Login+124
	ld   [i0,4],r14
	ld   r14,#__ZTV5Login+164
	ld   [i0,12],r14
	ld   r14,#__ZTV5Login+188
	ld   [i0,16],r14
	ld   r14,#__ZTV5Login+204
	ld   [i0,20],r14
	ld   r14,#__ZTV5Login+216
	ld   [i0,24],r14
	ld   r14,#__ZTV5Login+260
	ld   [i0,28],r14
	add  i0,#0x910
	call &__ZN6MAUtil11BasicStringIcED1Ev ; call non-native
	ld   i0,d1
	add  i0,#0x90c
	call &__ZN6MAUtil11BasicStringIcED1Ev ; call non-native
	ld   i0,d1
	add  i0,#0x908
	call &__ZN6MAUtil11BasicStringIcED1Ev ; call non-native
	ld   i0,d1
	add  i0,#0x904
	call &__ZN6MAUtil11BasicStringIcED1Ev ; call non-native
	ld   i0,d1
	add  i0,#0x900
	call &__ZN6MAUtil11BasicStringIcED1Ev ; call non-native
	ld   i0,d1
	add  i0,#0x8fc
	call &__ZN6MAUtil11BasicStringIcED1Ev ; call non-native
	ld   i0,d1
	add  i0,#0x8f8
	call &__ZN6MAUtil11BasicStringIcED1Ev ; call non-native
	ld   i0,d1
	add  i0,#0x8f4
	call &__ZN6MAUtil11BasicStringIcED1Ev ; call non-native
	ld   i0,d1
	add  i0,#0x8f0
	call &__ZN6MAUtil11BasicStringIcED1Ev ; call non-native
	ld   i0,d1
	add  i0,#0x8ec
	call &__ZN6MAUtil11BasicStringIcED1Ev ; call non-native
	ld   i0,d1
	add  i0,#0x8e8
	call &__ZN6MAUtil11BasicStringIcED1Ev ; call non-native
	ld   i0,d1
	add  i0,#0x8e4
	call &__ZN6MAUtil11BasicStringIcED1Ev ; call non-native
	ld   i0,d1
	add  i0,#0x90
	call &__ZN13XmlConnectionD1Ev ; call non-native
	.dlab LBB94
	.stabs	"c:/MoSync/include/MAUtil/Vector.h",132,0,0,Ltext66
Ltext66:
	.line 142
	ld   d2,d1
	add  d2,#0x7c
	.dlab LBB95
	.line 143
	ld   i0,[d2,8]
	ld   r14,#0x0
	jc   eq,i0,r14,#L202
	ld   d0,[i0,-4]
	mul  d0,#0xc
	add  d0,i0
	jc   eq,i0,d0,#L197
L205:
	add  d0,#0xfffffff4
	.dlab LBB96
	.dlab LBB97
	ld   i0,d0
	call &__ZN6MAUtil11BasicStringIcED1Ev ; call non-native
	ld   i0,[d2,8]
	.dlab LBE97
	.dlab LBE96
	jc   ne,i0,d0,#L205
L197:
	add  i0,#0xfffffffc
	call &__ZdaPv ; call non-native
L202:
	.dlab LBE95
	.dlab LBE94
	ld   i0,d1
	add  i0,#0x34
	call &__ZN6MAUtil19BluetoothConnectionD1Ev ; call non-native
	ld   i0,d1
	call &__ZN4MAUI6ScreenD2Ev ; call non-native
	.dlab LBE93
	.stabs	"E:\\My Dropbox\\workspace\\GameCards\\BTVouchers\\Login.cpp",132,0,0,Ltext67
Ltext67:
	.line 42
	pop  rt,d2
	ret
	.stabs	"this:r(0,131)",64,0,142,6
	.stabn	192,0,0,LBB94-__ZN5LoginD1Ev
	.stabn	224,0,0,LBE94-__ZN5LoginD1Ev
Lscope53:
	.stabs	"_ZN5LoginD2Ev:F(0,6)",36,0,42,__ZN5LoginD2Ev
	.stabs	"this:P(0,124)",64,0,42,5
	.global	__ZN5LoginD2Ev

.func __ZN5LoginD2Ev, 1, void
	.line 42
	push rt,d2
	ld   fr,sp
	add  fr,#0x14
	ld   d1,i0
	.dlab LBB98
	.line 42
	ld   r14,#__ZTV5Login+8
	ld   [i0],r14
	ld   r14,#__ZTV5Login+124
	ld   [i0,4],r14
	ld   r14,#__ZTV5Login+164
	ld   [i0,12],r14
	ld   r14,#__ZTV5Login+188
	ld   [i0,16],r14
	ld   r14,#__ZTV5Login+204
	ld   [i0,20],r14
	ld   r14,#__ZTV5Login+216
	ld   [i0,24],r14
	ld   r14,#__ZTV5Login+260
	ld   [i0,28],r14
	add  i0,#0x910
	call &__ZN6MAUtil11BasicStringIcED1Ev ; call non-native
	ld   i0,d1
	add  i0,#0x90c
	call &__ZN6MAUtil11BasicStringIcED1Ev ; call non-native
	ld   i0,d1
	add  i0,#0x908
	call &__ZN6MAUtil11BasicStringIcED1Ev ; call non-native
	ld   i0,d1
	add  i0,#0x904
	call &__ZN6MAUtil11BasicStringIcED1Ev ; call non-native
	ld   i0,d1
	add  i0,#0x900
	call &__ZN6MAUtil11BasicStringIcED1Ev ; call non-native
	ld   i0,d1
	add  i0,#0x8fc
	call &__ZN6MAUtil11BasicStringIcED1Ev ; call non-native
	ld   i0,d1
	add  i0,#0x8f8
	call &__ZN6MAUtil11BasicStringIcED1Ev ; call non-native
	ld   i0,d1
	add  i0,#0x8f4
	call &__ZN6MAUtil11BasicStringIcED1Ev ; call non-native
	ld   i0,d1
	add  i0,#0x8f0
	call &__ZN6MAUtil11BasicStringIcED1Ev ; call non-native
	ld   i0,d1
	add  i0,#0x8ec
	call &__ZN6MAUtil11BasicStringIcED1Ev ; call non-native
	ld   i0,d1
	add  i0,#0x8e8
	call &__ZN6MAUtil11BasicStringIcED1Ev ; call non-native
	ld   i0,d1
	add  i0,#0x8e4
	call &__ZN6MAUtil11BasicStringIcED1Ev ; call non-native
	ld   i0,d1
	add  i0,#0x90
	call &__ZN13XmlConnectionD1Ev ; call non-native
	.dlab LBB99
	.stabs	"c:/MoSync/include/MAUtil/Vector.h",132,0,0,Ltext68
Ltext68:
	.line 142
	ld   d2,d1
	add  d2,#0x7c
	.dlab LBB100
	.line 143
	ld   i0,[d2,8]
	ld   r14,#0x0
	jc   eq,i0,r14,#L217
	ld   d0,[i0,-4]
	mul  d0,#0xc
	add  d0,i0
	jc   eq,i0,d0,#L212
L220:
	add  d0,#0xfffffff4
	.dlab LBB101
	.dlab LBB102
	ld   i0,d0
	call &__ZN6MAUtil11BasicStringIcED1Ev ; call non-native
	ld   i0,[d2,8]
	.dlab LBE102
	.dlab LBE101
	jc   ne,i0,d0,#L220
L212:
	add  i0,#0xfffffffc
	call &__ZdaPv ; call non-native
L217:
	.dlab LBE100
	.dlab LBE99
	ld   i0,d1
	add  i0,#0x34
	call &__ZN6MAUtil19BluetoothConnectionD1Ev ; call non-native
	ld   i0,d1
	call &__ZN4MAUI6ScreenD2Ev ; call non-native
	.dlab LBE98
	.stabs	"E:\\My Dropbox\\workspace\\GameCards\\BTVouchers\\Login.cpp",132,0,0,Ltext69
Ltext69:
	.line 42
	pop  rt,d2
	ret
	.stabs	"this:r(0,131)",64,0,142,6
	.stabn	192,0,0,LBB99-__ZN5LoginD2Ev
	.stabn	224,0,0,LBE99-__ZN5LoginD2Ev
Lscope54:
	.stabs	"_ZN5LoginC1EP4Feed:F(0,6)",36,0,12,__ZN5LoginC1EP4Feed
	.stabs	"this:P(0,124)",64,0,12,7
	.stabs	"feed:P(27,3)",64,0,12,9
	.global	__ZN5LoginC1EP4Feed

.func __ZN5LoginC1EP4Feed, 2, void
	.line 12
	push rt,d7
	sub  sp,#0x30
	ld   fr,sp
	add  fr,#0x58
	ld   d3,i0
	ld   d5,i1
	.dlab LBB103
	.line 12
	call &__ZN4MAUI6ScreenC2Ev ; call non-native
	.dlab LBB104
	ld   d6,d3
	add  d6,#0xc
	.dlab LBE104
	.dlab LBB105
	ld   i1,d3
	add  i1,#0x1c
	.dlab LBE105
	ld   r0,#__ZTV5Login+8
	ld   [d3],r0
	ld   r14,#__ZTV5Login+124
	ld   [d3,4],r14
	ld   r0,#__ZTV5Login+164
	ld   [d6],r0
	ld   r14,#__ZTV5Login+188
	ld   [d3,16],r14
	ld   r0,#__ZTV5Login+204
	ld   [d3,20],r0
	ld   r14,#__ZTV5Login+216
	ld   [d3,24],r14
	ld   r0,#__ZTV5Login+260
	ld   [i1],r0
	ld   i0,d3
	add  i0,#0x34
	call &__ZN6MAUtil19BluetoothConnectionC1EPNS_18ConnectionListenerE ; call non-native
	.dlab LBB106
	.stabs	"c:/MoSync/include/MAUtil/Vector.h",132,0,0,Ltext70
Ltext70:
	.line 104
	ld   d2,d3
	add  d2,#0x7c
	.dlab LBB107
	.line 109
	ld   i0,#0x34
	call &__Znam ; call non-native
	ld   d4,r14
	add  d4,#0x4
	ld   r0,#0x4
	ld   [r14],r0
	ld   d0,d4
	ld   d1,#0x3
L232:
	.dlab LBB108
	.dlab LBB109
	ld   i0,d0
	call &__ZN6MAUtil11BasicStringIcEC1Ev ; call non-native
	.dlab LBE109
	.dlab LBE108
	add  d0,#0xc
	add  d1,#0xffffffff
	ld   r14,#0xffffffff
	jc   ne,d1,r14,#L232
	ld   [d2,8],d4
	.line 111
	ld   r0,#0x4
	ld   [d2,4],r0
	.line 113
	ld   r14,#0x0
	ld   [d2],r14
	.dlab LBE107
	.dlab LBE106
	.stabs	"E:\\My Dropbox\\workspace\\GameCards\\BTVouchers\\Login.cpp",132,0,0,Ltext71
Ltext71:
	.line 12
	ld   i0,d3
	add  i0,#0x90
	call &__ZN13XmlConnectionC1Ev ; call non-native
	ld   i0,d3
	add  i0,#0x8e4
	call &__ZN6MAUtil11BasicStringIcEC1Ev ; call non-native
	ld   i0,d3
	add  i0,#0x8e8
	call &__ZN6MAUtil11BasicStringIcEC1Ev ; call non-native
	ld   i0,d3
	add  i0,#0x8ec
	call &__ZN6MAUtil11BasicStringIcEC1Ev ; call non-native
	ld   i0,d3
	add  i0,#0x8f0
	call &__ZN6MAUtil11BasicStringIcEC1Ev ; call non-native
	ld   i0,d3
	add  i0,#0x8f4
	call &__ZN6MAUtil11BasicStringIcEC1Ev ; call non-native
	ld   i0,d3
	add  i0,#0x8f8
	call &__ZN6MAUtil11BasicStringIcEC1Ev ; call non-native
	ld   i0,d3
	add  i0,#0x8fc
	call &__ZN6MAUtil11BasicStringIcEC1Ev ; call non-native
	ld   i0,d3
	add  i0,#0x900
	call &__ZN6MAUtil11BasicStringIcEC1Ev ; call non-native
	ld   i0,d3
	add  i0,#0x904
	call &__ZN6MAUtil11BasicStringIcEC1Ev ; call non-native
	ld   i0,d3
	add  i0,#0x908
	call &__ZN6MAUtil11BasicStringIcEC1Ev ; call non-native
	ld   i0,d3
	add  i0,#0x90c
	call &__ZN6MAUtil11BasicStringIcEC1Ev ; call non-native
	ld   d7,d3
	add  d7,#0x910
	ld   i0,d7
	call &__ZN6MAUtil11BasicStringIcEC1Ev ; call non-native
	ld   [d3,2332],d5
	.line 13
	ld   r0,#0x0
	ld.b [d3,2340],r0
	.line 14
	ld   i0,[&_exit]
	ld   i1,[&_login]
	ld   i2,r0
	call &__Z16createMainLayoutPKcS0_b ; call non-native
	ld   [d3,36],r14
	.line 16
	ld   i0,r14
	ld   i1,#0x1
	call &__ZN4MAUI6Widget17setDrawBackgroundEb ; call non-native
	.dlab LBB110
	.dlab LBB111
	.stabs	"c:/MoSync/include/MAUtil/Vector.h",132,0,0,Ltext72
Ltext72:
	.line 362
	ld   i0,[d3,36]
	call &__ZN4MAUI6Widget11getChildrenEv ; call non-native
	.dlab LBB112
	ld   r14,[r14,8]
	.dlab LBE112
	.dlab LBE111
	ld   i0,[r14]
	call &__ZN4MAUI6Widget11getChildrenEv ; call non-native
	.dlab LBB113
	ld   r14,[r14,8]
	add  r14,#0x8
	.dlab LBE113
	.dlab LBE110
	ld   r14,[r14]
	ld   [d3,40],r14
	.stabs	"E:\\My Dropbox\\workspace\\GameCards\\BTVouchers\\Login.cpp",132,0,0,Ltext73
Ltext73:
	.line 19
	ld   d4,fr
	add  d4,#0xffffffd4
	ld   i0,d4
	ld   i1,[&_userlbl]
	call &__ZN6MAUtil11BasicStringIcEC1EPKc ; call non-native
	ld   i0,#0x9c
	call &__Znwm ; call non-native
	ld   d0,r14
	ld   i3,[&_scrWidth]
	add  i3,#0xfffffff6
	ld   r14,#0x18
	ld   [sp],r14
	ld   r0,#0x0
	ld   [sp,4],r0
	ld   [sp,8],d4
	ld   [sp,12],r0
	ld   r14,[&_gFontWhite]
	ld   [sp,16],r14
	ld   i0,d0
	ld   i1,r0
	ld   i2,r0
	call &__ZN4MAUI5LabelC1EiiiiPNS_6WidgetERKN6MAUtil11BasicStringIcEEiPNS_4FontE ; call non-native
	ld   [d3,44],d0
	ld   i0,d4
	call &__ZN6MAUtil11BasicStringIcED1Ev ; call non-native
	.line 20
	ld   i0,[d3,40]
	ld   r14,[i0]
	ld   d0,[r14]
	ld   i1,[d3,44]
	call d0 ; call non-native
	.line 22
	ld   i0,d4
	ld   i1,#LC18
	call &__ZN6MAUtil11BasicStringIcEC1EPKc ; call non-native
	ld   i0,d4
	ld   i1,#0x30
	call &__Z15createEditLabelN6MAUtil11BasicStringIcEEi ; call non-native
	ld   [d3,44],r14
	ld   i0,d4
	call &__ZN6MAUtil11BasicStringIcED1Ev ; call non-native
	.line 23
	ld   i0,[d3,44]
	call &__ZNK4MAUI6Widget8getWidthEv ; call non-native
	ld   d2,r14
	add  d2,#0xfffffff6
	ld   i0,[d3,44]
	call &__ZNK4MAUI6Widget9getHeightEv ; call non-native
	ld   d0,r14
	add  d0,#0xfffffff6
	ld   i0,d4
	ld   i1,#LC18
	call &__ZN6MAUtil11BasicStringIcEC1EPKc ; call non-native
	ld   i0,#0xd4
	call &__Znwm ; call non-native
	ld   d1,r14
	ld   [sp],d0
	ld   r0,[d3,44]
	ld   [sp,4],r0
	ld   [sp,8],d4
	ld   r14,#0x0
	ld   [sp,12],r14
	ld   r0,[&_gFontBlue]
	ld   [sp,16],r0
	ld   r14,#0x1
	ld.b [sp,20],r14
	ld   r0,#0x0
	ld.b [sp,24],r0
	ld   r14,#0x40
	ld   [sp,28],r14
	ld   r0,#0x1
	ld   [sp,32],r0
	ld   i0,d1
	ld   i1,#0x0
	ld   i2,#0xc
	ld   i3,d2
	call &__ZN4MAUI7EditBoxC1EiiiiPNS_6WidgetERKN6MAUtil11BasicStringIcEEiPNS_4FontEbbiNS0_9InputModeE ; call non-native
	ld   [d3,48],d1
	ld   i0,d4
	call &__ZN6MAUtil11BasicStringIcED1Ev ; call non-native
	.line 24
	ld   i0,[d3,48]
	ld   i1,#0x0
	call &__ZN4MAUI7EditBox12setInputModeENS0_9InputModeE ; call non-native
	.line 25
	ld   i0,[d3,48]
	ld   i1,#0x0
	call &__ZN4MAUI6Widget17setDrawBackgroundEb ; call non-native
	.line 26
	ld   i0,[d3,44]
	ld   i1,d6
	call &__ZN4MAUI6Widget17addWidgetListenerEPNS_14WidgetListenerE ; call non-native
	.line 27
	ld   i0,[d3,40]
	ld   r14,[i0]
	ld   d0,[r14]
	ld   i1,[d3,44]
	call d0 ; call non-native
	.line 29
	ld   i0,d4
	ld   i1,#LC18
	call &__ZN6MAUtil11BasicStringIcEC1EPKc ; call non-native
	ld   i0,#0x9c
	call &__Znwm ; call non-native
	ld   d0,r14
	ld   i3,[&_scrWidth]
	ld   r14,[&_scrHeight]
	ld   r0,#0x0
	jc   lt,r14,r0,#L241
L236:
	sra  r14,#0x3
	ld   [sp],r14
	ld   r14,#0x0
	ld   [sp,4],r14
	ld   [sp,8],d4
	ld   [sp,12],r14
	ld   r0,[&_gFontWhite]
	ld   [sp,16],r0
	ld   i0,d0
	ld   i1,r14
	ld   i2,r14
	call &__ZN4MAUI5LabelC1EiiiiPNS_6WidgetERKN6MAUtil11BasicStringIcEEiPNS_4FontE ; call non-native
	ld   [d3,44],d0
	ld   i0,d4
	call &__ZN6MAUtil11BasicStringIcED1Ev ; call non-native
	.line 30
	ld   i0,[d3,44]
	ld   i1,#0x1
	call &__ZN4MAUI5Label12setMultiLineEb ; call non-native
	.line 31
	ld   i0,[d3,40]
	ld   r14,[i0]
	ld   d0,[r14]
	ld   i1,[d3,44]
	call d0 ; call non-native
	.line 33
	ld   i0,[d3,40]
	ld   i1,#0x1
	call &__ZN4MAUI7ListBox16setSelectedIndexEi ; call non-native
	.line 35
	ld   i0,d4
	ld   i1,d5
	call &__ZN4Feed15getUnsuccessfulEv ; call non-native
	ld   d1,fr
	add  d1,#0xffffffd0
	ld   i0,d1
	ld   i1,[&_success]
	call &__ZN6MAUtil11BasicStringIcEC1EPKc ; call non-native
	ld   i0,d4
	ld   i1,d1
	call &__ZNK6MAUtil11BasicStringIcEneERKS1_ ; call non-native
	ld   d0,r14
	ld   i0,d1
	call &__ZN6MAUtil11BasicStringIcED1Ev ; call non-native
	ld   i0,d4
	call &__ZN6MAUtil11BasicStringIcED1Ev ; call non-native
	and  d0,#0xff  ; zero extend
	add  d1,#0xfffffffc
	ld   r14,#0x0
	jc   ne,d0,r14,#L242
	.line 38
	ld   i0,d1
	ld   i1,[&_falsesz]
	call &__ZN6MAUtil11BasicStringIcEC1EPKc ; call non-native
	ld   i0,d7
	ld   i1,d1
	call &__ZN6MAUtil11BasicStringIcEaSERKS1_ ; call non-native
	ld   i0,d1
	call &__ZN6MAUtil11BasicStringIcED1Ev ; call non-native
	.line 39
	ld   i0,d3
	ld   i1,[d3,36]
	call &__ZN4MAUI6Screen7setMainEPNS_6WidgetE ; call non-native
	.dlab LBE103
	add  sp,#0x30
	pop  rt,d7
	ret
L242:
	.dlab LBB114
	.line 36
	ld   i0,d1
	ld   i1,d5
	call &__ZN4Feed15getUnsuccessfulEv ; call non-native
	ld   i0,[d3,44]
	ld   r14,[i0]
	ld   d0,[r14,92]
	ld   i1,d1
	call d0 ; call non-native
	ld   i0,d1
	call &__ZN6MAUtil11BasicStringIcED1Ev ; call non-native
	.line 38
	ld   i0,d1
	ld   i1,[&_falsesz]
	call &__ZN6MAUtil11BasicStringIcEC1EPKc ; call non-native
	ld   i0,d7
	ld   i1,d1
	call &__ZN6MAUtil11BasicStringIcEaSERKS1_ ; call non-native
	ld   i0,d1
	call &__ZN6MAUtil11BasicStringIcED1Ev ; call non-native
	.line 39
	ld   i0,d3
	ld   i1,[d3,36]
	call &__ZN4MAUI6Screen7setMainEPNS_6WidgetE ; call non-native
	.dlab LBE114
	add  sp,#0x30
	pop  rt,d7
	ret
L241:
	.dlab LBB115
	.line 29
	add  r14,#0x7
	jp   #L236
	.dlab LBE115
	.stabs	"this:r(0,132)=k(0,133)=*(0,29)",64,0,12,13
	.stabn	192,0,0,LBB105-__ZN5LoginC1EP4Feed
	.stabn	224,0,0,LBE105-__ZN5LoginC1EP4Feed
	.stabs	"this:r(0,131)",64,0,104,6
	.stabn	192,0,0,LBB106-__ZN5LoginC1EP4Feed
	.stabn	224,0,0,LBE106-__ZN5LoginC1EP4Feed
Lscope55:
	.stabs	"_ZN5LoginC2EP4Feed:F(0,6)",36,0,12,__ZN5LoginC2EP4Feed
	.stabs	"this:P(0,124)",64,0,12,7
	.stabs	"feed:P(27,3)",64,0,12,9
	.global	__ZN5LoginC2EP4Feed

.func __ZN5LoginC2EP4Feed, 2, void
	.line 12
	push rt,d7
	sub  sp,#0x30
	ld   fr,sp
	add  fr,#0x58
	ld   d3,i0
	ld   d5,i1
	.dlab LBB116
	.line 12
	call &__ZN4MAUI6ScreenC2Ev ; call non-native
	.dlab LBB117
	ld   d6,d3
	add  d6,#0xc
	.dlab LBE117
	.dlab LBB118
	ld   i1,d3
	add  i1,#0x1c
	.dlab LBE118
	ld   r0,#__ZTV5Login+8
	ld   [d3],r0
	ld   r14,#__ZTV5Login+124
	ld   [d3,4],r14
	ld   r0,#__ZTV5Login+164
	ld   [d6],r0
	ld   r14,#__ZTV5Login+188
	ld   [d3,16],r14
	ld   r0,#__ZTV5Login+204
	ld   [d3,20],r0
	ld   r14,#__ZTV5Login+216
	ld   [d3,24],r14
	ld   r0,#__ZTV5Login+260
	ld   [i1],r0
	ld   i0,d3
	add  i0,#0x34
	call &__ZN6MAUtil19BluetoothConnectionC1EPNS_18ConnectionListenerE ; call non-native
	.dlab LBB119
	.stabs	"c:/MoSync/include/MAUtil/Vector.h",132,0,0,Ltext74
Ltext74:
	.line 104
	ld   d2,d3
	add  d2,#0x7c
	.dlab LBB120
	.line 109
	ld   i0,#0x34
	call &__Znam ; call non-native
	ld   d4,r14
	add  d4,#0x4
	ld   r0,#0x4
	ld   [r14],r0
	ld   d0,d4
	ld   d1,#0x3
L254:
	.dlab LBB121
	.dlab LBB122
	ld   i0,d0
	call &__ZN6MAUtil11BasicStringIcEC1Ev ; call non-native
	.dlab LBE122
	.dlab LBE121
	add  d0,#0xc
	add  d1,#0xffffffff
	ld   r14,#0xffffffff
	jc   ne,d1,r14,#L254
	ld   [d2,8],d4
	.line 111
	ld   r0,#0x4
	ld   [d2,4],r0
	.line 113
	ld   r14,#0x0
	ld   [d2],r14
	.dlab LBE120
	.dlab LBE119
	.stabs	"E:\\My Dropbox\\workspace\\GameCards\\BTVouchers\\Login.cpp",132,0,0,Ltext75
Ltext75:
	.line 12
	ld   i0,d3
	add  i0,#0x90
	call &__ZN13XmlConnectionC1Ev ; call non-native
	ld   i0,d3
	add  i0,#0x8e4
	call &__ZN6MAUtil11BasicStringIcEC1Ev ; call non-native
	ld   i0,d3
	add  i0,#0x8e8
	call &__ZN6MAUtil11BasicStringIcEC1Ev ; call non-native
	ld   i0,d3
	add  i0,#0x8ec
	call &__ZN6MAUtil11BasicStringIcEC1Ev ; call non-native
	ld   i0,d3
	add  i0,#0x8f0
	call &__ZN6MAUtil11BasicStringIcEC1Ev ; call non-native
	ld   i0,d3
	add  i0,#0x8f4
	call &__ZN6MAUtil11BasicStringIcEC1Ev ; call non-native
	ld   i0,d3
	add  i0,#0x8f8
	call &__ZN6MAUtil11BasicStringIcEC1Ev ; call non-native
	ld   i0,d3
	add  i0,#0x8fc
	call &__ZN6MAUtil11BasicStringIcEC1Ev ; call non-native
	ld   i0,d3
	add  i0,#0x900
	call &__ZN6MAUtil11BasicStringIcEC1Ev ; call non-native
	ld   i0,d3
	add  i0,#0x904
	call &__ZN6MAUtil11BasicStringIcEC1Ev ; call non-native
	ld   i0,d3
	add  i0,#0x908
	call &__ZN6MAUtil11BasicStringIcEC1Ev ; call non-native
	ld   i0,d3
	add  i0,#0x90c
	call &__ZN6MAUtil11BasicStringIcEC1Ev ; call non-native
	ld   d7,d3
	add  d7,#0x910
	ld   i0,d7
	call &__ZN6MAUtil11BasicStringIcEC1Ev ; call non-native
	ld   [d3,2332],d5
	.line 13
	ld   r0,#0x0
	ld.b [d3,2340],r0
	.line 14
	ld   i0,[&_exit]
	ld   i1,[&_login]
	ld   i2,r0
	call &__Z16createMainLayoutPKcS0_b ; call non-native
	ld   [d3,36],r14
	.line 16
	ld   i0,r14
	ld   i1,#0x1
	call &__ZN4MAUI6Widget17setDrawBackgroundEb ; call non-native
	.dlab LBB123
	.dlab LBB124
	.stabs	"c:/MoSync/include/MAUtil/Vector.h",132,0,0,Ltext76
Ltext76:
	.line 362
	ld   i0,[d3,36]
	call &__ZN4MAUI6Widget11getChildrenEv ; call non-native
	.dlab LBB125
	ld   r14,[r14,8]
	.dlab LBE125
	.dlab LBE124
	ld   i0,[r14]
	call &__ZN4MAUI6Widget11getChildrenEv ; call non-native
	.dlab LBB126
	ld   r14,[r14,8]
	add  r14,#0x8
	.dlab LBE126
	.dlab LBE123
	ld   r14,[r14]
	ld   [d3,40],r14
	.stabs	"E:\\My Dropbox\\workspace\\GameCards\\BTVouchers\\Login.cpp",132,0,0,Ltext77
Ltext77:
	.line 19
	ld   d4,fr
	add  d4,#0xffffffd4
	ld   i0,d4
	ld   i1,[&_userlbl]
	call &__ZN6MAUtil11BasicStringIcEC1EPKc ; call non-native
	ld   i0,#0x9c
	call &__Znwm ; call non-native
	ld   d0,r14
	ld   i3,[&_scrWidth]
	add  i3,#0xfffffff6
	ld   r14,#0x18
	ld   [sp],r14
	ld   r0,#0x0
	ld   [sp,4],r0
	ld   [sp,8],d4
	ld   [sp,12],r0
	ld   r14,[&_gFontWhite]
	ld   [sp,16],r14
	ld   i0,d0
	ld   i1,r0
	ld   i2,r0
	call &__ZN4MAUI5LabelC1EiiiiPNS_6WidgetERKN6MAUtil11BasicStringIcEEiPNS_4FontE ; call non-native
	ld   [d3,44],d0
	ld   i0,d4
	call &__ZN6MAUtil11BasicStringIcED1Ev ; call non-native
	.line 20
	ld   i0,[d3,40]
	ld   r14,[i0]
	ld   d0,[r14]
	ld   i1,[d3,44]
	call d0 ; call non-native
	.line 22
	ld   i0,d4
	ld   i1,#LC18
	call &__ZN6MAUtil11BasicStringIcEC1EPKc ; call non-native
	ld   i0,d4
	ld   i1,#0x30
	call &__Z15createEditLabelN6MAUtil11BasicStringIcEEi ; call non-native
	ld   [d3,44],r14
	ld   i0,d4
	call &__ZN6MAUtil11BasicStringIcED1Ev ; call non-native
	.line 23
	ld   i0,[d3,44]
	call &__ZNK4MAUI6Widget8getWidthEv ; call non-native
	ld   d2,r14
	add  d2,#0xfffffff6
	ld   i0,[d3,44]
	call &__ZNK4MAUI6Widget9getHeightEv ; call non-native
	ld   d0,r14
	add  d0,#0xfffffff6
	ld   i0,d4
	ld   i1,#LC18
	call &__ZN6MAUtil11BasicStringIcEC1EPKc ; call non-native
	ld   i0,#0xd4
	call &__Znwm ; call non-native
	ld   d1,r14
	ld   [sp],d0
	ld   r0,[d3,44]
	ld   [sp,4],r0
	ld   [sp,8],d4
	ld   r14,#0x0
	ld   [sp,12],r14
	ld   r0,[&_gFontBlue]
	ld   [sp,16],r0
	ld   r14,#0x1
	ld.b [sp,20],r14
	ld   r0,#0x0
	ld.b [sp,24],r0
	ld   r14,#0x40
	ld   [sp,28],r14
	ld   r0,#0x1
	ld   [sp,32],r0
	ld   i0,d1
	ld   i1,#0x0
	ld   i2,#0xc
	ld   i3,d2
	call &__ZN4MAUI7EditBoxC1EiiiiPNS_6WidgetERKN6MAUtil11BasicStringIcEEiPNS_4FontEbbiNS0_9InputModeE ; call non-native
	ld   [d3,48],d1
	ld   i0,d4
	call &__ZN6MAUtil11BasicStringIcED1Ev ; call non-native
	.line 24
	ld   i0,[d3,48]
	ld   i1,#0x0
	call &__ZN4MAUI7EditBox12setInputModeENS0_9InputModeE ; call non-native
	.line 25
	ld   i0,[d3,48]
	ld   i1,#0x0
	call &__ZN4MAUI6Widget17setDrawBackgroundEb ; call non-native
	.line 26
	ld   i0,[d3,44]
	ld   i1,d6
	call &__ZN4MAUI6Widget17addWidgetListenerEPNS_14WidgetListenerE ; call non-native
	.line 27
	ld   i0,[d3,40]
	ld   r14,[i0]
	ld   d0,[r14]
	ld   i1,[d3,44]
	call d0 ; call non-native
	.line 29
	ld   i0,d4
	ld   i1,#LC18
	call &__ZN6MAUtil11BasicStringIcEC1EPKc ; call non-native
	ld   i0,#0x9c
	call &__Znwm ; call non-native
	ld   d0,r14
	ld   i3,[&_scrWidth]
	ld   r14,[&_scrHeight]
	ld   r0,#0x0
	jc   lt,r14,r0,#L263
L258:
	sra  r14,#0x3
	ld   [sp],r14
	ld   r14,#0x0
	ld   [sp,4],r14
	ld   [sp,8],d4
	ld   [sp,12],r14
	ld   r0,[&_gFontWhite]
	ld   [sp,16],r0
	ld   i0,d0
	ld   i1,r14
	ld   i2,r14
	call &__ZN4MAUI5LabelC1EiiiiPNS_6WidgetERKN6MAUtil11BasicStringIcEEiPNS_4FontE ; call non-native
	ld   [d3,44],d0
	ld   i0,d4
	call &__ZN6MAUtil11BasicStringIcED1Ev ; call non-native
	.line 30
	ld   i0,[d3,44]
	ld   i1,#0x1
	call &__ZN4MAUI5Label12setMultiLineEb ; call non-native
	.line 31
	ld   i0,[d3,40]
	ld   r14,[i0]
	ld   d0,[r14]
	ld   i1,[d3,44]
	call d0 ; call non-native
	.line 33
	ld   i0,[d3,40]
	ld   i1,#0x1
	call &__ZN4MAUI7ListBox16setSelectedIndexEi ; call non-native
	.line 35
	ld   i0,d4
	ld   i1,d5
	call &__ZN4Feed15getUnsuccessfulEv ; call non-native
	ld   d1,fr
	add  d1,#0xffffffd0
	ld   i0,d1
	ld   i1,[&_success]
	call &__ZN6MAUtil11BasicStringIcEC1EPKc ; call non-native
	ld   i0,d4
	ld   i1,d1
	call &__ZNK6MAUtil11BasicStringIcEneERKS1_ ; call non-native
	ld   d0,r14
	ld   i0,d1
	call &__ZN6MAUtil11BasicStringIcED1Ev ; call non-native
	ld   i0,d4
	call &__ZN6MAUtil11BasicStringIcED1Ev ; call non-native
	and  d0,#0xff  ; zero extend
	add  d1,#0xfffffffc
	ld   r14,#0x0
	jc   ne,d0,r14,#L264
	.line 38
	ld   i0,d1
	ld   i1,[&_falsesz]
	call &__ZN6MAUtil11BasicStringIcEC1EPKc ; call non-native
	ld   i0,d7
	ld   i1,d1
	call &__ZN6MAUtil11BasicStringIcEaSERKS1_ ; call non-native
	ld   i0,d1
	call &__ZN6MAUtil11BasicStringIcED1Ev ; call non-native
	.line 39
	ld   i0,d3
	ld   i1,[d3,36]
	call &__ZN4MAUI6Screen7setMainEPNS_6WidgetE ; call non-native
	.dlab LBE116
	add  sp,#0x30
	pop  rt,d7
	ret
L264:
	.dlab LBB127
	.line 36
	ld   i0,d1
	ld   i1,d5
	call &__ZN4Feed15getUnsuccessfulEv ; call non-native
	ld   i0,[d3,44]
	ld   r14,[i0]
	ld   d0,[r14,92]
	ld   i1,d1
	call d0 ; call non-native
	ld   i0,d1
	call &__ZN6MAUtil11BasicStringIcED1Ev ; call non-native
	.line 38
	ld   i0,d1
	ld   i1,[&_falsesz]
	call &__ZN6MAUtil11BasicStringIcEC1EPKc ; call non-native
	ld   i0,d7
	ld   i1,d1
	call &__ZN6MAUtil11BasicStringIcEaSERKS1_ ; call non-native
	ld   i0,d1
	call &__ZN6MAUtil11BasicStringIcED1Ev ; call non-native
	.line 39
	ld   i0,d3
	ld   i1,[d3,36]
	call &__ZN4MAUI6Screen7setMainEPNS_6WidgetE ; call non-native
	.dlab LBE127
	add  sp,#0x30
	pop  rt,d7
	ret
L263:
	.dlab LBB128
	.line 29
	add  r14,#0x7
	jp   #L258
	.dlab LBE128
	.stabs	"this:r(0,132)",64,0,12,13
	.stabn	192,0,0,LBB118-__ZN5LoginC2EP4Feed
	.stabn	224,0,0,LBE118-__ZN5LoginC2EP4Feed
	.stabs	"this:r(0,131)",64,0,104,6
	.stabn	192,0,0,LBB119-__ZN5LoginC2EP4Feed
	.stabn	224,0,0,LBE119-__ZN5LoginC2EP4Feed
Lscope56:
	.set	%19=__ZN5Login11btNewDeviceERKN6MAUtil8BtDeviceE
	.stabs	"this:P(0,124)",64,0,129,12
	.stabs	"dev:P(24,5)",64,0,129,13
	.global	__ZThn16_N5Login11btNewDeviceERKN6MAUtil8BtDeviceE

.func __ZThn16_N5Login11btNewDeviceERKN6MAUtil8BtDeviceE, 2, void
	.stabs	"E:\\My Dropbox\\workspace\\GameCards\\BTVouchers\\/Login.h",132,0,0,Ltext78
Ltext78:
	.line 21
	push rt,fr
	ld   fr,sp
	add  fr,#0x8
	.line 21
	add  i0,#0xfffffff0
	call &%19 ; call non-native
	pop  rt,fr
	ret
Lscope57:
.data
LC19:
	.ascii "Found new device %s\0"
LC20:
	.ascii "MOBI-MYTCG\0"
LC21:
	.ascii "Identified possible server\0"
.code
	.stabs	"_ZN5Login11btNewDeviceERKN6MAUtil8BtDeviceE:F(0,6)",36,0,129,__ZN5Login11btNewDeviceERKN6MAUtil8BtDeviceE
	.stabs	"this:P(0,124)",64,0,129,6
	.stabs	"dev:P(24,5)",64,0,129,7
	.global	__ZN5Login11btNewDeviceERKN6MAUtil8BtDeviceE

.func __ZN5Login11btNewDeviceERKN6MAUtil8BtDeviceE, 2, void
	.stabs	"E:\\My Dropbox\\workspace\\GameCards\\BTVouchers\\Login.cpp",132,0,0,Ltext79
Ltext79:
	.line 129
	push rt,d6
	sub  sp,#0x108
	ld   fr,sp
	add  fr,#0x12c
	ld   d2,i0
	ld   d3,i1
	.dlab LBB129
	.dlab LBB130
	.line 131
	ld   i0,i1
	call &__ZNK6MAUtil11BasicStringIcE5c_strEv ; call non-native
	ld   d0,fr
	add  d0,#0xfffffedc
	ld   [sp],r14
	ld   i0,d0
	ld   i1,#LC19
	call &_sprintf ; call non-native
	.line 132
	ld   d1,fr
	add  d1,#0xfffffed8
	ld   i0,d1
	ld   i1,d0
	call &__ZN6MAUtil11BasicStringIcEC1EPKc ; call non-native
	ld   i0,[d2,44]
	ld   r14,[i0]
	ld   d0,[r14,92]
	ld   i1,d1
	call d0 ; call non-native
	ld   i0,d1
	call &__ZN6MAUtil11BasicStringIcED1Ev ; call non-native
	.line 133
	ld   i0,d3
	call &__ZNK6MAUtil11BasicStringIcE5c_strEv ; call non-native
	ld   i0,r14
	ld   i1,#LC20
	call &_strcmp ; call non-native
	ld   r0,#0x0
	jc   eq,r14,r0,#L321
	.dlab LBE130
	.dlab LBE129
	.line 137
	add  sp,#0x108
	pop  rt,d6
	ret
L321:
	.dlab LBB131
	.dlab LBB132
	.line 134
	ld   i0,d1
	ld   i1,#LC21
	call &__ZN6MAUtil11BasicStringIcEC1EPKc ; call non-native
	ld   i0,[d2,44]
	ld   r14,[i0]
	ld   d0,[r14,92]
	ld   i1,d1
	call d0 ; call non-native
	ld   i0,d1
	call &__ZN6MAUtil11BasicStringIcED1Ev ; call non-native
	.dlab LBB133
	.stabs	"c:/MoSync/include/MAUtil/Vector.h",132,0,0,Ltext80
Ltext80:
	.line 167
	add  d2,#0x7c
	.dlab LBB134
	.line 168
	ld   r1,[d2,4]
	ld   r14,r1
	add  r14,#0xffffffff
	ld   r0,[d2]
	jc   lt,r0,r14,#L316
	.line 169
	ld   r14,#0x0
	jc   eq,r1,r14,#L269
	.dlab LBB135
	.line 293
	ld   d5,r1
	add  d5,r1
	.dlab LBB136
	.dlab LBB137
	.line 295
	jc   lt,r1,d5,#L322
L316:
	ld   i0,[d2,8]
L268:
	.dlab LBE137
	.dlab LBE136
	.dlab LBE135
	.dlab LBB138
	.line 174
	ld   d0,r0
	mul  d0,#0xc
	add  d0,i0
	add  r0,#0x1
	ld   [d2],r0
	.dlab LBB139
	ld   i0,d0
	ld   i1,d3
	call &__ZN6MAUtil11BasicStringIcEaSERKS1_ ; call non-native
	ld.b r0,[d3,4]
	ld.b [d0,4],r0
	ld.b r14,[d3,5]
	ld.b [d0,5],r14
	ld.b r0,[d3,6]
	ld.b [d0,6],r0
	ld.b r14,[d3,7]
	ld.b [d0,7],r14
	ld.b r0,[d3,8]
	ld.b [d0,8],r0
	ld.b d3,[d3,9]
	ld.b [d0,9],d3
	.dlab LBE139
	.dlab LBE138
	.dlab LBE134
	.dlab LBE133
	.dlab LBE132
	.dlab LBE131
	.stabs	"E:\\My Dropbox\\workspace\\GameCards\\BTVouchers\\Login.cpp",132,0,0,Ltext81
Ltext81:
	.line 137
	add  sp,#0x108
	pop  rt,d6
	ret
L322:
	.dlab LBB140
	.dlab LBB141
	.dlab LBB142
	.dlab LBB143
	.dlab LBB144
	.dlab LBB145
	.dlab LBB146
	.stabs	"c:/MoSync/include/MAUtil/Vector.h",132,0,0,Ltext82
Ltext82:
	.line 298
	ld   i0,d5
	mul  i0,#0xc
	add  i0,#0x4
	call &__Znam ; call non-native
	ld   d6,r14
	add  d6,#0x4
	ld   [r14],d5
	ld   d1,d6
	ld   d0,d5
	jp   #L317
L323:
	.dlab LBB147
	.dlab LBB148
	.line 109
	ld   i0,d1
	call &__ZN6MAUtil11BasicStringIcEC1Ev ; call non-native
	.dlab LBE148
	.dlab LBE147
	.line 298
	add  d1,#0xc
L317:
	add  d0,#0xffffffff
	ld   r0,#0xffffffff
	jc   ne,d0,r0,#L323
	.dlab LBB149
	.line 300
	ld   d4,#0x0
L318:
	ld   r0,[d2]
	jc   le,r0,d4,#L312
	.dlab LBB150
	.line 174
	ld   r14,d4
	mul  r14,#0xc
	ld   d1,r14
	add  d1,d6
	ld   d0,[d2,8]
	add  d0,r14
	.dlab LBB151
	ld   i0,d1
	ld   i1,d0
	call &__ZN6MAUtil11BasicStringIcEaSERKS1_ ; call non-native
	ld.b r14,[d0,4]
	ld.b [d1,4],r14
	ld.b r0,[d0,5]
	ld.b [d1,5],r0
	ld.b r14,[d0,6]
	ld.b [d1,6],r14
	ld.b r0,[d0,7]
	ld.b [d1,7],r0
	ld.b r14,[d0,8]
	ld.b [d1,8],r14
	ld.b d0,[d0,9]
	ld.b [d1,9],d0
	.dlab LBE151
	.dlab LBE150
	.line 300
	add  d4,#0x1
	jp   #L318
L269:
	.dlab LBE149
	.dlab LBE146
	.dlab LBE145
	.dlab LBE144
	.dlab LBB152
	.dlab LBB153
	.dlab LBB154
	.line 298
	ld   i0,#0x34
	call &__Znam ; call non-native
	ld   d5,r14
	add  d5,#0x4
	ld   r0,#0x4
	ld   [r14],r0
	ld   d0,d5
	ld   d1,#0x3
L292:
	ld   r14,#0xffffffff
	jc   eq,d1,r14,#L293
	.dlab LBB155
	.dlab LBB156
	.line 109
	ld   i0,d0
	call &__ZN6MAUtil11BasicStringIcEC1Ev ; call non-native
	.dlab LBE156
	.dlab LBE155
	.line 298
	add  d0,#0xc
	add  d1,#0xffffffff
	jp   #L292
L293:
	.dlab LBB157
	.line 300
	ld   d4,#0x0
L319:
	ld   r0,[d2]
	jc   le,r0,d4,#L314
	.dlab LBB158
	.line 174
	ld   r14,d4
	mul  r14,#0xc
	ld   d1,r14
	add  d1,d5
	ld   d0,[d2,8]
	add  d0,r14
	.dlab LBB159
	ld   i0,d1
	ld   i1,d0
	call &__ZN6MAUtil11BasicStringIcEaSERKS1_ ; call non-native
	ld.b r0,[d0,4]
	ld.b [d1,4],r0
	ld.b r14,[d0,5]
	ld.b [d1,5],r14
	ld.b r0,[d0,6]
	ld.b [d1,6],r0
	ld.b r14,[d0,7]
	ld.b [d1,7],r14
	ld.b r0,[d0,8]
	ld.b [d1,8],r0
	ld.b d0,[d0,9]
	ld.b [d1,9],d0
	.dlab LBE159
	.dlab LBE158
	.line 300
	add  d4,#0x1
	jp   #L319
L314:
	.dlab LBE157
	.line 304
	ld   r14,#0x4
	ld   [d2,4],r14
	.line 305
	ld   i0,[d2,8]
	ld   r14,#0x0
	jc   eq,i0,r14,#L303
	ld   d0,[i0,-4]
	mul  d0,#0xc
	add  d0,i0
L304:
	jc   eq,i0,d0,#L305
	add  d0,#0xfffffff4
	.dlab LBB160
	.dlab LBB161
	.line 143
	ld   i0,d0
	call &__ZN6MAUtil11BasicStringIcED1Ev ; call non-native
	ld   i0,[d2,8]
	jp   #L304
L305:
	.dlab LBE161
	.dlab LBE160
	add  i0,#0xfffffffc
	call &__ZdaPv ; call non-native
	ld   r0,[d2]
L303:
	.line 307
	ld   i0,d5
	ld   [d2,8],i0
	jp   #L268
L312:
	.dlab LBE154
	.dlab LBE153
	.dlab LBE152
	.dlab LBB162
	.dlab LBB163
	.dlab LBB164
	.line 304
	ld   [d2,4],d5
	.line 305
	ld   i0,[d2,8]
	ld   r14,#0x0
	jc   eq,i0,r14,#L283
	ld   d0,[i0,-4]
	mul  d0,#0xc
	add  d0,i0
L284:
	jc   eq,i0,d0,#L285
	add  d0,#0xfffffff4
	.dlab LBB165
	.dlab LBB166
	.line 143
	ld   i0,d0
	call &__ZN6MAUtil11BasicStringIcED1Ev ; call non-native
	ld   i0,[d2,8]
	jp   #L284
L285:
	.dlab LBE166
	.dlab LBE165
	add  i0,#0xfffffffc
	call &__ZdaPv ; call non-native
	ld   r0,[d2]
L283:
	.line 307
	ld   i0,d6
	.dlab LBE164
	.dlab LBE163
	.dlab LBE162
	.dlab LBB167
	.dlab LBB168
	.dlab LBB169
	ld   [d2,8],i0
	jp   #L268
	.dlab LBE169
	.dlab LBE168
	.dlab LBE167
	.dlab LBE143
	.dlab LBE142
	.dlab LBE141
	.dlab LBE140
	.stabs	"mBuffer:(0,126)",128,0,130,-292
	.stabn	192,0,0,LBB130-__ZN5Login11btNewDeviceERKN6MAUtil8BtDeviceE
	.stabn	224,0,0,LBE130-__ZN5Login11btNewDeviceERKN6MAUtil8BtDeviceE
	.stabs	"mBuffer:(0,126)",128,0,130,-292
	.stabn	192,0,0,LBB132-__ZN5Login11btNewDeviceERKN6MAUtil8BtDeviceE
	.stabs	"this:r(0,131)",64,0,167,6
	.stabn	192,0,0,LBB133-__ZN5Login11btNewDeviceERKN6MAUtil8BtDeviceE
	.stabs	"newCapacity:r(0,3)",64,0,293,9
	.stabn	192,0,0,LBB135-__ZN5Login11btNewDeviceERKN6MAUtil8BtDeviceE
	.stabn	224,0,0,LBE135-__ZN5Login11btNewDeviceERKN6MAUtil8BtDeviceE
	.stabn	224,0,0,LBE133-__ZN5Login11btNewDeviceERKN6MAUtil8BtDeviceE
	.stabn	224,0,0,LBE132-__ZN5Login11btNewDeviceERKN6MAUtil8BtDeviceE
	.stabs	"mBuffer:(0,126)",128,0,130,-292
	.stabn	192,0,0,LBB141-__ZN5Login11btNewDeviceERKN6MAUtil8BtDeviceE
	.stabs	"this:r(0,131)",64,0,167,6
	.stabn	192,0,0,LBB142-__ZN5Login11btNewDeviceERKN6MAUtil8BtDeviceE
	.stabs	"newCapacity:r(0,3)",64,0,293,9
	.stabn	192,0,0,LBB144-__ZN5Login11btNewDeviceERKN6MAUtil8BtDeviceE
	.stabs	"i:r(0,3)",64,0,300,8
	.stabn	192,0,0,LBB149-__ZN5Login11btNewDeviceERKN6MAUtil8BtDeviceE
	.stabs	"this:r(0,134)=k(24,4)",64,0,174,5
	.stabs	"_ctor_arg:r(24,5)",64,0,174,4
	.stabn	192,0,0,LBB150-__ZN5Login11btNewDeviceERKN6MAUtil8BtDeviceE
	.stabn	224,0,0,LBE150-__ZN5Login11btNewDeviceERKN6MAUtil8BtDeviceE
	.stabn	224,0,0,LBE149-__ZN5Login11btNewDeviceERKN6MAUtil8BtDeviceE
	.stabn	224,0,0,LBE144-__ZN5Login11btNewDeviceERKN6MAUtil8BtDeviceE
	.stabs	"i:r(0,3)",64,0,300,8
	.stabn	192,0,0,LBB157-__ZN5Login11btNewDeviceERKN6MAUtil8BtDeviceE
	.stabs	"this:r(0,134)",64,0,174,5
	.stabs	"_ctor_arg:r(24,5)",64,0,174,4
	.stabn	192,0,0,LBB158-__ZN5Login11btNewDeviceERKN6MAUtil8BtDeviceE
	.stabn	224,0,0,LBE158-__ZN5Login11btNewDeviceERKN6MAUtil8BtDeviceE
	.stabn	224,0,0,LBE157-__ZN5Login11btNewDeviceERKN6MAUtil8BtDeviceE
	.stabs	"newCapacity:r(0,3)",64,0,293,9
	.stabn	192,0,0,LBB162-__ZN5Login11btNewDeviceERKN6MAUtil8BtDeviceE
	.stabn	224,0,0,LBE162-__ZN5Login11btNewDeviceERKN6MAUtil8BtDeviceE
	.stabn	224,0,0,LBE142-__ZN5Login11btNewDeviceERKN6MAUtil8BtDeviceE
	.stabn	224,0,0,LBE141-__ZN5Login11btNewDeviceERKN6MAUtil8BtDeviceE
Lscope58:
.data
LC22:
	.ascii "ABCDEFGHIJKLMNOPQRSTUVWXYZabcdefghijklmnopqrstuvwxyz0123456789+/\0"
LC23:
	.ascii "http://voucher.mytcg.net/_phone/\0"
LC24:
	.ascii "?userdetails=1\0"
LC25:
	.ascii "?usercategories=1\0"
LC26:
	.ascii "?cardsincategory=\0"
LC27:
	.ascii "?tradecard=1\0"
.code
	.stabs	"_Z41__static_initialization_and_destruction_0ii:f(0,6)",36,0,321,__Z41__static_initialization_and_destruction_0ii
	.stabs	"__initialize_p:P(0,3)",64,0,321,12
	.stabs	"__priority:P(0,3)",64,0,321,13

.func __Z41__static_initialization_and_destruction_0ii, 2, void
	.stabs	"E:\\My Dropbox\\workspace\\GameCards\\BTVouchers\\Login.cpp",132,0,0,Ltext83
Ltext83:
	.line 321
	push rt,d0
	sub  sp,#0x4
	ld   fr,sp
	add  fr,#0x10
	.stabs	"E:\\My Dropbox\\workspace\\GameCards\\BTVouchers\\/Util.h",132,0,0,Ltext84
Ltext84:
	.line 61
	ld   r14,#0xffff
	jc   eq,i1,r14,#L360
L324:
	.stabs	"E:\\My Dropbox\\workspace\\GameCards\\BTVouchers\\Login.cpp",132,0,0,Ltext85
Ltext85:
	.line 321
	add  sp,#0x4
	pop  rt,d0
	ret
L360:
	.stabs	"E:\\My Dropbox\\workspace\\GameCards\\BTVouchers\\/Util.h",132,0,0,Ltext86
Ltext86:
	.line 61
	ld   r14,#0x1
	jc   eq,i0,r14,#L361
	.line 77
	ld   r14,#0x0
	jc   ne,i0,r14,#L324
	ld   i0,#_TRADE
	call &__ZN6MAUtil11BasicStringIcED1Ev ; call non-native
	.line 75
	ld   i0,#_CARDS
	call &__ZN6MAUtil11BasicStringIcED1Ev ; call non-native
	.line 73
	ld   i0,#_ALBUMS
	call &__ZN6MAUtil11BasicStringIcED1Ev ; call non-native
	.line 71
	ld   i0,#_USER
	call &__ZN6MAUtil11BasicStringIcED1Ev ; call non-native
	.line 69
	ld   i0,#_URL
	call &__ZN6MAUtil11BasicStringIcED1Ev ; call non-native
	.line 61
	ld   i0,#_base64_chars
	call &__ZN6MAUtil11BasicStringIcED1Ev ; call non-native
L362:
	.stabs	"E:\\My Dropbox\\workspace\\GameCards\\BTVouchers\\Login.cpp",132,0,0,Ltext87
Ltext87:
	.line 321
	add  sp,#0x4
	pop  rt,d0
	ret
L361:
	.stabs	"E:\\My Dropbox\\workspace\\GameCards\\BTVouchers\\/Util.h",132,0,0,Ltext88
Ltext88:
	.line 65
	ld   i0,#_base64_chars
	ld   i1,#LC22
	call &__ZN6MAUtil11BasicStringIcEC1EPKc ; call non-native
	.line 69
	ld   i0,#_URL
	ld   i1,#LC23
	call &__ZN6MAUtil11BasicStringIcEC1EPKc ; call non-native
	.line 71
	ld   d0,fr
	add  d0,#0xfffffff0
	ld   i0,d0
	ld   i1,#LC24
	call &__ZN6MAUtil11BasicStringIcEC1EPKc ; call non-native
	ld   i0,#_USER
	ld   i1,#_URL
	ld   i2,d0
	call &__ZNK6MAUtil11BasicStringIcEplERKS1_ ; call non-native
	ld   i0,d0
	call &__ZN6MAUtil11BasicStringIcED1Ev ; call non-native
	.line 73
	ld   i0,d0
	ld   i1,#LC25
	call &__ZN6MAUtil11BasicStringIcEC1EPKc ; call non-native
	ld   i0,#_ALBUMS
	ld   i1,#_URL
	ld   i2,d0
	call &__ZNK6MAUtil11BasicStringIcEplERKS1_ ; call non-native
	ld   i0,d0
	call &__ZN6MAUtil11BasicStringIcED1Ev ; call non-native
	.line 75
	ld   i0,d0
	ld   i1,#LC26
	call &__ZN6MAUtil11BasicStringIcEC1EPKc ; call non-native
	ld   i0,#_CARDS
	ld   i1,#_URL
	ld   i2,d0
	call &__ZNK6MAUtil11BasicStringIcEplERKS1_ ; call non-native
	ld   i0,d0
	call &__ZN6MAUtil11BasicStringIcED1Ev ; call non-native
	.line 77
	ld   i0,d0
	ld   i1,#LC27
	call &__ZN6MAUtil11BasicStringIcEC1EPKc ; call non-native
	ld   i0,#_TRADE
	ld   i1,#_URL
	ld   i2,d0
	call &__ZNK6MAUtil11BasicStringIcEplERKS1_ ; call non-native
	ld   i0,d0
	.line 61
	call &__ZN6MAUtil11BasicStringIcED1Ev ; call non-native
	jp   #L362
Lscope59:
	.stabs	"_GLOBAL__I__ZN5LoginC2EP4Feed:f(0,6)",36,0,322,__GLOBAL__I__ZN5LoginC2EP4Feed

.func __GLOBAL__I__ZN5LoginC2EP4Feed, 0, void
	.stabs	"E:\\My Dropbox\\workspace\\GameCards\\BTVouchers\\Login.cpp",132,0,0,Ltext89
Ltext89:
	.line 322
	push rt,fr
	ld   fr,sp
	add  fr,#0x8
	.line 322
	ld   i0,#0x1
	ld   i1,#0xffff
	call &__Z41__static_initialization_and_destruction_0ii ; call non-native
	pop  rt,fr
	ret
Lscope60:
	.stabs	"_GLOBAL__D__ZN5LoginC2EP4Feed:f(0,6)",36,0,323,__GLOBAL__D__ZN5LoginC2EP4Feed

.func __GLOBAL__D__ZN5LoginC2EP4Feed, 0, void
	.line 323
	push rt,fr
	ld   fr,sp
	add  fr,#0x8
	.line 323
	ld   i0,#0x0
	ld   i1,#0xffff
	call &__Z41__static_initialization_and_destruction_0ii ; call non-native
	pop  rt,fr
	ret
Lscope61:
	.stabs	"base64_chars:S(28,12)",40,0,61,_base64_chars
	.stabs	"URL:S(9,1)",40,0,69,_URL
	.stabs	"USER:S(9,1)",40,0,71,_USER
	.stabs	"ALBUMS:S(9,1)",40,0,73,_ALBUMS
	.stabs	"CARDS:S(9,1)",40,0,75,_CARDS
	.stabs	"TRADE:S(9,1)",40,0,77,_TRADE
	.stabs	"success:S(18,27)",38,0,92,_success
	.stabs	"login:S(18,27)",38,0,93,_login
	.stabs	"exit:S(18,27)",38,0,97,_exit
	.stabs	"userlbl:S(18,27)",38,0,98,_userlbl
	.stabs	"truesz:S(18,27)",38,0,121,_truesz
	.stabs	"falsesz:S(18,27)",38,0,122,_falsesz
	.stabs	"no_connect:S(18,27)",38,0,123,_no_connect
	.stabs	"xml_username:S(18,27)",38,0,150,_xml_username
	.stabs	"xml_email:S(18,27)",38,0,151,_xml_email
	.stabs	"xml_handle:S(18,27)",38,0,152,_xml_handle
	.stabs	"xml_credits:S(18,27)",38,0,153,_xml_credits
	.stabs	"xml_error:S(18,27)",38,0,154,_xml_error
	.stabs	"xml_status:S(18,27)",38,0,155,_xml_status
	.stabs	"FEED:S(18,27)",38,0,158,_FEED
	.stabs	"ALBUM:S(18,27)",38,0,159,_ALBUM
	.stabs	"sUuid:S(24,14)",38,0,10,_sUuid
	.text
	.stabs "",100,0,0,Letext
Letext:
